ARM GAS  C:\Users\domen\AppData\Local\Temp\ccgakVxa.s 			page 1


   1              		.cpu cortex-m3
   2              		.eabi_attribute 20, 1
   3              		.eabi_attribute 21, 1
   4              		.eabi_attribute 23, 3
   5              		.eabi_attribute 24, 1
   6              		.eabi_attribute 25, 1
   7              		.eabi_attribute 26, 1
   8              		.eabi_attribute 30, 1
   9              		.eabi_attribute 34, 1
  10              		.eabi_attribute 18, 4
  11              		.file	"gpio.c"
  12              		.text
  13              	.Ltext0:
  14              		.cfi_sections	.debug_frame
  15              		.section	.text.MX_GPIO_Init,"ax",%progbits
  16              		.align	1
  17              		.global	MX_GPIO_Init
  18              		.arch armv7-m
  19              		.syntax unified
  20              		.thumb
  21              		.thumb_func
  22              		.fpu softvfp
  24              	MX_GPIO_Init:
  25              	.LFB832:
  26              		.file 1 "Core/Src/gpio.c"
   1:Core/Src/gpio.c **** /**
   2:Core/Src/gpio.c ****   ******************************************************************************
   3:Core/Src/gpio.c ****   * File Name          : gpio.c
   4:Core/Src/gpio.c ****   * Description        : This file provides code for the configuration
   5:Core/Src/gpio.c ****   *                      of all used GPIO pins.
   6:Core/Src/gpio.c ****   ******************************************************************************
   7:Core/Src/gpio.c ****   * @attention
   8:Core/Src/gpio.c ****   *
   9:Core/Src/gpio.c ****   * <h2><center>&copy; Copyright (c) 2020 STMicroelectronics.
  10:Core/Src/gpio.c ****   * All rights reserved.</center></h2>
  11:Core/Src/gpio.c ****   *
  12:Core/Src/gpio.c ****   * This software component is licensed by ST under BSD 3-Clause license,
  13:Core/Src/gpio.c ****   * the "License"; You may not use this file except in compliance with the
  14:Core/Src/gpio.c ****   * License. You may obtain a copy of the License at:
  15:Core/Src/gpio.c ****   *                        opensource.org/licenses/BSD-3-Clause
  16:Core/Src/gpio.c ****   *
  17:Core/Src/gpio.c ****   ******************************************************************************
  18:Core/Src/gpio.c ****   */
  19:Core/Src/gpio.c **** 
  20:Core/Src/gpio.c **** /* Includes ------------------------------------------------------------------*/
  21:Core/Src/gpio.c **** #include "gpio.h"
  22:Core/Src/gpio.c **** /* USER CODE BEGIN 0 */
  23:Core/Src/gpio.c **** 
  24:Core/Src/gpio.c **** /* USER CODE END 0 */
  25:Core/Src/gpio.c **** 
  26:Core/Src/gpio.c **** /*----------------------------------------------------------------------------*/
  27:Core/Src/gpio.c **** /* Configure GPIO                                                             */
  28:Core/Src/gpio.c **** /*----------------------------------------------------------------------------*/
  29:Core/Src/gpio.c **** /* USER CODE BEGIN 1 */
  30:Core/Src/gpio.c **** 
  31:Core/Src/gpio.c **** /* USER CODE END 1 */
  32:Core/Src/gpio.c **** 
ARM GAS  C:\Users\domen\AppData\Local\Temp\ccgakVxa.s 			page 2


  33:Core/Src/gpio.c **** /** Configure pins
  34:Core/Src/gpio.c ****      PA8   ------> RCC_MCO
  35:Core/Src/gpio.c **** */
  36:Core/Src/gpio.c **** void MX_GPIO_Init(void)
  37:Core/Src/gpio.c **** {
  27              		.loc 1 37 1 view -0
  28              		.cfi_startproc
  29              		@ args = 0, pretend = 0, frame = 48
  30              		@ frame_needed = 0, uses_anonymous_args = 0
  31 0000 2DE9F043 		push	{r4, r5, r6, r7, r8, r9, lr}
  32              	.LCFI0:
  33              		.cfi_def_cfa_offset 28
  34              		.cfi_offset 4, -28
  35              		.cfi_offset 5, -24
  36              		.cfi_offset 6, -20
  37              		.cfi_offset 7, -16
  38              		.cfi_offset 8, -12
  39              		.cfi_offset 9, -8
  40              		.cfi_offset 14, -4
  41 0004 8DB0     		sub	sp, sp, #52
  42              	.LCFI1:
  43              		.cfi_def_cfa_offset 80
  38:Core/Src/gpio.c **** 
  39:Core/Src/gpio.c ****   LL_EXTI_InitTypeDef EXTI_InitStruct = {0};
  44              		.loc 1 39 3 view .LVU1
  45              		.loc 1 39 23 is_stmt 0 view .LVU2
  46 0006 0024     		movs	r4, #0
  47 0008 0A94     		str	r4, [sp, #40]
  48 000a 0B94     		str	r4, [sp, #44]
  40:Core/Src/gpio.c ****   LL_GPIO_InitTypeDef GPIO_InitStruct = {0};
  49              		.loc 1 40 3 is_stmt 1 view .LVU3
  50              		.loc 1 40 23 is_stmt 0 view .LVU4
  51 000c 0794     		str	r4, [sp, #28]
  52 000e 0894     		str	r4, [sp, #32]
  53 0010 0994     		str	r4, [sp, #36]
  41:Core/Src/gpio.c **** 
  42:Core/Src/gpio.c ****   /* GPIO Ports Clock Enable */
  43:Core/Src/gpio.c ****   LL_AHB1_GRP1_EnableClock(LL_AHB1_GRP1_PERIPH_GPIOA);
  54              		.loc 1 43 3 is_stmt 1 view .LVU5
  55              	.LVL0:
  56              	.LBB46:
  57              	.LBI46:
  58              		.file 2 "Drivers/STM32L1xx_HAL_Driver/Inc/stm32l1xx_ll_bus.h"
   1:Drivers/STM32L1xx_HAL_Driver/Inc/stm32l1xx_ll_bus.h **** /**
   2:Drivers/STM32L1xx_HAL_Driver/Inc/stm32l1xx_ll_bus.h ****   ******************************************************************************
   3:Drivers/STM32L1xx_HAL_Driver/Inc/stm32l1xx_ll_bus.h ****   * @file    stm32l1xx_ll_bus.h
   4:Drivers/STM32L1xx_HAL_Driver/Inc/stm32l1xx_ll_bus.h ****   * @author  MCD Application Team
   5:Drivers/STM32L1xx_HAL_Driver/Inc/stm32l1xx_ll_bus.h ****   * @brief   Header file of BUS LL module.
   6:Drivers/STM32L1xx_HAL_Driver/Inc/stm32l1xx_ll_bus.h **** 
   7:Drivers/STM32L1xx_HAL_Driver/Inc/stm32l1xx_ll_bus.h ****   @verbatim
   8:Drivers/STM32L1xx_HAL_Driver/Inc/stm32l1xx_ll_bus.h ****                       ##### RCC Limitations #####
   9:Drivers/STM32L1xx_HAL_Driver/Inc/stm32l1xx_ll_bus.h ****   ==============================================================================
  10:Drivers/STM32L1xx_HAL_Driver/Inc/stm32l1xx_ll_bus.h ****     [..]
  11:Drivers/STM32L1xx_HAL_Driver/Inc/stm32l1xx_ll_bus.h ****       A delay between an RCC peripheral clock enable and the effective peripheral
  12:Drivers/STM32L1xx_HAL_Driver/Inc/stm32l1xx_ll_bus.h ****       enabling should be taken into account in order to manage the peripheral read/write
  13:Drivers/STM32L1xx_HAL_Driver/Inc/stm32l1xx_ll_bus.h ****       from/to registers.
  14:Drivers/STM32L1xx_HAL_Driver/Inc/stm32l1xx_ll_bus.h ****       (+) This delay depends on the peripheral mapping.
ARM GAS  C:\Users\domen\AppData\Local\Temp\ccgakVxa.s 			page 3


  15:Drivers/STM32L1xx_HAL_Driver/Inc/stm32l1xx_ll_bus.h ****         (++) AHB & APB peripherals, 1 dummy read is necessary
  16:Drivers/STM32L1xx_HAL_Driver/Inc/stm32l1xx_ll_bus.h **** 
  17:Drivers/STM32L1xx_HAL_Driver/Inc/stm32l1xx_ll_bus.h ****     [..]
  18:Drivers/STM32L1xx_HAL_Driver/Inc/stm32l1xx_ll_bus.h ****       Workarounds:
  19:Drivers/STM32L1xx_HAL_Driver/Inc/stm32l1xx_ll_bus.h ****       (#) For AHB & APB peripherals, a dummy read to the peripheral register has been
  20:Drivers/STM32L1xx_HAL_Driver/Inc/stm32l1xx_ll_bus.h ****           inserted in each LL_{BUS}_GRP{x}_EnableClock() function.
  21:Drivers/STM32L1xx_HAL_Driver/Inc/stm32l1xx_ll_bus.h **** 
  22:Drivers/STM32L1xx_HAL_Driver/Inc/stm32l1xx_ll_bus.h ****   @endverbatim
  23:Drivers/STM32L1xx_HAL_Driver/Inc/stm32l1xx_ll_bus.h ****   ******************************************************************************
  24:Drivers/STM32L1xx_HAL_Driver/Inc/stm32l1xx_ll_bus.h ****   * @attention
  25:Drivers/STM32L1xx_HAL_Driver/Inc/stm32l1xx_ll_bus.h ****   *
  26:Drivers/STM32L1xx_HAL_Driver/Inc/stm32l1xx_ll_bus.h ****   * <h2><center>&copy; Copyright(c) 2017 STMicroelectronics.
  27:Drivers/STM32L1xx_HAL_Driver/Inc/stm32l1xx_ll_bus.h ****   * All rights reserved.</center></h2>
  28:Drivers/STM32L1xx_HAL_Driver/Inc/stm32l1xx_ll_bus.h ****   *
  29:Drivers/STM32L1xx_HAL_Driver/Inc/stm32l1xx_ll_bus.h ****   * This software component is licensed by ST under BSD 3-Clause license,
  30:Drivers/STM32L1xx_HAL_Driver/Inc/stm32l1xx_ll_bus.h ****   * the "License"; You may not use this file except in compliance with the
  31:Drivers/STM32L1xx_HAL_Driver/Inc/stm32l1xx_ll_bus.h ****   * License. You may obtain a copy of the License at:
  32:Drivers/STM32L1xx_HAL_Driver/Inc/stm32l1xx_ll_bus.h ****   *                        opensource.org/licenses/BSD-3-Clause
  33:Drivers/STM32L1xx_HAL_Driver/Inc/stm32l1xx_ll_bus.h ****   *
  34:Drivers/STM32L1xx_HAL_Driver/Inc/stm32l1xx_ll_bus.h ****   ******************************************************************************
  35:Drivers/STM32L1xx_HAL_Driver/Inc/stm32l1xx_ll_bus.h ****   */
  36:Drivers/STM32L1xx_HAL_Driver/Inc/stm32l1xx_ll_bus.h **** 
  37:Drivers/STM32L1xx_HAL_Driver/Inc/stm32l1xx_ll_bus.h **** /* Define to prevent recursive inclusion -------------------------------------*/
  38:Drivers/STM32L1xx_HAL_Driver/Inc/stm32l1xx_ll_bus.h **** #ifndef __STM32L1xx_LL_BUS_H
  39:Drivers/STM32L1xx_HAL_Driver/Inc/stm32l1xx_ll_bus.h **** #define __STM32L1xx_LL_BUS_H
  40:Drivers/STM32L1xx_HAL_Driver/Inc/stm32l1xx_ll_bus.h **** 
  41:Drivers/STM32L1xx_HAL_Driver/Inc/stm32l1xx_ll_bus.h **** #ifdef __cplusplus
  42:Drivers/STM32L1xx_HAL_Driver/Inc/stm32l1xx_ll_bus.h **** extern "C" {
  43:Drivers/STM32L1xx_HAL_Driver/Inc/stm32l1xx_ll_bus.h **** #endif
  44:Drivers/STM32L1xx_HAL_Driver/Inc/stm32l1xx_ll_bus.h **** 
  45:Drivers/STM32L1xx_HAL_Driver/Inc/stm32l1xx_ll_bus.h **** /* Includes ------------------------------------------------------------------*/
  46:Drivers/STM32L1xx_HAL_Driver/Inc/stm32l1xx_ll_bus.h **** #include "stm32l1xx.h"
  47:Drivers/STM32L1xx_HAL_Driver/Inc/stm32l1xx_ll_bus.h **** 
  48:Drivers/STM32L1xx_HAL_Driver/Inc/stm32l1xx_ll_bus.h **** /** @addtogroup STM32L1xx_LL_Driver
  49:Drivers/STM32L1xx_HAL_Driver/Inc/stm32l1xx_ll_bus.h ****   * @{
  50:Drivers/STM32L1xx_HAL_Driver/Inc/stm32l1xx_ll_bus.h ****   */
  51:Drivers/STM32L1xx_HAL_Driver/Inc/stm32l1xx_ll_bus.h **** 
  52:Drivers/STM32L1xx_HAL_Driver/Inc/stm32l1xx_ll_bus.h **** #if defined(RCC)
  53:Drivers/STM32L1xx_HAL_Driver/Inc/stm32l1xx_ll_bus.h **** 
  54:Drivers/STM32L1xx_HAL_Driver/Inc/stm32l1xx_ll_bus.h **** /** @defgroup BUS_LL BUS
  55:Drivers/STM32L1xx_HAL_Driver/Inc/stm32l1xx_ll_bus.h ****   * @{
  56:Drivers/STM32L1xx_HAL_Driver/Inc/stm32l1xx_ll_bus.h ****   */
  57:Drivers/STM32L1xx_HAL_Driver/Inc/stm32l1xx_ll_bus.h **** 
  58:Drivers/STM32L1xx_HAL_Driver/Inc/stm32l1xx_ll_bus.h **** /* Private types -------------------------------------------------------------*/
  59:Drivers/STM32L1xx_HAL_Driver/Inc/stm32l1xx_ll_bus.h **** /* Private variables ---------------------------------------------------------*/
  60:Drivers/STM32L1xx_HAL_Driver/Inc/stm32l1xx_ll_bus.h **** 
  61:Drivers/STM32L1xx_HAL_Driver/Inc/stm32l1xx_ll_bus.h **** /* Private constants ---------------------------------------------------------*/
  62:Drivers/STM32L1xx_HAL_Driver/Inc/stm32l1xx_ll_bus.h **** 
  63:Drivers/STM32L1xx_HAL_Driver/Inc/stm32l1xx_ll_bus.h **** /* Private macros ------------------------------------------------------------*/
  64:Drivers/STM32L1xx_HAL_Driver/Inc/stm32l1xx_ll_bus.h **** 
  65:Drivers/STM32L1xx_HAL_Driver/Inc/stm32l1xx_ll_bus.h **** /* Exported types ------------------------------------------------------------*/
  66:Drivers/STM32L1xx_HAL_Driver/Inc/stm32l1xx_ll_bus.h **** /* Exported constants --------------------------------------------------------*/
  67:Drivers/STM32L1xx_HAL_Driver/Inc/stm32l1xx_ll_bus.h **** /** @defgroup BUS_LL_Exported_Constants BUS Exported Constants
  68:Drivers/STM32L1xx_HAL_Driver/Inc/stm32l1xx_ll_bus.h ****   * @{
  69:Drivers/STM32L1xx_HAL_Driver/Inc/stm32l1xx_ll_bus.h ****   */
  70:Drivers/STM32L1xx_HAL_Driver/Inc/stm32l1xx_ll_bus.h **** 
  71:Drivers/STM32L1xx_HAL_Driver/Inc/stm32l1xx_ll_bus.h **** /** @defgroup BUS_LL_EC_AHB1_GRP1_PERIPH  AHB1 GRP1 PERIPH
ARM GAS  C:\Users\domen\AppData\Local\Temp\ccgakVxa.s 			page 4


  72:Drivers/STM32L1xx_HAL_Driver/Inc/stm32l1xx_ll_bus.h ****   * @{
  73:Drivers/STM32L1xx_HAL_Driver/Inc/stm32l1xx_ll_bus.h ****   */
  74:Drivers/STM32L1xx_HAL_Driver/Inc/stm32l1xx_ll_bus.h **** #define LL_AHB1_GRP1_PERIPH_ALL            0xFFFFFFFFU
  75:Drivers/STM32L1xx_HAL_Driver/Inc/stm32l1xx_ll_bus.h **** #define LL_AHB1_GRP1_PERIPH_GPIOA          RCC_AHBENR_GPIOAEN
  76:Drivers/STM32L1xx_HAL_Driver/Inc/stm32l1xx_ll_bus.h **** #define LL_AHB1_GRP1_PERIPH_GPIOB          RCC_AHBENR_GPIOBEN
  77:Drivers/STM32L1xx_HAL_Driver/Inc/stm32l1xx_ll_bus.h **** #define LL_AHB1_GRP1_PERIPH_GPIOC          RCC_AHBENR_GPIOCEN
  78:Drivers/STM32L1xx_HAL_Driver/Inc/stm32l1xx_ll_bus.h **** #define LL_AHB1_GRP1_PERIPH_GPIOD          RCC_AHBENR_GPIODEN
  79:Drivers/STM32L1xx_HAL_Driver/Inc/stm32l1xx_ll_bus.h **** #if defined(GPIOE)
  80:Drivers/STM32L1xx_HAL_Driver/Inc/stm32l1xx_ll_bus.h **** #define LL_AHB1_GRP1_PERIPH_GPIOE          RCC_AHBENR_GPIOEEN
  81:Drivers/STM32L1xx_HAL_Driver/Inc/stm32l1xx_ll_bus.h **** #endif/*GPIOE*/
  82:Drivers/STM32L1xx_HAL_Driver/Inc/stm32l1xx_ll_bus.h **** #define LL_AHB1_GRP1_PERIPH_GPIOH          RCC_AHBENR_GPIOHEN
  83:Drivers/STM32L1xx_HAL_Driver/Inc/stm32l1xx_ll_bus.h **** #if defined(GPIOF)
  84:Drivers/STM32L1xx_HAL_Driver/Inc/stm32l1xx_ll_bus.h **** #define LL_AHB1_GRP1_PERIPH_GPIOF          RCC_AHBENR_GPIOFEN
  85:Drivers/STM32L1xx_HAL_Driver/Inc/stm32l1xx_ll_bus.h **** #endif/*GPIOF*/
  86:Drivers/STM32L1xx_HAL_Driver/Inc/stm32l1xx_ll_bus.h **** #if defined(GPIOG)
  87:Drivers/STM32L1xx_HAL_Driver/Inc/stm32l1xx_ll_bus.h **** #define LL_AHB1_GRP1_PERIPH_GPIOG          RCC_AHBENR_GPIOGEN
  88:Drivers/STM32L1xx_HAL_Driver/Inc/stm32l1xx_ll_bus.h **** #endif/*GPIOG*/
  89:Drivers/STM32L1xx_HAL_Driver/Inc/stm32l1xx_ll_bus.h **** #define LL_AHB1_GRP1_PERIPH_SRAM           RCC_AHBLPENR_SRAMLPEN
  90:Drivers/STM32L1xx_HAL_Driver/Inc/stm32l1xx_ll_bus.h **** #define LL_AHB1_GRP1_PERIPH_CRC            RCC_AHBENR_CRCEN
  91:Drivers/STM32L1xx_HAL_Driver/Inc/stm32l1xx_ll_bus.h **** #define LL_AHB1_GRP1_PERIPH_FLASH          RCC_AHBENR_FLITFEN
  92:Drivers/STM32L1xx_HAL_Driver/Inc/stm32l1xx_ll_bus.h **** #define LL_AHB1_GRP1_PERIPH_DMA1           RCC_AHBENR_DMA1EN
  93:Drivers/STM32L1xx_HAL_Driver/Inc/stm32l1xx_ll_bus.h **** #if defined(DMA2)
  94:Drivers/STM32L1xx_HAL_Driver/Inc/stm32l1xx_ll_bus.h **** #define LL_AHB1_GRP1_PERIPH_DMA2           RCC_AHBENR_DMA2EN
  95:Drivers/STM32L1xx_HAL_Driver/Inc/stm32l1xx_ll_bus.h **** #endif/*DMA2*/
  96:Drivers/STM32L1xx_HAL_Driver/Inc/stm32l1xx_ll_bus.h **** #if defined(AES)
  97:Drivers/STM32L1xx_HAL_Driver/Inc/stm32l1xx_ll_bus.h **** #define LL_AHB1_GRP1_PERIPH_CRYP           RCC_AHBENR_AESEN
  98:Drivers/STM32L1xx_HAL_Driver/Inc/stm32l1xx_ll_bus.h **** #endif/*AES*/
  99:Drivers/STM32L1xx_HAL_Driver/Inc/stm32l1xx_ll_bus.h **** #if defined(FSMC_Bank1)
 100:Drivers/STM32L1xx_HAL_Driver/Inc/stm32l1xx_ll_bus.h **** #define LL_AHB1_GRP1_PERIPH_FSMC           RCC_AHBENR_FSMCEN
 101:Drivers/STM32L1xx_HAL_Driver/Inc/stm32l1xx_ll_bus.h **** #endif/*FSMC_Bank1*/
 102:Drivers/STM32L1xx_HAL_Driver/Inc/stm32l1xx_ll_bus.h **** /**
 103:Drivers/STM32L1xx_HAL_Driver/Inc/stm32l1xx_ll_bus.h ****   * @}
 104:Drivers/STM32L1xx_HAL_Driver/Inc/stm32l1xx_ll_bus.h ****   */
 105:Drivers/STM32L1xx_HAL_Driver/Inc/stm32l1xx_ll_bus.h **** 
 106:Drivers/STM32L1xx_HAL_Driver/Inc/stm32l1xx_ll_bus.h **** /** @defgroup BUS_LL_EC_APB1_GRP1_PERIPH  APB1 GRP1 PERIPH
 107:Drivers/STM32L1xx_HAL_Driver/Inc/stm32l1xx_ll_bus.h ****   * @{
 108:Drivers/STM32L1xx_HAL_Driver/Inc/stm32l1xx_ll_bus.h ****   */
 109:Drivers/STM32L1xx_HAL_Driver/Inc/stm32l1xx_ll_bus.h **** #define LL_APB1_GRP1_PERIPH_ALL            0xFFFFFFFFU
 110:Drivers/STM32L1xx_HAL_Driver/Inc/stm32l1xx_ll_bus.h **** #define LL_APB1_GRP1_PERIPH_TIM2           RCC_APB1ENR_TIM2EN
 111:Drivers/STM32L1xx_HAL_Driver/Inc/stm32l1xx_ll_bus.h **** #define LL_APB1_GRP1_PERIPH_TIM3           RCC_APB1ENR_TIM3EN
 112:Drivers/STM32L1xx_HAL_Driver/Inc/stm32l1xx_ll_bus.h **** #define LL_APB1_GRP1_PERIPH_TIM4           RCC_APB1ENR_TIM4EN
 113:Drivers/STM32L1xx_HAL_Driver/Inc/stm32l1xx_ll_bus.h **** #if defined(TIM5)
 114:Drivers/STM32L1xx_HAL_Driver/Inc/stm32l1xx_ll_bus.h **** #define LL_APB1_GRP1_PERIPH_TIM5           RCC_APB1ENR_TIM5EN
 115:Drivers/STM32L1xx_HAL_Driver/Inc/stm32l1xx_ll_bus.h **** #endif /*TIM5*/
 116:Drivers/STM32L1xx_HAL_Driver/Inc/stm32l1xx_ll_bus.h **** #define LL_APB1_GRP1_PERIPH_TIM6           RCC_APB1ENR_TIM6EN
 117:Drivers/STM32L1xx_HAL_Driver/Inc/stm32l1xx_ll_bus.h **** #define LL_APB1_GRP1_PERIPH_TIM7           RCC_APB1ENR_TIM7EN
 118:Drivers/STM32L1xx_HAL_Driver/Inc/stm32l1xx_ll_bus.h **** #if defined(LCD)
 119:Drivers/STM32L1xx_HAL_Driver/Inc/stm32l1xx_ll_bus.h **** #define LL_APB1_GRP1_PERIPH_LCD            RCC_APB1ENR_LCDEN
 120:Drivers/STM32L1xx_HAL_Driver/Inc/stm32l1xx_ll_bus.h **** #endif /*LCD*/
 121:Drivers/STM32L1xx_HAL_Driver/Inc/stm32l1xx_ll_bus.h **** #define LL_APB1_GRP1_PERIPH_WWDG           RCC_APB1ENR_WWDGEN
 122:Drivers/STM32L1xx_HAL_Driver/Inc/stm32l1xx_ll_bus.h **** #define LL_APB1_GRP1_PERIPH_SPI2           RCC_APB1ENR_SPI2EN
 123:Drivers/STM32L1xx_HAL_Driver/Inc/stm32l1xx_ll_bus.h **** #if defined(SPI3)
 124:Drivers/STM32L1xx_HAL_Driver/Inc/stm32l1xx_ll_bus.h **** #define LL_APB1_GRP1_PERIPH_SPI3           RCC_APB1ENR_SPI3EN
 125:Drivers/STM32L1xx_HAL_Driver/Inc/stm32l1xx_ll_bus.h **** #endif /*SPI3*/
 126:Drivers/STM32L1xx_HAL_Driver/Inc/stm32l1xx_ll_bus.h **** #define LL_APB1_GRP1_PERIPH_USART2         RCC_APB1ENR_USART2EN
 127:Drivers/STM32L1xx_HAL_Driver/Inc/stm32l1xx_ll_bus.h **** #define LL_APB1_GRP1_PERIPH_USART3         RCC_APB1ENR_USART3EN
 128:Drivers/STM32L1xx_HAL_Driver/Inc/stm32l1xx_ll_bus.h **** #if defined(UART4)
ARM GAS  C:\Users\domen\AppData\Local\Temp\ccgakVxa.s 			page 5


 129:Drivers/STM32L1xx_HAL_Driver/Inc/stm32l1xx_ll_bus.h **** #define LL_APB1_GRP1_PERIPH_UART4          RCC_APB1ENR_UART4EN
 130:Drivers/STM32L1xx_HAL_Driver/Inc/stm32l1xx_ll_bus.h **** #endif /*UART4*/
 131:Drivers/STM32L1xx_HAL_Driver/Inc/stm32l1xx_ll_bus.h **** #if defined(UART5)
 132:Drivers/STM32L1xx_HAL_Driver/Inc/stm32l1xx_ll_bus.h **** #define LL_APB1_GRP1_PERIPH_UART5          RCC_APB1ENR_UART5EN
 133:Drivers/STM32L1xx_HAL_Driver/Inc/stm32l1xx_ll_bus.h **** #endif /*UART5*/
 134:Drivers/STM32L1xx_HAL_Driver/Inc/stm32l1xx_ll_bus.h **** #define LL_APB1_GRP1_PERIPH_I2C1           RCC_APB1ENR_I2C1EN
 135:Drivers/STM32L1xx_HAL_Driver/Inc/stm32l1xx_ll_bus.h **** #define LL_APB1_GRP1_PERIPH_I2C2           RCC_APB1ENR_I2C2EN
 136:Drivers/STM32L1xx_HAL_Driver/Inc/stm32l1xx_ll_bus.h **** #define LL_APB1_GRP1_PERIPH_USB            RCC_APB1ENR_USBEN
 137:Drivers/STM32L1xx_HAL_Driver/Inc/stm32l1xx_ll_bus.h **** #define LL_APB1_GRP1_PERIPH_PWR            RCC_APB1ENR_PWREN
 138:Drivers/STM32L1xx_HAL_Driver/Inc/stm32l1xx_ll_bus.h **** #define LL_APB1_GRP1_PERIPH_DAC1           RCC_APB1ENR_DACEN
 139:Drivers/STM32L1xx_HAL_Driver/Inc/stm32l1xx_ll_bus.h **** #define LL_APB1_GRP1_PERIPH_COMP           RCC_APB1ENR_COMPEN
 140:Drivers/STM32L1xx_HAL_Driver/Inc/stm32l1xx_ll_bus.h **** #if defined(OPAMP)
 141:Drivers/STM32L1xx_HAL_Driver/Inc/stm32l1xx_ll_bus.h **** /* Note: Peripherals COMP and OPAMP share the same clock domain */
 142:Drivers/STM32L1xx_HAL_Driver/Inc/stm32l1xx_ll_bus.h **** #define LL_APB1_GRP1_PERIPH_OPAMP          LL_APB1_GRP1_PERIPH_COMP
 143:Drivers/STM32L1xx_HAL_Driver/Inc/stm32l1xx_ll_bus.h **** #endif
 144:Drivers/STM32L1xx_HAL_Driver/Inc/stm32l1xx_ll_bus.h **** /**
 145:Drivers/STM32L1xx_HAL_Driver/Inc/stm32l1xx_ll_bus.h ****   * @}
 146:Drivers/STM32L1xx_HAL_Driver/Inc/stm32l1xx_ll_bus.h ****   */
 147:Drivers/STM32L1xx_HAL_Driver/Inc/stm32l1xx_ll_bus.h **** 
 148:Drivers/STM32L1xx_HAL_Driver/Inc/stm32l1xx_ll_bus.h **** /** @defgroup BUS_LL_EC_APB2_GRP1_PERIPH  APB2 GRP1 PERIPH
 149:Drivers/STM32L1xx_HAL_Driver/Inc/stm32l1xx_ll_bus.h ****   * @{
 150:Drivers/STM32L1xx_HAL_Driver/Inc/stm32l1xx_ll_bus.h ****   */
 151:Drivers/STM32L1xx_HAL_Driver/Inc/stm32l1xx_ll_bus.h **** #define LL_APB2_GRP1_PERIPH_ALL            0xFFFFFFFFU
 152:Drivers/STM32L1xx_HAL_Driver/Inc/stm32l1xx_ll_bus.h **** #define LL_APB2_GRP1_PERIPH_SYSCFG         RCC_APB2ENR_SYSCFGEN
 153:Drivers/STM32L1xx_HAL_Driver/Inc/stm32l1xx_ll_bus.h **** #define LL_APB2_GRP1_PERIPH_TIM9           RCC_APB2ENR_TIM9EN
 154:Drivers/STM32L1xx_HAL_Driver/Inc/stm32l1xx_ll_bus.h **** #define LL_APB2_GRP1_PERIPH_TIM10          RCC_APB2ENR_TIM10EN
 155:Drivers/STM32L1xx_HAL_Driver/Inc/stm32l1xx_ll_bus.h **** #define LL_APB2_GRP1_PERIPH_TIM11          RCC_APB2ENR_TIM11EN
 156:Drivers/STM32L1xx_HAL_Driver/Inc/stm32l1xx_ll_bus.h **** #define LL_APB2_GRP1_PERIPH_ADC1           RCC_APB2ENR_ADC1EN
 157:Drivers/STM32L1xx_HAL_Driver/Inc/stm32l1xx_ll_bus.h **** #if defined(SDIO)
 158:Drivers/STM32L1xx_HAL_Driver/Inc/stm32l1xx_ll_bus.h **** #define LL_APB2_GRP1_PERIPH_SDIO           RCC_APB2ENR_SDIOEN
 159:Drivers/STM32L1xx_HAL_Driver/Inc/stm32l1xx_ll_bus.h **** #endif /*SDIO*/
 160:Drivers/STM32L1xx_HAL_Driver/Inc/stm32l1xx_ll_bus.h **** #define LL_APB2_GRP1_PERIPH_SPI1           RCC_APB2ENR_SPI1EN
 161:Drivers/STM32L1xx_HAL_Driver/Inc/stm32l1xx_ll_bus.h **** #define LL_APB2_GRP1_PERIPH_USART1         RCC_APB2ENR_USART1EN
 162:Drivers/STM32L1xx_HAL_Driver/Inc/stm32l1xx_ll_bus.h **** /**
 163:Drivers/STM32L1xx_HAL_Driver/Inc/stm32l1xx_ll_bus.h ****   * @}
 164:Drivers/STM32L1xx_HAL_Driver/Inc/stm32l1xx_ll_bus.h ****   */
 165:Drivers/STM32L1xx_HAL_Driver/Inc/stm32l1xx_ll_bus.h **** 
 166:Drivers/STM32L1xx_HAL_Driver/Inc/stm32l1xx_ll_bus.h **** /**
 167:Drivers/STM32L1xx_HAL_Driver/Inc/stm32l1xx_ll_bus.h ****   * @}
 168:Drivers/STM32L1xx_HAL_Driver/Inc/stm32l1xx_ll_bus.h ****   */
 169:Drivers/STM32L1xx_HAL_Driver/Inc/stm32l1xx_ll_bus.h **** 
 170:Drivers/STM32L1xx_HAL_Driver/Inc/stm32l1xx_ll_bus.h **** /* Exported macro ------------------------------------------------------------*/
 171:Drivers/STM32L1xx_HAL_Driver/Inc/stm32l1xx_ll_bus.h **** 
 172:Drivers/STM32L1xx_HAL_Driver/Inc/stm32l1xx_ll_bus.h **** /* Exported functions --------------------------------------------------------*/
 173:Drivers/STM32L1xx_HAL_Driver/Inc/stm32l1xx_ll_bus.h **** /** @defgroup BUS_LL_Exported_Functions BUS Exported Functions
 174:Drivers/STM32L1xx_HAL_Driver/Inc/stm32l1xx_ll_bus.h ****   * @{
 175:Drivers/STM32L1xx_HAL_Driver/Inc/stm32l1xx_ll_bus.h ****   */
 176:Drivers/STM32L1xx_HAL_Driver/Inc/stm32l1xx_ll_bus.h **** 
 177:Drivers/STM32L1xx_HAL_Driver/Inc/stm32l1xx_ll_bus.h **** /** @defgroup BUS_LL_EF_AHB1 AHB1
 178:Drivers/STM32L1xx_HAL_Driver/Inc/stm32l1xx_ll_bus.h ****   * @{
 179:Drivers/STM32L1xx_HAL_Driver/Inc/stm32l1xx_ll_bus.h ****   */
 180:Drivers/STM32L1xx_HAL_Driver/Inc/stm32l1xx_ll_bus.h **** 
 181:Drivers/STM32L1xx_HAL_Driver/Inc/stm32l1xx_ll_bus.h **** /**
 182:Drivers/STM32L1xx_HAL_Driver/Inc/stm32l1xx_ll_bus.h ****   * @brief  Enable AHB1 peripherals clock.
 183:Drivers/STM32L1xx_HAL_Driver/Inc/stm32l1xx_ll_bus.h ****   * @rmtoll AHBENR       GPIOAEN       LL_AHB1_GRP1_EnableClock\n
 184:Drivers/STM32L1xx_HAL_Driver/Inc/stm32l1xx_ll_bus.h ****   *         AHBENR       GPIOBEN       LL_AHB1_GRP1_EnableClock\n
 185:Drivers/STM32L1xx_HAL_Driver/Inc/stm32l1xx_ll_bus.h ****   *         AHBENR       GPIOCEN       LL_AHB1_GRP1_EnableClock\n
ARM GAS  C:\Users\domen\AppData\Local\Temp\ccgakVxa.s 			page 6


 186:Drivers/STM32L1xx_HAL_Driver/Inc/stm32l1xx_ll_bus.h ****   *         AHBENR       GPIODEN       LL_AHB1_GRP1_EnableClock\n
 187:Drivers/STM32L1xx_HAL_Driver/Inc/stm32l1xx_ll_bus.h ****   *         AHBENR       GPIOEEN       LL_AHB1_GRP1_EnableClock\n
 188:Drivers/STM32L1xx_HAL_Driver/Inc/stm32l1xx_ll_bus.h ****   *         AHBENR       GPIOHEN       LL_AHB1_GRP1_EnableClock\n
 189:Drivers/STM32L1xx_HAL_Driver/Inc/stm32l1xx_ll_bus.h ****   *         AHBENR       GPIOFEN       LL_AHB1_GRP1_EnableClock\n
 190:Drivers/STM32L1xx_HAL_Driver/Inc/stm32l1xx_ll_bus.h ****   *         AHBENR       GPIOGEN       LL_AHB1_GRP1_EnableClock\n
 191:Drivers/STM32L1xx_HAL_Driver/Inc/stm32l1xx_ll_bus.h ****   *         AHBENR       CRCEN         LL_AHB1_GRP1_EnableClock\n
 192:Drivers/STM32L1xx_HAL_Driver/Inc/stm32l1xx_ll_bus.h ****   *         AHBENR       FLITFEN       LL_AHB1_GRP1_EnableClock\n
 193:Drivers/STM32L1xx_HAL_Driver/Inc/stm32l1xx_ll_bus.h ****   *         AHBENR       DMA1EN        LL_AHB1_GRP1_EnableClock\n
 194:Drivers/STM32L1xx_HAL_Driver/Inc/stm32l1xx_ll_bus.h ****   *         AHBENR       DMA2EN        LL_AHB1_GRP1_EnableClock\n
 195:Drivers/STM32L1xx_HAL_Driver/Inc/stm32l1xx_ll_bus.h ****   *         AHBENR       AESEN         LL_AHB1_GRP1_EnableClock\n
 196:Drivers/STM32L1xx_HAL_Driver/Inc/stm32l1xx_ll_bus.h ****   *         AHBENR       FSMCEN        LL_AHB1_GRP1_EnableClock
 197:Drivers/STM32L1xx_HAL_Driver/Inc/stm32l1xx_ll_bus.h ****   * @param  Periphs This parameter can be a combination of the following values:
 198:Drivers/STM32L1xx_HAL_Driver/Inc/stm32l1xx_ll_bus.h ****   *         @arg @ref LL_AHB1_GRP1_PERIPH_GPIOA
 199:Drivers/STM32L1xx_HAL_Driver/Inc/stm32l1xx_ll_bus.h ****   *         @arg @ref LL_AHB1_GRP1_PERIPH_GPIOB
 200:Drivers/STM32L1xx_HAL_Driver/Inc/stm32l1xx_ll_bus.h ****   *         @arg @ref LL_AHB1_GRP1_PERIPH_GPIOC
 201:Drivers/STM32L1xx_HAL_Driver/Inc/stm32l1xx_ll_bus.h ****   *         @arg @ref LL_AHB1_GRP1_PERIPH_GPIOD
 202:Drivers/STM32L1xx_HAL_Driver/Inc/stm32l1xx_ll_bus.h ****   *         @arg @ref LL_AHB1_GRP1_PERIPH_GPIOE (*)
 203:Drivers/STM32L1xx_HAL_Driver/Inc/stm32l1xx_ll_bus.h ****   *         @arg @ref LL_AHB1_GRP1_PERIPH_GPIOH
 204:Drivers/STM32L1xx_HAL_Driver/Inc/stm32l1xx_ll_bus.h ****   *         @arg @ref LL_AHB1_GRP1_PERIPH_GPIOF (*)
 205:Drivers/STM32L1xx_HAL_Driver/Inc/stm32l1xx_ll_bus.h ****   *         @arg @ref LL_AHB1_GRP1_PERIPH_GPIOG (*)
 206:Drivers/STM32L1xx_HAL_Driver/Inc/stm32l1xx_ll_bus.h ****   *         @arg @ref LL_AHB1_GRP1_PERIPH_CRC
 207:Drivers/STM32L1xx_HAL_Driver/Inc/stm32l1xx_ll_bus.h ****   *         @arg @ref LL_AHB1_GRP1_PERIPH_FLASH
 208:Drivers/STM32L1xx_HAL_Driver/Inc/stm32l1xx_ll_bus.h ****   *         @arg @ref LL_AHB1_GRP1_PERIPH_DMA1
 209:Drivers/STM32L1xx_HAL_Driver/Inc/stm32l1xx_ll_bus.h ****   *         @arg @ref LL_AHB1_GRP1_PERIPH_DMA2 (*)
 210:Drivers/STM32L1xx_HAL_Driver/Inc/stm32l1xx_ll_bus.h ****   *         @arg @ref LL_AHB1_GRP1_PERIPH_CRYP (*)
 211:Drivers/STM32L1xx_HAL_Driver/Inc/stm32l1xx_ll_bus.h ****   *         @arg @ref LL_AHB1_GRP1_PERIPH_FSMC (*)
 212:Drivers/STM32L1xx_HAL_Driver/Inc/stm32l1xx_ll_bus.h ****   *
 213:Drivers/STM32L1xx_HAL_Driver/Inc/stm32l1xx_ll_bus.h ****   *         (*) value not defined in all devices.
 214:Drivers/STM32L1xx_HAL_Driver/Inc/stm32l1xx_ll_bus.h ****   * @retval None
 215:Drivers/STM32L1xx_HAL_Driver/Inc/stm32l1xx_ll_bus.h **** */
 216:Drivers/STM32L1xx_HAL_Driver/Inc/stm32l1xx_ll_bus.h **** __STATIC_INLINE void LL_AHB1_GRP1_EnableClock(uint32_t Periphs)
  59              		.loc 2 216 22 view .LVU6
  60              	.LBB47:
 217:Drivers/STM32L1xx_HAL_Driver/Inc/stm32l1xx_ll_bus.h **** {
 218:Drivers/STM32L1xx_HAL_Driver/Inc/stm32l1xx_ll_bus.h ****   __IO uint32_t tmpreg;
  61              		.loc 2 218 3 view .LVU7
 219:Drivers/STM32L1xx_HAL_Driver/Inc/stm32l1xx_ll_bus.h ****   SET_BIT(RCC->AHBENR, Periphs);
  62              		.loc 2 219 3 view .LVU8
  63 0012 674B     		ldr	r3, .L5
  64 0014 DA69     		ldr	r2, [r3, #28]
  65 0016 42F00102 		orr	r2, r2, #1
  66 001a DA61     		str	r2, [r3, #28]
 220:Drivers/STM32L1xx_HAL_Driver/Inc/stm32l1xx_ll_bus.h ****   /* Delay after an RCC peripheral clock enabling */
 221:Drivers/STM32L1xx_HAL_Driver/Inc/stm32l1xx_ll_bus.h ****   tmpreg = READ_BIT(RCC->AHBENR, Periphs);
  67              		.loc 2 221 3 view .LVU9
  68              		.loc 2 221 12 is_stmt 0 view .LVU10
  69 001c DA69     		ldr	r2, [r3, #28]
  70 001e 02F00102 		and	r2, r2, #1
  71              		.loc 2 221 10 view .LVU11
  72 0022 0392     		str	r2, [sp, #12]
 222:Drivers/STM32L1xx_HAL_Driver/Inc/stm32l1xx_ll_bus.h ****   (void)tmpreg;
  73              		.loc 2 222 3 is_stmt 1 view .LVU12
  74 0024 039A     		ldr	r2, [sp, #12]
  75              	.LVL1:
  76              		.loc 2 222 3 is_stmt 0 view .LVU13
  77              	.LBE47:
  78              	.LBE46:
ARM GAS  C:\Users\domen\AppData\Local\Temp\ccgakVxa.s 			page 7


  44:Core/Src/gpio.c ****   LL_AHB1_GRP1_EnableClock(LL_AHB1_GRP1_PERIPH_GPIOC);
  79              		.loc 1 44 3 is_stmt 1 view .LVU14
  80              	.LBB48:
  81              	.LBI48:
 216:Drivers/STM32L1xx_HAL_Driver/Inc/stm32l1xx_ll_bus.h **** {
  82              		.loc 2 216 22 view .LVU15
  83              	.LBB49:
 218:Drivers/STM32L1xx_HAL_Driver/Inc/stm32l1xx_ll_bus.h ****   SET_BIT(RCC->AHBENR, Periphs);
  84              		.loc 2 218 3 view .LVU16
 219:Drivers/STM32L1xx_HAL_Driver/Inc/stm32l1xx_ll_bus.h ****   /* Delay after an RCC peripheral clock enabling */
  85              		.loc 2 219 3 view .LVU17
  86 0026 DA69     		ldr	r2, [r3, #28]
  87 0028 42F00402 		orr	r2, r2, #4
  88 002c DA61     		str	r2, [r3, #28]
 221:Drivers/STM32L1xx_HAL_Driver/Inc/stm32l1xx_ll_bus.h ****   (void)tmpreg;
  89              		.loc 2 221 3 view .LVU18
 221:Drivers/STM32L1xx_HAL_Driver/Inc/stm32l1xx_ll_bus.h ****   (void)tmpreg;
  90              		.loc 2 221 12 is_stmt 0 view .LVU19
  91 002e DA69     		ldr	r2, [r3, #28]
  92 0030 02F00402 		and	r2, r2, #4
 221:Drivers/STM32L1xx_HAL_Driver/Inc/stm32l1xx_ll_bus.h ****   (void)tmpreg;
  93              		.loc 2 221 10 view .LVU20
  94 0034 0292     		str	r2, [sp, #8]
  95              		.loc 2 222 3 is_stmt 1 view .LVU21
  96 0036 029A     		ldr	r2, [sp, #8]
  97              	.LVL2:
  98              		.loc 2 222 3 is_stmt 0 view .LVU22
  99              	.LBE49:
 100              	.LBE48:
  45:Core/Src/gpio.c ****   LL_AHB1_GRP1_EnableClock(LL_AHB1_GRP1_PERIPH_GPIOB);
 101              		.loc 1 45 3 is_stmt 1 view .LVU23
 102              	.LBB50:
 103              	.LBI50:
 216:Drivers/STM32L1xx_HAL_Driver/Inc/stm32l1xx_ll_bus.h **** {
 104              		.loc 2 216 22 view .LVU24
 105              	.LBB51:
 218:Drivers/STM32L1xx_HAL_Driver/Inc/stm32l1xx_ll_bus.h ****   SET_BIT(RCC->AHBENR, Periphs);
 106              		.loc 2 218 3 view .LVU25
 219:Drivers/STM32L1xx_HAL_Driver/Inc/stm32l1xx_ll_bus.h ****   /* Delay after an RCC peripheral clock enabling */
 107              		.loc 2 219 3 view .LVU26
 108 0038 DA69     		ldr	r2, [r3, #28]
 109 003a 42F00202 		orr	r2, r2, #2
 110 003e DA61     		str	r2, [r3, #28]
 221:Drivers/STM32L1xx_HAL_Driver/Inc/stm32l1xx_ll_bus.h ****   (void)tmpreg;
 111              		.loc 2 221 3 view .LVU27
 221:Drivers/STM32L1xx_HAL_Driver/Inc/stm32l1xx_ll_bus.h ****   (void)tmpreg;
 112              		.loc 2 221 12 is_stmt 0 view .LVU28
 113 0040 DB69     		ldr	r3, [r3, #28]
 114 0042 03F00203 		and	r3, r3, #2
 221:Drivers/STM32L1xx_HAL_Driver/Inc/stm32l1xx_ll_bus.h ****   (void)tmpreg;
 115              		.loc 2 221 10 view .LVU29
 116 0046 0193     		str	r3, [sp, #4]
 117              		.loc 2 222 3 is_stmt 1 view .LVU30
 118 0048 019B     		ldr	r3, [sp, #4]
 119              	.LVL3:
 120              		.loc 2 222 3 is_stmt 0 view .LVU31
 121              	.LBE51:
ARM GAS  C:\Users\domen\AppData\Local\Temp\ccgakVxa.s 			page 8


 122              	.LBE50:
  46:Core/Src/gpio.c **** 
  47:Core/Src/gpio.c ****   /**/
  48:Core/Src/gpio.c ****   LL_GPIO_ResetOutputPin(GPIOA, PLAY_PAUSE_Pin|NEXT_Pin|PREV_Pin);
 123              		.loc 1 48 3 is_stmt 1 view .LVU32
 124              	.LBB52:
 125              	.LBI52:
 126              		.file 3 "Drivers/STM32L1xx_HAL_Driver/Inc/stm32l1xx_ll_gpio.h"
   1:Drivers/STM32L1xx_HAL_Driver/Inc/stm32l1xx_ll_gpio.h **** /**
   2:Drivers/STM32L1xx_HAL_Driver/Inc/stm32l1xx_ll_gpio.h ****   ******************************************************************************
   3:Drivers/STM32L1xx_HAL_Driver/Inc/stm32l1xx_ll_gpio.h ****   * @file    stm32l1xx_ll_gpio.h
   4:Drivers/STM32L1xx_HAL_Driver/Inc/stm32l1xx_ll_gpio.h ****   * @author  MCD Application Team
   5:Drivers/STM32L1xx_HAL_Driver/Inc/stm32l1xx_ll_gpio.h ****   * @brief   Header file of GPIO LL module.
   6:Drivers/STM32L1xx_HAL_Driver/Inc/stm32l1xx_ll_gpio.h ****   ******************************************************************************
   7:Drivers/STM32L1xx_HAL_Driver/Inc/stm32l1xx_ll_gpio.h ****   * @attention
   8:Drivers/STM32L1xx_HAL_Driver/Inc/stm32l1xx_ll_gpio.h ****   *
   9:Drivers/STM32L1xx_HAL_Driver/Inc/stm32l1xx_ll_gpio.h ****   * <h2><center>&copy; Copyright (c) 2017 STMicroelectronics.
  10:Drivers/STM32L1xx_HAL_Driver/Inc/stm32l1xx_ll_gpio.h ****   * All rights reserved.</center></h2>
  11:Drivers/STM32L1xx_HAL_Driver/Inc/stm32l1xx_ll_gpio.h ****   *
  12:Drivers/STM32L1xx_HAL_Driver/Inc/stm32l1xx_ll_gpio.h ****   * This software component is licensed by ST under BSD 3-Clause license,
  13:Drivers/STM32L1xx_HAL_Driver/Inc/stm32l1xx_ll_gpio.h ****   * the "License"; You may not use this file except in compliance with the
  14:Drivers/STM32L1xx_HAL_Driver/Inc/stm32l1xx_ll_gpio.h ****   * License. You may obtain a copy of the License at:
  15:Drivers/STM32L1xx_HAL_Driver/Inc/stm32l1xx_ll_gpio.h ****   *                        opensource.org/licenses/BSD-3-Clause
  16:Drivers/STM32L1xx_HAL_Driver/Inc/stm32l1xx_ll_gpio.h ****   *
  17:Drivers/STM32L1xx_HAL_Driver/Inc/stm32l1xx_ll_gpio.h ****   ******************************************************************************
  18:Drivers/STM32L1xx_HAL_Driver/Inc/stm32l1xx_ll_gpio.h ****   */
  19:Drivers/STM32L1xx_HAL_Driver/Inc/stm32l1xx_ll_gpio.h **** 
  20:Drivers/STM32L1xx_HAL_Driver/Inc/stm32l1xx_ll_gpio.h **** /* Define to prevent recursive inclusion -------------------------------------*/
  21:Drivers/STM32L1xx_HAL_Driver/Inc/stm32l1xx_ll_gpio.h **** #ifndef __STM32L1xx_LL_GPIO_H
  22:Drivers/STM32L1xx_HAL_Driver/Inc/stm32l1xx_ll_gpio.h **** #define __STM32L1xx_LL_GPIO_H
  23:Drivers/STM32L1xx_HAL_Driver/Inc/stm32l1xx_ll_gpio.h **** 
  24:Drivers/STM32L1xx_HAL_Driver/Inc/stm32l1xx_ll_gpio.h **** #ifdef __cplusplus
  25:Drivers/STM32L1xx_HAL_Driver/Inc/stm32l1xx_ll_gpio.h **** extern "C" {
  26:Drivers/STM32L1xx_HAL_Driver/Inc/stm32l1xx_ll_gpio.h **** #endif
  27:Drivers/STM32L1xx_HAL_Driver/Inc/stm32l1xx_ll_gpio.h **** 
  28:Drivers/STM32L1xx_HAL_Driver/Inc/stm32l1xx_ll_gpio.h **** /* Includes ------------------------------------------------------------------*/
  29:Drivers/STM32L1xx_HAL_Driver/Inc/stm32l1xx_ll_gpio.h **** #include "stm32l1xx.h"
  30:Drivers/STM32L1xx_HAL_Driver/Inc/stm32l1xx_ll_gpio.h **** 
  31:Drivers/STM32L1xx_HAL_Driver/Inc/stm32l1xx_ll_gpio.h **** /** @addtogroup STM32L1xx_LL_Driver
  32:Drivers/STM32L1xx_HAL_Driver/Inc/stm32l1xx_ll_gpio.h ****   * @{
  33:Drivers/STM32L1xx_HAL_Driver/Inc/stm32l1xx_ll_gpio.h ****   */
  34:Drivers/STM32L1xx_HAL_Driver/Inc/stm32l1xx_ll_gpio.h **** 
  35:Drivers/STM32L1xx_HAL_Driver/Inc/stm32l1xx_ll_gpio.h **** #if defined (GPIOA) || defined (GPIOB) || defined (GPIOC) || defined (GPIOD) || defined (GPIOE) || 
  36:Drivers/STM32L1xx_HAL_Driver/Inc/stm32l1xx_ll_gpio.h **** 
  37:Drivers/STM32L1xx_HAL_Driver/Inc/stm32l1xx_ll_gpio.h **** /** @defgroup GPIO_LL GPIO
  38:Drivers/STM32L1xx_HAL_Driver/Inc/stm32l1xx_ll_gpio.h ****   * @{
  39:Drivers/STM32L1xx_HAL_Driver/Inc/stm32l1xx_ll_gpio.h ****   */
  40:Drivers/STM32L1xx_HAL_Driver/Inc/stm32l1xx_ll_gpio.h **** 
  41:Drivers/STM32L1xx_HAL_Driver/Inc/stm32l1xx_ll_gpio.h **** /* Private types -------------------------------------------------------------*/
  42:Drivers/STM32L1xx_HAL_Driver/Inc/stm32l1xx_ll_gpio.h **** /* Private variables ---------------------------------------------------------*/
  43:Drivers/STM32L1xx_HAL_Driver/Inc/stm32l1xx_ll_gpio.h **** /* Private constants ---------------------------------------------------------*/
  44:Drivers/STM32L1xx_HAL_Driver/Inc/stm32l1xx_ll_gpio.h **** /* Private macros ------------------------------------------------------------*/
  45:Drivers/STM32L1xx_HAL_Driver/Inc/stm32l1xx_ll_gpio.h **** #if defined(USE_FULL_LL_DRIVER)
  46:Drivers/STM32L1xx_HAL_Driver/Inc/stm32l1xx_ll_gpio.h **** /** @defgroup GPIO_LL_Private_Macros GPIO Private Macros
  47:Drivers/STM32L1xx_HAL_Driver/Inc/stm32l1xx_ll_gpio.h ****   * @{
  48:Drivers/STM32L1xx_HAL_Driver/Inc/stm32l1xx_ll_gpio.h ****   */
  49:Drivers/STM32L1xx_HAL_Driver/Inc/stm32l1xx_ll_gpio.h **** 
ARM GAS  C:\Users\domen\AppData\Local\Temp\ccgakVxa.s 			page 9


  50:Drivers/STM32L1xx_HAL_Driver/Inc/stm32l1xx_ll_gpio.h **** /**
  51:Drivers/STM32L1xx_HAL_Driver/Inc/stm32l1xx_ll_gpio.h ****   * @}
  52:Drivers/STM32L1xx_HAL_Driver/Inc/stm32l1xx_ll_gpio.h ****   */
  53:Drivers/STM32L1xx_HAL_Driver/Inc/stm32l1xx_ll_gpio.h **** #endif /*USE_FULL_LL_DRIVER*/
  54:Drivers/STM32L1xx_HAL_Driver/Inc/stm32l1xx_ll_gpio.h **** 
  55:Drivers/STM32L1xx_HAL_Driver/Inc/stm32l1xx_ll_gpio.h **** /* Exported types ------------------------------------------------------------*/
  56:Drivers/STM32L1xx_HAL_Driver/Inc/stm32l1xx_ll_gpio.h **** #if defined(USE_FULL_LL_DRIVER)
  57:Drivers/STM32L1xx_HAL_Driver/Inc/stm32l1xx_ll_gpio.h **** /** @defgroup GPIO_LL_ES_INIT GPIO Exported Init structures
  58:Drivers/STM32L1xx_HAL_Driver/Inc/stm32l1xx_ll_gpio.h ****   * @{
  59:Drivers/STM32L1xx_HAL_Driver/Inc/stm32l1xx_ll_gpio.h ****   */
  60:Drivers/STM32L1xx_HAL_Driver/Inc/stm32l1xx_ll_gpio.h **** 
  61:Drivers/STM32L1xx_HAL_Driver/Inc/stm32l1xx_ll_gpio.h **** /**
  62:Drivers/STM32L1xx_HAL_Driver/Inc/stm32l1xx_ll_gpio.h ****   * @brief LL GPIO Init Structure definition
  63:Drivers/STM32L1xx_HAL_Driver/Inc/stm32l1xx_ll_gpio.h ****   */
  64:Drivers/STM32L1xx_HAL_Driver/Inc/stm32l1xx_ll_gpio.h **** typedef struct
  65:Drivers/STM32L1xx_HAL_Driver/Inc/stm32l1xx_ll_gpio.h **** {
  66:Drivers/STM32L1xx_HAL_Driver/Inc/stm32l1xx_ll_gpio.h ****   uint32_t Pin;          /*!< Specifies the GPIO pins to be configured.
  67:Drivers/STM32L1xx_HAL_Driver/Inc/stm32l1xx_ll_gpio.h ****                               This parameter can be any value of @ref GPIO_LL_EC_PIN */
  68:Drivers/STM32L1xx_HAL_Driver/Inc/stm32l1xx_ll_gpio.h **** 
  69:Drivers/STM32L1xx_HAL_Driver/Inc/stm32l1xx_ll_gpio.h ****   uint32_t Mode;         /*!< Specifies the operating mode for the selected pins.
  70:Drivers/STM32L1xx_HAL_Driver/Inc/stm32l1xx_ll_gpio.h ****                               This parameter can be a value of @ref GPIO_LL_EC_MODE.
  71:Drivers/STM32L1xx_HAL_Driver/Inc/stm32l1xx_ll_gpio.h **** 
  72:Drivers/STM32L1xx_HAL_Driver/Inc/stm32l1xx_ll_gpio.h ****                               GPIO HW configuration can be modified afterwards using unitary functi
  73:Drivers/STM32L1xx_HAL_Driver/Inc/stm32l1xx_ll_gpio.h **** 
  74:Drivers/STM32L1xx_HAL_Driver/Inc/stm32l1xx_ll_gpio.h ****   uint32_t Speed;        /*!< Specifies the speed for the selected pins.
  75:Drivers/STM32L1xx_HAL_Driver/Inc/stm32l1xx_ll_gpio.h ****                               This parameter can be a value of @ref GPIO_LL_EC_SPEED.
  76:Drivers/STM32L1xx_HAL_Driver/Inc/stm32l1xx_ll_gpio.h **** 
  77:Drivers/STM32L1xx_HAL_Driver/Inc/stm32l1xx_ll_gpio.h ****                               GPIO HW configuration can be modified afterwards using unitary functi
  78:Drivers/STM32L1xx_HAL_Driver/Inc/stm32l1xx_ll_gpio.h **** 
  79:Drivers/STM32L1xx_HAL_Driver/Inc/stm32l1xx_ll_gpio.h ****   uint32_t OutputType;   /*!< Specifies the operating output type for the selected pins.
  80:Drivers/STM32L1xx_HAL_Driver/Inc/stm32l1xx_ll_gpio.h ****                               This parameter can be a value of @ref GPIO_LL_EC_OUTPUT.
  81:Drivers/STM32L1xx_HAL_Driver/Inc/stm32l1xx_ll_gpio.h **** 
  82:Drivers/STM32L1xx_HAL_Driver/Inc/stm32l1xx_ll_gpio.h ****                               GPIO HW configuration can be modified afterwards using unitary functi
  83:Drivers/STM32L1xx_HAL_Driver/Inc/stm32l1xx_ll_gpio.h **** 
  84:Drivers/STM32L1xx_HAL_Driver/Inc/stm32l1xx_ll_gpio.h ****   uint32_t Pull;         /*!< Specifies the operating Pull-up/Pull down for the selected pins.
  85:Drivers/STM32L1xx_HAL_Driver/Inc/stm32l1xx_ll_gpio.h ****                               This parameter can be a value of @ref GPIO_LL_EC_PULL.
  86:Drivers/STM32L1xx_HAL_Driver/Inc/stm32l1xx_ll_gpio.h **** 
  87:Drivers/STM32L1xx_HAL_Driver/Inc/stm32l1xx_ll_gpio.h ****                               GPIO HW configuration can be modified afterwards using unitary functi
  88:Drivers/STM32L1xx_HAL_Driver/Inc/stm32l1xx_ll_gpio.h **** 
  89:Drivers/STM32L1xx_HAL_Driver/Inc/stm32l1xx_ll_gpio.h ****   uint32_t Alternate;    /*!< Specifies the Peripheral to be connected to the selected pins.
  90:Drivers/STM32L1xx_HAL_Driver/Inc/stm32l1xx_ll_gpio.h ****                               This parameter can be a value of @ref GPIO_LL_EC_AF.
  91:Drivers/STM32L1xx_HAL_Driver/Inc/stm32l1xx_ll_gpio.h **** 
  92:Drivers/STM32L1xx_HAL_Driver/Inc/stm32l1xx_ll_gpio.h ****                               GPIO HW configuration can be modified afterwards using unitary functi
  93:Drivers/STM32L1xx_HAL_Driver/Inc/stm32l1xx_ll_gpio.h **** } LL_GPIO_InitTypeDef;
  94:Drivers/STM32L1xx_HAL_Driver/Inc/stm32l1xx_ll_gpio.h **** 
  95:Drivers/STM32L1xx_HAL_Driver/Inc/stm32l1xx_ll_gpio.h **** /**
  96:Drivers/STM32L1xx_HAL_Driver/Inc/stm32l1xx_ll_gpio.h ****   * @}
  97:Drivers/STM32L1xx_HAL_Driver/Inc/stm32l1xx_ll_gpio.h ****   */
  98:Drivers/STM32L1xx_HAL_Driver/Inc/stm32l1xx_ll_gpio.h **** #endif /* USE_FULL_LL_DRIVER */
  99:Drivers/STM32L1xx_HAL_Driver/Inc/stm32l1xx_ll_gpio.h **** 
 100:Drivers/STM32L1xx_HAL_Driver/Inc/stm32l1xx_ll_gpio.h **** /* Exported constants --------------------------------------------------------*/
 101:Drivers/STM32L1xx_HAL_Driver/Inc/stm32l1xx_ll_gpio.h **** /** @defgroup GPIO_LL_Exported_Constants GPIO Exported Constants
 102:Drivers/STM32L1xx_HAL_Driver/Inc/stm32l1xx_ll_gpio.h ****   * @{
 103:Drivers/STM32L1xx_HAL_Driver/Inc/stm32l1xx_ll_gpio.h ****   */
 104:Drivers/STM32L1xx_HAL_Driver/Inc/stm32l1xx_ll_gpio.h **** 
 105:Drivers/STM32L1xx_HAL_Driver/Inc/stm32l1xx_ll_gpio.h **** /** @defgroup GPIO_LL_EC_PIN PIN
 106:Drivers/STM32L1xx_HAL_Driver/Inc/stm32l1xx_ll_gpio.h ****   * @{
ARM GAS  C:\Users\domen\AppData\Local\Temp\ccgakVxa.s 			page 10


 107:Drivers/STM32L1xx_HAL_Driver/Inc/stm32l1xx_ll_gpio.h ****   */
 108:Drivers/STM32L1xx_HAL_Driver/Inc/stm32l1xx_ll_gpio.h **** #define LL_GPIO_PIN_0                      GPIO_BSRR_BS_0 /*!< Select pin 0 */
 109:Drivers/STM32L1xx_HAL_Driver/Inc/stm32l1xx_ll_gpio.h **** #define LL_GPIO_PIN_1                      GPIO_BSRR_BS_1 /*!< Select pin 1 */
 110:Drivers/STM32L1xx_HAL_Driver/Inc/stm32l1xx_ll_gpio.h **** #define LL_GPIO_PIN_2                      GPIO_BSRR_BS_2 /*!< Select pin 2 */
 111:Drivers/STM32L1xx_HAL_Driver/Inc/stm32l1xx_ll_gpio.h **** #define LL_GPIO_PIN_3                      GPIO_BSRR_BS_3 /*!< Select pin 3 */
 112:Drivers/STM32L1xx_HAL_Driver/Inc/stm32l1xx_ll_gpio.h **** #define LL_GPIO_PIN_4                      GPIO_BSRR_BS_4 /*!< Select pin 4 */
 113:Drivers/STM32L1xx_HAL_Driver/Inc/stm32l1xx_ll_gpio.h **** #define LL_GPIO_PIN_5                      GPIO_BSRR_BS_5 /*!< Select pin 5 */
 114:Drivers/STM32L1xx_HAL_Driver/Inc/stm32l1xx_ll_gpio.h **** #define LL_GPIO_PIN_6                      GPIO_BSRR_BS_6 /*!< Select pin 6 */
 115:Drivers/STM32L1xx_HAL_Driver/Inc/stm32l1xx_ll_gpio.h **** #define LL_GPIO_PIN_7                      GPIO_BSRR_BS_7 /*!< Select pin 7 */
 116:Drivers/STM32L1xx_HAL_Driver/Inc/stm32l1xx_ll_gpio.h **** #define LL_GPIO_PIN_8                      GPIO_BSRR_BS_8 /*!< Select pin 8 */
 117:Drivers/STM32L1xx_HAL_Driver/Inc/stm32l1xx_ll_gpio.h **** #define LL_GPIO_PIN_9                      GPIO_BSRR_BS_9 /*!< Select pin 9 */
 118:Drivers/STM32L1xx_HAL_Driver/Inc/stm32l1xx_ll_gpio.h **** #define LL_GPIO_PIN_10                     GPIO_BSRR_BS_10 /*!< Select pin 10 */
 119:Drivers/STM32L1xx_HAL_Driver/Inc/stm32l1xx_ll_gpio.h **** #define LL_GPIO_PIN_11                     GPIO_BSRR_BS_11 /*!< Select pin 11 */
 120:Drivers/STM32L1xx_HAL_Driver/Inc/stm32l1xx_ll_gpio.h **** #define LL_GPIO_PIN_12                     GPIO_BSRR_BS_12 /*!< Select pin 12 */
 121:Drivers/STM32L1xx_HAL_Driver/Inc/stm32l1xx_ll_gpio.h **** #define LL_GPIO_PIN_13                     GPIO_BSRR_BS_13 /*!< Select pin 13 */
 122:Drivers/STM32L1xx_HAL_Driver/Inc/stm32l1xx_ll_gpio.h **** #define LL_GPIO_PIN_14                     GPIO_BSRR_BS_14 /*!< Select pin 14 */
 123:Drivers/STM32L1xx_HAL_Driver/Inc/stm32l1xx_ll_gpio.h **** #define LL_GPIO_PIN_15                     GPIO_BSRR_BS_15 /*!< Select pin 15 */
 124:Drivers/STM32L1xx_HAL_Driver/Inc/stm32l1xx_ll_gpio.h **** #define LL_GPIO_PIN_ALL                    (GPIO_BSRR_BS_0 | GPIO_BSRR_BS_1  | GPIO_BSRR_BS_2  | \
 125:Drivers/STM32L1xx_HAL_Driver/Inc/stm32l1xx_ll_gpio.h ****                                            GPIO_BSRR_BS_3  | GPIO_BSRR_BS_4  | GPIO_BSRR_BS_5  | \
 126:Drivers/STM32L1xx_HAL_Driver/Inc/stm32l1xx_ll_gpio.h ****                                            GPIO_BSRR_BS_6  | GPIO_BSRR_BS_7  | GPIO_BSRR_BS_8  | \
 127:Drivers/STM32L1xx_HAL_Driver/Inc/stm32l1xx_ll_gpio.h ****                                            GPIO_BSRR_BS_9  | GPIO_BSRR_BS_10 | GPIO_BSRR_BS_11 | \
 128:Drivers/STM32L1xx_HAL_Driver/Inc/stm32l1xx_ll_gpio.h ****                                            GPIO_BSRR_BS_12 | GPIO_BSRR_BS_13 | GPIO_BSRR_BS_14 | \
 129:Drivers/STM32L1xx_HAL_Driver/Inc/stm32l1xx_ll_gpio.h ****                                            GPIO_BSRR_BS_15) /*!< Select all pins */
 130:Drivers/STM32L1xx_HAL_Driver/Inc/stm32l1xx_ll_gpio.h **** /**
 131:Drivers/STM32L1xx_HAL_Driver/Inc/stm32l1xx_ll_gpio.h ****   * @}
 132:Drivers/STM32L1xx_HAL_Driver/Inc/stm32l1xx_ll_gpio.h ****   */
 133:Drivers/STM32L1xx_HAL_Driver/Inc/stm32l1xx_ll_gpio.h **** 
 134:Drivers/STM32L1xx_HAL_Driver/Inc/stm32l1xx_ll_gpio.h **** /** @defgroup GPIO_LL_EC_MODE Mode
 135:Drivers/STM32L1xx_HAL_Driver/Inc/stm32l1xx_ll_gpio.h ****   * @{
 136:Drivers/STM32L1xx_HAL_Driver/Inc/stm32l1xx_ll_gpio.h ****   */
 137:Drivers/STM32L1xx_HAL_Driver/Inc/stm32l1xx_ll_gpio.h **** #define LL_GPIO_MODE_INPUT                 (0x00000000U) /*!< Select input mode */
 138:Drivers/STM32L1xx_HAL_Driver/Inc/stm32l1xx_ll_gpio.h **** #define LL_GPIO_MODE_OUTPUT                GPIO_MODER_MODER0_0  /*!< Select output mode */
 139:Drivers/STM32L1xx_HAL_Driver/Inc/stm32l1xx_ll_gpio.h **** #define LL_GPIO_MODE_ALTERNATE             GPIO_MODER_MODER0_1  /*!< Select alternate function mode
 140:Drivers/STM32L1xx_HAL_Driver/Inc/stm32l1xx_ll_gpio.h **** #define LL_GPIO_MODE_ANALOG                GPIO_MODER_MODER0    /*!< Select analog mode */
 141:Drivers/STM32L1xx_HAL_Driver/Inc/stm32l1xx_ll_gpio.h **** /**
 142:Drivers/STM32L1xx_HAL_Driver/Inc/stm32l1xx_ll_gpio.h ****   * @}
 143:Drivers/STM32L1xx_HAL_Driver/Inc/stm32l1xx_ll_gpio.h ****   */
 144:Drivers/STM32L1xx_HAL_Driver/Inc/stm32l1xx_ll_gpio.h **** 
 145:Drivers/STM32L1xx_HAL_Driver/Inc/stm32l1xx_ll_gpio.h **** /** @defgroup GPIO_LL_EC_OUTPUT Output Type
 146:Drivers/STM32L1xx_HAL_Driver/Inc/stm32l1xx_ll_gpio.h ****   * @{
 147:Drivers/STM32L1xx_HAL_Driver/Inc/stm32l1xx_ll_gpio.h ****   */
 148:Drivers/STM32L1xx_HAL_Driver/Inc/stm32l1xx_ll_gpio.h **** #define LL_GPIO_OUTPUT_PUSHPULL            (0x00000000U) /*!< Select push-pull as output type */
 149:Drivers/STM32L1xx_HAL_Driver/Inc/stm32l1xx_ll_gpio.h **** #define LL_GPIO_OUTPUT_OPENDRAIN           GPIO_OTYPER_OT_0 /*!< Select open-drain as output type *
 150:Drivers/STM32L1xx_HAL_Driver/Inc/stm32l1xx_ll_gpio.h **** /**
 151:Drivers/STM32L1xx_HAL_Driver/Inc/stm32l1xx_ll_gpio.h ****   * @}
 152:Drivers/STM32L1xx_HAL_Driver/Inc/stm32l1xx_ll_gpio.h ****   */
 153:Drivers/STM32L1xx_HAL_Driver/Inc/stm32l1xx_ll_gpio.h **** 
 154:Drivers/STM32L1xx_HAL_Driver/Inc/stm32l1xx_ll_gpio.h **** /** @defgroup GPIO_LL_EC_SPEED Output Speed
 155:Drivers/STM32L1xx_HAL_Driver/Inc/stm32l1xx_ll_gpio.h ****   * @{
 156:Drivers/STM32L1xx_HAL_Driver/Inc/stm32l1xx_ll_gpio.h ****   */
 157:Drivers/STM32L1xx_HAL_Driver/Inc/stm32l1xx_ll_gpio.h **** #define LL_GPIO_SPEED_FREQ_LOW             (0x00000000U) /*!< Select I/O low output speed    */
 158:Drivers/STM32L1xx_HAL_Driver/Inc/stm32l1xx_ll_gpio.h **** #define LL_GPIO_SPEED_FREQ_MEDIUM          GPIO_OSPEEDER_OSPEEDR0_0 /*!< Select I/O medium output s
 159:Drivers/STM32L1xx_HAL_Driver/Inc/stm32l1xx_ll_gpio.h **** #define LL_GPIO_SPEED_FREQ_HIGH            GPIO_OSPEEDER_OSPEEDR0_1 /*!< Select I/O fast output spe
 160:Drivers/STM32L1xx_HAL_Driver/Inc/stm32l1xx_ll_gpio.h **** #define LL_GPIO_SPEED_FREQ_VERY_HIGH       GPIO_OSPEEDER_OSPEEDR0   /*!< Select I/O high output spe
 161:Drivers/STM32L1xx_HAL_Driver/Inc/stm32l1xx_ll_gpio.h **** /**
 162:Drivers/STM32L1xx_HAL_Driver/Inc/stm32l1xx_ll_gpio.h ****   * @}
 163:Drivers/STM32L1xx_HAL_Driver/Inc/stm32l1xx_ll_gpio.h ****   */
ARM GAS  C:\Users\domen\AppData\Local\Temp\ccgakVxa.s 			page 11


 164:Drivers/STM32L1xx_HAL_Driver/Inc/stm32l1xx_ll_gpio.h **** 
 165:Drivers/STM32L1xx_HAL_Driver/Inc/stm32l1xx_ll_gpio.h **** /** @defgroup GPIO_LL_EC_PULL Pull Up Pull Down
 166:Drivers/STM32L1xx_HAL_Driver/Inc/stm32l1xx_ll_gpio.h ****   * @{
 167:Drivers/STM32L1xx_HAL_Driver/Inc/stm32l1xx_ll_gpio.h ****   */
 168:Drivers/STM32L1xx_HAL_Driver/Inc/stm32l1xx_ll_gpio.h **** #define LL_GPIO_PULL_NO                    (0x00000000U) /*!< Select I/O no pull */
 169:Drivers/STM32L1xx_HAL_Driver/Inc/stm32l1xx_ll_gpio.h **** #define LL_GPIO_PULL_UP                    GPIO_PUPDR_PUPDR0_0 /*!< Select I/O pull up */
 170:Drivers/STM32L1xx_HAL_Driver/Inc/stm32l1xx_ll_gpio.h **** #define LL_GPIO_PULL_DOWN                  GPIO_PUPDR_PUPDR0_1 /*!< Select I/O pull down */
 171:Drivers/STM32L1xx_HAL_Driver/Inc/stm32l1xx_ll_gpio.h **** /**
 172:Drivers/STM32L1xx_HAL_Driver/Inc/stm32l1xx_ll_gpio.h ****   * @}
 173:Drivers/STM32L1xx_HAL_Driver/Inc/stm32l1xx_ll_gpio.h ****   */
 174:Drivers/STM32L1xx_HAL_Driver/Inc/stm32l1xx_ll_gpio.h **** 
 175:Drivers/STM32L1xx_HAL_Driver/Inc/stm32l1xx_ll_gpio.h **** /** @defgroup GPIO_LL_EC_AF Alternate Function
 176:Drivers/STM32L1xx_HAL_Driver/Inc/stm32l1xx_ll_gpio.h ****   * @{
 177:Drivers/STM32L1xx_HAL_Driver/Inc/stm32l1xx_ll_gpio.h ****   */
 178:Drivers/STM32L1xx_HAL_Driver/Inc/stm32l1xx_ll_gpio.h **** #define LL_GPIO_AF_0                       (0x0000000U) /*!< Select alternate function 0 */
 179:Drivers/STM32L1xx_HAL_Driver/Inc/stm32l1xx_ll_gpio.h **** #define LL_GPIO_AF_1                       (0x0000001U) /*!< Select alternate function 1 */
 180:Drivers/STM32L1xx_HAL_Driver/Inc/stm32l1xx_ll_gpio.h **** #define LL_GPIO_AF_2                       (0x0000002U) /*!< Select alternate function 2 */
 181:Drivers/STM32L1xx_HAL_Driver/Inc/stm32l1xx_ll_gpio.h **** #define LL_GPIO_AF_3                       (0x0000003U) /*!< Select alternate function 3 */
 182:Drivers/STM32L1xx_HAL_Driver/Inc/stm32l1xx_ll_gpio.h **** #define LL_GPIO_AF_4                       (0x0000004U) /*!< Select alternate function 4 */
 183:Drivers/STM32L1xx_HAL_Driver/Inc/stm32l1xx_ll_gpio.h **** #define LL_GPIO_AF_5                       (0x0000005U) /*!< Select alternate function 5 */
 184:Drivers/STM32L1xx_HAL_Driver/Inc/stm32l1xx_ll_gpio.h **** #define LL_GPIO_AF_6                       (0x0000006U) /*!< Select alternate function 6 */
 185:Drivers/STM32L1xx_HAL_Driver/Inc/stm32l1xx_ll_gpio.h **** #define LL_GPIO_AF_7                       (0x0000007U) /*!< Select alternate function 7 */
 186:Drivers/STM32L1xx_HAL_Driver/Inc/stm32l1xx_ll_gpio.h **** #define LL_GPIO_AF_8                       (0x0000008U) /*!< Select alternate function 8 */
 187:Drivers/STM32L1xx_HAL_Driver/Inc/stm32l1xx_ll_gpio.h **** #define LL_GPIO_AF_9                       (0x0000009U) /*!< Select alternate function 9 */
 188:Drivers/STM32L1xx_HAL_Driver/Inc/stm32l1xx_ll_gpio.h **** #define LL_GPIO_AF_10                      (0x000000AU) /*!< Select alternate function 10 */
 189:Drivers/STM32L1xx_HAL_Driver/Inc/stm32l1xx_ll_gpio.h **** #define LL_GPIO_AF_11                      (0x000000BU) /*!< Select alternate function 11 */
 190:Drivers/STM32L1xx_HAL_Driver/Inc/stm32l1xx_ll_gpio.h **** #define LL_GPIO_AF_12                      (0x000000CU) /*!< Select alternate function 12 */
 191:Drivers/STM32L1xx_HAL_Driver/Inc/stm32l1xx_ll_gpio.h **** #define LL_GPIO_AF_13                      (0x000000DU) /*!< Select alternate function 13 */
 192:Drivers/STM32L1xx_HAL_Driver/Inc/stm32l1xx_ll_gpio.h **** #define LL_GPIO_AF_14                      (0x000000EU) /*!< Select alternate function 14 */
 193:Drivers/STM32L1xx_HAL_Driver/Inc/stm32l1xx_ll_gpio.h **** #define LL_GPIO_AF_15                      (0x000000FU) /*!< Select alternate function 15 */
 194:Drivers/STM32L1xx_HAL_Driver/Inc/stm32l1xx_ll_gpio.h **** /**
 195:Drivers/STM32L1xx_HAL_Driver/Inc/stm32l1xx_ll_gpio.h ****   * @}
 196:Drivers/STM32L1xx_HAL_Driver/Inc/stm32l1xx_ll_gpio.h ****   */
 197:Drivers/STM32L1xx_HAL_Driver/Inc/stm32l1xx_ll_gpio.h **** 
 198:Drivers/STM32L1xx_HAL_Driver/Inc/stm32l1xx_ll_gpio.h **** /**
 199:Drivers/STM32L1xx_HAL_Driver/Inc/stm32l1xx_ll_gpio.h ****   * @}
 200:Drivers/STM32L1xx_HAL_Driver/Inc/stm32l1xx_ll_gpio.h ****   */
 201:Drivers/STM32L1xx_HAL_Driver/Inc/stm32l1xx_ll_gpio.h **** 
 202:Drivers/STM32L1xx_HAL_Driver/Inc/stm32l1xx_ll_gpio.h **** /* Exported macro ------------------------------------------------------------*/
 203:Drivers/STM32L1xx_HAL_Driver/Inc/stm32l1xx_ll_gpio.h **** /** @defgroup GPIO_LL_Exported_Macros GPIO Exported Macros
 204:Drivers/STM32L1xx_HAL_Driver/Inc/stm32l1xx_ll_gpio.h ****   * @{
 205:Drivers/STM32L1xx_HAL_Driver/Inc/stm32l1xx_ll_gpio.h ****   */
 206:Drivers/STM32L1xx_HAL_Driver/Inc/stm32l1xx_ll_gpio.h **** 
 207:Drivers/STM32L1xx_HAL_Driver/Inc/stm32l1xx_ll_gpio.h **** /** @defgroup GPIO_LL_EM_WRITE_READ Common Write and read registers Macros
 208:Drivers/STM32L1xx_HAL_Driver/Inc/stm32l1xx_ll_gpio.h ****   * @{
 209:Drivers/STM32L1xx_HAL_Driver/Inc/stm32l1xx_ll_gpio.h ****   */
 210:Drivers/STM32L1xx_HAL_Driver/Inc/stm32l1xx_ll_gpio.h **** 
 211:Drivers/STM32L1xx_HAL_Driver/Inc/stm32l1xx_ll_gpio.h **** /**
 212:Drivers/STM32L1xx_HAL_Driver/Inc/stm32l1xx_ll_gpio.h ****   * @brief  Write a value in GPIO register
 213:Drivers/STM32L1xx_HAL_Driver/Inc/stm32l1xx_ll_gpio.h ****   * @param  __INSTANCE__ GPIO Instance
 214:Drivers/STM32L1xx_HAL_Driver/Inc/stm32l1xx_ll_gpio.h ****   * @param  __REG__ Register to be written
 215:Drivers/STM32L1xx_HAL_Driver/Inc/stm32l1xx_ll_gpio.h ****   * @param  __VALUE__ Value to be written in the register
 216:Drivers/STM32L1xx_HAL_Driver/Inc/stm32l1xx_ll_gpio.h ****   * @retval None
 217:Drivers/STM32L1xx_HAL_Driver/Inc/stm32l1xx_ll_gpio.h ****   */
 218:Drivers/STM32L1xx_HAL_Driver/Inc/stm32l1xx_ll_gpio.h **** #define LL_GPIO_WriteReg(__INSTANCE__, __REG__, __VALUE__) WRITE_REG(__INSTANCE__->__REG__, (__VALU
 219:Drivers/STM32L1xx_HAL_Driver/Inc/stm32l1xx_ll_gpio.h **** 
 220:Drivers/STM32L1xx_HAL_Driver/Inc/stm32l1xx_ll_gpio.h **** /**
ARM GAS  C:\Users\domen\AppData\Local\Temp\ccgakVxa.s 			page 12


 221:Drivers/STM32L1xx_HAL_Driver/Inc/stm32l1xx_ll_gpio.h ****   * @brief  Read a value in GPIO register
 222:Drivers/STM32L1xx_HAL_Driver/Inc/stm32l1xx_ll_gpio.h ****   * @param  __INSTANCE__ GPIO Instance
 223:Drivers/STM32L1xx_HAL_Driver/Inc/stm32l1xx_ll_gpio.h ****   * @param  __REG__ Register to be read
 224:Drivers/STM32L1xx_HAL_Driver/Inc/stm32l1xx_ll_gpio.h ****   * @retval Register value
 225:Drivers/STM32L1xx_HAL_Driver/Inc/stm32l1xx_ll_gpio.h ****   */
 226:Drivers/STM32L1xx_HAL_Driver/Inc/stm32l1xx_ll_gpio.h **** #define LL_GPIO_ReadReg(__INSTANCE__, __REG__) READ_REG(__INSTANCE__->__REG__)
 227:Drivers/STM32L1xx_HAL_Driver/Inc/stm32l1xx_ll_gpio.h **** /**
 228:Drivers/STM32L1xx_HAL_Driver/Inc/stm32l1xx_ll_gpio.h ****   * @}
 229:Drivers/STM32L1xx_HAL_Driver/Inc/stm32l1xx_ll_gpio.h ****   */
 230:Drivers/STM32L1xx_HAL_Driver/Inc/stm32l1xx_ll_gpio.h **** 
 231:Drivers/STM32L1xx_HAL_Driver/Inc/stm32l1xx_ll_gpio.h **** /**
 232:Drivers/STM32L1xx_HAL_Driver/Inc/stm32l1xx_ll_gpio.h ****   * @}
 233:Drivers/STM32L1xx_HAL_Driver/Inc/stm32l1xx_ll_gpio.h ****   */
 234:Drivers/STM32L1xx_HAL_Driver/Inc/stm32l1xx_ll_gpio.h **** 
 235:Drivers/STM32L1xx_HAL_Driver/Inc/stm32l1xx_ll_gpio.h **** /* Exported functions --------------------------------------------------------*/
 236:Drivers/STM32L1xx_HAL_Driver/Inc/stm32l1xx_ll_gpio.h **** /** @defgroup GPIO_LL_Exported_Functions GPIO Exported Functions
 237:Drivers/STM32L1xx_HAL_Driver/Inc/stm32l1xx_ll_gpio.h ****   * @{
 238:Drivers/STM32L1xx_HAL_Driver/Inc/stm32l1xx_ll_gpio.h ****   */
 239:Drivers/STM32L1xx_HAL_Driver/Inc/stm32l1xx_ll_gpio.h **** 
 240:Drivers/STM32L1xx_HAL_Driver/Inc/stm32l1xx_ll_gpio.h **** /** @defgroup GPIO_LL_EF_Port_Configuration Port Configuration
 241:Drivers/STM32L1xx_HAL_Driver/Inc/stm32l1xx_ll_gpio.h ****   * @{
 242:Drivers/STM32L1xx_HAL_Driver/Inc/stm32l1xx_ll_gpio.h ****   */
 243:Drivers/STM32L1xx_HAL_Driver/Inc/stm32l1xx_ll_gpio.h **** 
 244:Drivers/STM32L1xx_HAL_Driver/Inc/stm32l1xx_ll_gpio.h **** /**
 245:Drivers/STM32L1xx_HAL_Driver/Inc/stm32l1xx_ll_gpio.h ****   * @brief  Configure gpio mode for a dedicated pin on dedicated port.
 246:Drivers/STM32L1xx_HAL_Driver/Inc/stm32l1xx_ll_gpio.h ****   * @note   I/O mode can be Input mode, General purpose output, Alternate function mode or Analog.
 247:Drivers/STM32L1xx_HAL_Driver/Inc/stm32l1xx_ll_gpio.h ****   * @note   Warning: only one pin can be passed as parameter.
 248:Drivers/STM32L1xx_HAL_Driver/Inc/stm32l1xx_ll_gpio.h ****   * @rmtoll MODER        MODEy         LL_GPIO_SetPinMode
 249:Drivers/STM32L1xx_HAL_Driver/Inc/stm32l1xx_ll_gpio.h ****   * @param  GPIOx GPIO Port
 250:Drivers/STM32L1xx_HAL_Driver/Inc/stm32l1xx_ll_gpio.h ****   * @param  Pin This parameter can be one of the following values:
 251:Drivers/STM32L1xx_HAL_Driver/Inc/stm32l1xx_ll_gpio.h ****   *         @arg @ref LL_GPIO_PIN_0
 252:Drivers/STM32L1xx_HAL_Driver/Inc/stm32l1xx_ll_gpio.h ****   *         @arg @ref LL_GPIO_PIN_1
 253:Drivers/STM32L1xx_HAL_Driver/Inc/stm32l1xx_ll_gpio.h ****   *         @arg @ref LL_GPIO_PIN_2
 254:Drivers/STM32L1xx_HAL_Driver/Inc/stm32l1xx_ll_gpio.h ****   *         @arg @ref LL_GPIO_PIN_3
 255:Drivers/STM32L1xx_HAL_Driver/Inc/stm32l1xx_ll_gpio.h ****   *         @arg @ref LL_GPIO_PIN_4
 256:Drivers/STM32L1xx_HAL_Driver/Inc/stm32l1xx_ll_gpio.h ****   *         @arg @ref LL_GPIO_PIN_5
 257:Drivers/STM32L1xx_HAL_Driver/Inc/stm32l1xx_ll_gpio.h ****   *         @arg @ref LL_GPIO_PIN_6
 258:Drivers/STM32L1xx_HAL_Driver/Inc/stm32l1xx_ll_gpio.h ****   *         @arg @ref LL_GPIO_PIN_7
 259:Drivers/STM32L1xx_HAL_Driver/Inc/stm32l1xx_ll_gpio.h ****   *         @arg @ref LL_GPIO_PIN_8
 260:Drivers/STM32L1xx_HAL_Driver/Inc/stm32l1xx_ll_gpio.h ****   *         @arg @ref LL_GPIO_PIN_9
 261:Drivers/STM32L1xx_HAL_Driver/Inc/stm32l1xx_ll_gpio.h ****   *         @arg @ref LL_GPIO_PIN_10
 262:Drivers/STM32L1xx_HAL_Driver/Inc/stm32l1xx_ll_gpio.h ****   *         @arg @ref LL_GPIO_PIN_11
 263:Drivers/STM32L1xx_HAL_Driver/Inc/stm32l1xx_ll_gpio.h ****   *         @arg @ref LL_GPIO_PIN_12
 264:Drivers/STM32L1xx_HAL_Driver/Inc/stm32l1xx_ll_gpio.h ****   *         @arg @ref LL_GPIO_PIN_13
 265:Drivers/STM32L1xx_HAL_Driver/Inc/stm32l1xx_ll_gpio.h ****   *         @arg @ref LL_GPIO_PIN_14
 266:Drivers/STM32L1xx_HAL_Driver/Inc/stm32l1xx_ll_gpio.h ****   *         @arg @ref LL_GPIO_PIN_15
 267:Drivers/STM32L1xx_HAL_Driver/Inc/stm32l1xx_ll_gpio.h ****   * @param  Mode This parameter can be one of the following values:
 268:Drivers/STM32L1xx_HAL_Driver/Inc/stm32l1xx_ll_gpio.h ****   *         @arg @ref LL_GPIO_MODE_INPUT
 269:Drivers/STM32L1xx_HAL_Driver/Inc/stm32l1xx_ll_gpio.h ****   *         @arg @ref LL_GPIO_MODE_OUTPUT
 270:Drivers/STM32L1xx_HAL_Driver/Inc/stm32l1xx_ll_gpio.h ****   *         @arg @ref LL_GPIO_MODE_ALTERNATE
 271:Drivers/STM32L1xx_HAL_Driver/Inc/stm32l1xx_ll_gpio.h ****   *         @arg @ref LL_GPIO_MODE_ANALOG
 272:Drivers/STM32L1xx_HAL_Driver/Inc/stm32l1xx_ll_gpio.h ****   * @retval None
 273:Drivers/STM32L1xx_HAL_Driver/Inc/stm32l1xx_ll_gpio.h ****   */
 274:Drivers/STM32L1xx_HAL_Driver/Inc/stm32l1xx_ll_gpio.h **** __STATIC_INLINE void LL_GPIO_SetPinMode(GPIO_TypeDef *GPIOx, uint32_t Pin, uint32_t Mode)
 275:Drivers/STM32L1xx_HAL_Driver/Inc/stm32l1xx_ll_gpio.h **** {
 276:Drivers/STM32L1xx_HAL_Driver/Inc/stm32l1xx_ll_gpio.h ****   MODIFY_REG(GPIOx->MODER, (GPIO_MODER_MODER0 << (POSITION_VAL(Pin) * 2U)), (Mode << (POSITION_VAL(
 277:Drivers/STM32L1xx_HAL_Driver/Inc/stm32l1xx_ll_gpio.h **** }
ARM GAS  C:\Users\domen\AppData\Local\Temp\ccgakVxa.s 			page 13


 278:Drivers/STM32L1xx_HAL_Driver/Inc/stm32l1xx_ll_gpio.h **** 
 279:Drivers/STM32L1xx_HAL_Driver/Inc/stm32l1xx_ll_gpio.h **** /**
 280:Drivers/STM32L1xx_HAL_Driver/Inc/stm32l1xx_ll_gpio.h ****   * @brief  Return gpio mode for a dedicated pin on dedicated port.
 281:Drivers/STM32L1xx_HAL_Driver/Inc/stm32l1xx_ll_gpio.h ****   * @note   I/O mode can be Input mode, General purpose output, Alternate function mode or Analog.
 282:Drivers/STM32L1xx_HAL_Driver/Inc/stm32l1xx_ll_gpio.h ****   * @note   Warning: only one pin can be passed as parameter.
 283:Drivers/STM32L1xx_HAL_Driver/Inc/stm32l1xx_ll_gpio.h ****   * @rmtoll MODER        MODEy         LL_GPIO_GetPinMode
 284:Drivers/STM32L1xx_HAL_Driver/Inc/stm32l1xx_ll_gpio.h ****   * @param  GPIOx GPIO Port
 285:Drivers/STM32L1xx_HAL_Driver/Inc/stm32l1xx_ll_gpio.h ****   * @param  Pin This parameter can be one of the following values:
 286:Drivers/STM32L1xx_HAL_Driver/Inc/stm32l1xx_ll_gpio.h ****   *         @arg @ref LL_GPIO_PIN_0
 287:Drivers/STM32L1xx_HAL_Driver/Inc/stm32l1xx_ll_gpio.h ****   *         @arg @ref LL_GPIO_PIN_1
 288:Drivers/STM32L1xx_HAL_Driver/Inc/stm32l1xx_ll_gpio.h ****   *         @arg @ref LL_GPIO_PIN_2
 289:Drivers/STM32L1xx_HAL_Driver/Inc/stm32l1xx_ll_gpio.h ****   *         @arg @ref LL_GPIO_PIN_3
 290:Drivers/STM32L1xx_HAL_Driver/Inc/stm32l1xx_ll_gpio.h ****   *         @arg @ref LL_GPIO_PIN_4
 291:Drivers/STM32L1xx_HAL_Driver/Inc/stm32l1xx_ll_gpio.h ****   *         @arg @ref LL_GPIO_PIN_5
 292:Drivers/STM32L1xx_HAL_Driver/Inc/stm32l1xx_ll_gpio.h ****   *         @arg @ref LL_GPIO_PIN_6
 293:Drivers/STM32L1xx_HAL_Driver/Inc/stm32l1xx_ll_gpio.h ****   *         @arg @ref LL_GPIO_PIN_7
 294:Drivers/STM32L1xx_HAL_Driver/Inc/stm32l1xx_ll_gpio.h ****   *         @arg @ref LL_GPIO_PIN_8
 295:Drivers/STM32L1xx_HAL_Driver/Inc/stm32l1xx_ll_gpio.h ****   *         @arg @ref LL_GPIO_PIN_9
 296:Drivers/STM32L1xx_HAL_Driver/Inc/stm32l1xx_ll_gpio.h ****   *         @arg @ref LL_GPIO_PIN_10
 297:Drivers/STM32L1xx_HAL_Driver/Inc/stm32l1xx_ll_gpio.h ****   *         @arg @ref LL_GPIO_PIN_11
 298:Drivers/STM32L1xx_HAL_Driver/Inc/stm32l1xx_ll_gpio.h ****   *         @arg @ref LL_GPIO_PIN_12
 299:Drivers/STM32L1xx_HAL_Driver/Inc/stm32l1xx_ll_gpio.h ****   *         @arg @ref LL_GPIO_PIN_13
 300:Drivers/STM32L1xx_HAL_Driver/Inc/stm32l1xx_ll_gpio.h ****   *         @arg @ref LL_GPIO_PIN_14
 301:Drivers/STM32L1xx_HAL_Driver/Inc/stm32l1xx_ll_gpio.h ****   *         @arg @ref LL_GPIO_PIN_15
 302:Drivers/STM32L1xx_HAL_Driver/Inc/stm32l1xx_ll_gpio.h ****   * @retval Returned value can be one of the following values:
 303:Drivers/STM32L1xx_HAL_Driver/Inc/stm32l1xx_ll_gpio.h ****   *         @arg @ref LL_GPIO_MODE_INPUT
 304:Drivers/STM32L1xx_HAL_Driver/Inc/stm32l1xx_ll_gpio.h ****   *         @arg @ref LL_GPIO_MODE_OUTPUT
 305:Drivers/STM32L1xx_HAL_Driver/Inc/stm32l1xx_ll_gpio.h ****   *         @arg @ref LL_GPIO_MODE_ALTERNATE
 306:Drivers/STM32L1xx_HAL_Driver/Inc/stm32l1xx_ll_gpio.h ****   *         @arg @ref LL_GPIO_MODE_ANALOG
 307:Drivers/STM32L1xx_HAL_Driver/Inc/stm32l1xx_ll_gpio.h ****   */
 308:Drivers/STM32L1xx_HAL_Driver/Inc/stm32l1xx_ll_gpio.h **** __STATIC_INLINE uint32_t LL_GPIO_GetPinMode(GPIO_TypeDef *GPIOx, uint32_t Pin)
 309:Drivers/STM32L1xx_HAL_Driver/Inc/stm32l1xx_ll_gpio.h **** {
 310:Drivers/STM32L1xx_HAL_Driver/Inc/stm32l1xx_ll_gpio.h ****   return (uint32_t)(READ_BIT(GPIOx->MODER,
 311:Drivers/STM32L1xx_HAL_Driver/Inc/stm32l1xx_ll_gpio.h ****                              (GPIO_MODER_MODER0 << (POSITION_VAL(Pin) * 2U))) >> (POSITION_VAL(Pin)
 312:Drivers/STM32L1xx_HAL_Driver/Inc/stm32l1xx_ll_gpio.h **** }
 313:Drivers/STM32L1xx_HAL_Driver/Inc/stm32l1xx_ll_gpio.h **** 
 314:Drivers/STM32L1xx_HAL_Driver/Inc/stm32l1xx_ll_gpio.h **** /**
 315:Drivers/STM32L1xx_HAL_Driver/Inc/stm32l1xx_ll_gpio.h ****   * @brief  Configure gpio output type for several pins on dedicated port.
 316:Drivers/STM32L1xx_HAL_Driver/Inc/stm32l1xx_ll_gpio.h ****   * @note   Output type as to be set when gpio pin is in output or
 317:Drivers/STM32L1xx_HAL_Driver/Inc/stm32l1xx_ll_gpio.h ****   *         alternate modes. Possible type are Push-pull or Open-drain.
 318:Drivers/STM32L1xx_HAL_Driver/Inc/stm32l1xx_ll_gpio.h ****   * @rmtoll OTYPER       OTy           LL_GPIO_SetPinOutputType
 319:Drivers/STM32L1xx_HAL_Driver/Inc/stm32l1xx_ll_gpio.h ****   * @param  GPIOx GPIO Port
 320:Drivers/STM32L1xx_HAL_Driver/Inc/stm32l1xx_ll_gpio.h ****   * @param  PinMask This parameter can be a combination of the following values:
 321:Drivers/STM32L1xx_HAL_Driver/Inc/stm32l1xx_ll_gpio.h ****   *         @arg @ref LL_GPIO_PIN_0
 322:Drivers/STM32L1xx_HAL_Driver/Inc/stm32l1xx_ll_gpio.h ****   *         @arg @ref LL_GPIO_PIN_1
 323:Drivers/STM32L1xx_HAL_Driver/Inc/stm32l1xx_ll_gpio.h ****   *         @arg @ref LL_GPIO_PIN_2
 324:Drivers/STM32L1xx_HAL_Driver/Inc/stm32l1xx_ll_gpio.h ****   *         @arg @ref LL_GPIO_PIN_3
 325:Drivers/STM32L1xx_HAL_Driver/Inc/stm32l1xx_ll_gpio.h ****   *         @arg @ref LL_GPIO_PIN_4
 326:Drivers/STM32L1xx_HAL_Driver/Inc/stm32l1xx_ll_gpio.h ****   *         @arg @ref LL_GPIO_PIN_5
 327:Drivers/STM32L1xx_HAL_Driver/Inc/stm32l1xx_ll_gpio.h ****   *         @arg @ref LL_GPIO_PIN_6
 328:Drivers/STM32L1xx_HAL_Driver/Inc/stm32l1xx_ll_gpio.h ****   *         @arg @ref LL_GPIO_PIN_7
 329:Drivers/STM32L1xx_HAL_Driver/Inc/stm32l1xx_ll_gpio.h ****   *         @arg @ref LL_GPIO_PIN_8
 330:Drivers/STM32L1xx_HAL_Driver/Inc/stm32l1xx_ll_gpio.h ****   *         @arg @ref LL_GPIO_PIN_9
 331:Drivers/STM32L1xx_HAL_Driver/Inc/stm32l1xx_ll_gpio.h ****   *         @arg @ref LL_GPIO_PIN_10
 332:Drivers/STM32L1xx_HAL_Driver/Inc/stm32l1xx_ll_gpio.h ****   *         @arg @ref LL_GPIO_PIN_11
 333:Drivers/STM32L1xx_HAL_Driver/Inc/stm32l1xx_ll_gpio.h ****   *         @arg @ref LL_GPIO_PIN_12
 334:Drivers/STM32L1xx_HAL_Driver/Inc/stm32l1xx_ll_gpio.h ****   *         @arg @ref LL_GPIO_PIN_13
ARM GAS  C:\Users\domen\AppData\Local\Temp\ccgakVxa.s 			page 14


 335:Drivers/STM32L1xx_HAL_Driver/Inc/stm32l1xx_ll_gpio.h ****   *         @arg @ref LL_GPIO_PIN_14
 336:Drivers/STM32L1xx_HAL_Driver/Inc/stm32l1xx_ll_gpio.h ****   *         @arg @ref LL_GPIO_PIN_15
 337:Drivers/STM32L1xx_HAL_Driver/Inc/stm32l1xx_ll_gpio.h ****   *         @arg @ref LL_GPIO_PIN_ALL
 338:Drivers/STM32L1xx_HAL_Driver/Inc/stm32l1xx_ll_gpio.h ****   * @param  OutputType This parameter can be one of the following values:
 339:Drivers/STM32L1xx_HAL_Driver/Inc/stm32l1xx_ll_gpio.h ****   *         @arg @ref LL_GPIO_OUTPUT_PUSHPULL
 340:Drivers/STM32L1xx_HAL_Driver/Inc/stm32l1xx_ll_gpio.h ****   *         @arg @ref LL_GPIO_OUTPUT_OPENDRAIN
 341:Drivers/STM32L1xx_HAL_Driver/Inc/stm32l1xx_ll_gpio.h ****   * @retval None
 342:Drivers/STM32L1xx_HAL_Driver/Inc/stm32l1xx_ll_gpio.h ****   */
 343:Drivers/STM32L1xx_HAL_Driver/Inc/stm32l1xx_ll_gpio.h **** __STATIC_INLINE void LL_GPIO_SetPinOutputType(GPIO_TypeDef *GPIOx, uint32_t PinMask, uint32_t Outpu
 344:Drivers/STM32L1xx_HAL_Driver/Inc/stm32l1xx_ll_gpio.h **** {
 345:Drivers/STM32L1xx_HAL_Driver/Inc/stm32l1xx_ll_gpio.h ****   MODIFY_REG(GPIOx->OTYPER, PinMask, (PinMask * OutputType));
 346:Drivers/STM32L1xx_HAL_Driver/Inc/stm32l1xx_ll_gpio.h **** }
 347:Drivers/STM32L1xx_HAL_Driver/Inc/stm32l1xx_ll_gpio.h **** 
 348:Drivers/STM32L1xx_HAL_Driver/Inc/stm32l1xx_ll_gpio.h **** /**
 349:Drivers/STM32L1xx_HAL_Driver/Inc/stm32l1xx_ll_gpio.h ****   * @brief  Return gpio output type for several pins on dedicated port.
 350:Drivers/STM32L1xx_HAL_Driver/Inc/stm32l1xx_ll_gpio.h ****   * @note   Output type as to be set when gpio pin is in output or
 351:Drivers/STM32L1xx_HAL_Driver/Inc/stm32l1xx_ll_gpio.h ****   *         alternate modes. Possible type are Push-pull or Open-drain.
 352:Drivers/STM32L1xx_HAL_Driver/Inc/stm32l1xx_ll_gpio.h ****   * @note   Warning: only one pin can be passed as parameter.
 353:Drivers/STM32L1xx_HAL_Driver/Inc/stm32l1xx_ll_gpio.h ****   * @rmtoll OTYPER       OTy           LL_GPIO_GetPinOutputType
 354:Drivers/STM32L1xx_HAL_Driver/Inc/stm32l1xx_ll_gpio.h ****   * @param  GPIOx GPIO Port
 355:Drivers/STM32L1xx_HAL_Driver/Inc/stm32l1xx_ll_gpio.h ****   * @param  Pin This parameter can be one of the following values:
 356:Drivers/STM32L1xx_HAL_Driver/Inc/stm32l1xx_ll_gpio.h ****   *         @arg @ref LL_GPIO_PIN_0
 357:Drivers/STM32L1xx_HAL_Driver/Inc/stm32l1xx_ll_gpio.h ****   *         @arg @ref LL_GPIO_PIN_1
 358:Drivers/STM32L1xx_HAL_Driver/Inc/stm32l1xx_ll_gpio.h ****   *         @arg @ref LL_GPIO_PIN_2
 359:Drivers/STM32L1xx_HAL_Driver/Inc/stm32l1xx_ll_gpio.h ****   *         @arg @ref LL_GPIO_PIN_3
 360:Drivers/STM32L1xx_HAL_Driver/Inc/stm32l1xx_ll_gpio.h ****   *         @arg @ref LL_GPIO_PIN_4
 361:Drivers/STM32L1xx_HAL_Driver/Inc/stm32l1xx_ll_gpio.h ****   *         @arg @ref LL_GPIO_PIN_5
 362:Drivers/STM32L1xx_HAL_Driver/Inc/stm32l1xx_ll_gpio.h ****   *         @arg @ref LL_GPIO_PIN_6
 363:Drivers/STM32L1xx_HAL_Driver/Inc/stm32l1xx_ll_gpio.h ****   *         @arg @ref LL_GPIO_PIN_7
 364:Drivers/STM32L1xx_HAL_Driver/Inc/stm32l1xx_ll_gpio.h ****   *         @arg @ref LL_GPIO_PIN_8
 365:Drivers/STM32L1xx_HAL_Driver/Inc/stm32l1xx_ll_gpio.h ****   *         @arg @ref LL_GPIO_PIN_9
 366:Drivers/STM32L1xx_HAL_Driver/Inc/stm32l1xx_ll_gpio.h ****   *         @arg @ref LL_GPIO_PIN_10
 367:Drivers/STM32L1xx_HAL_Driver/Inc/stm32l1xx_ll_gpio.h ****   *         @arg @ref LL_GPIO_PIN_11
 368:Drivers/STM32L1xx_HAL_Driver/Inc/stm32l1xx_ll_gpio.h ****   *         @arg @ref LL_GPIO_PIN_12
 369:Drivers/STM32L1xx_HAL_Driver/Inc/stm32l1xx_ll_gpio.h ****   *         @arg @ref LL_GPIO_PIN_13
 370:Drivers/STM32L1xx_HAL_Driver/Inc/stm32l1xx_ll_gpio.h ****   *         @arg @ref LL_GPIO_PIN_14
 371:Drivers/STM32L1xx_HAL_Driver/Inc/stm32l1xx_ll_gpio.h ****   *         @arg @ref LL_GPIO_PIN_15
 372:Drivers/STM32L1xx_HAL_Driver/Inc/stm32l1xx_ll_gpio.h ****   *         @arg @ref LL_GPIO_PIN_ALL
 373:Drivers/STM32L1xx_HAL_Driver/Inc/stm32l1xx_ll_gpio.h ****   * @retval Returned value can be one of the following values:
 374:Drivers/STM32L1xx_HAL_Driver/Inc/stm32l1xx_ll_gpio.h ****   *         @arg @ref LL_GPIO_OUTPUT_PUSHPULL
 375:Drivers/STM32L1xx_HAL_Driver/Inc/stm32l1xx_ll_gpio.h ****   *         @arg @ref LL_GPIO_OUTPUT_OPENDRAIN
 376:Drivers/STM32L1xx_HAL_Driver/Inc/stm32l1xx_ll_gpio.h ****   */
 377:Drivers/STM32L1xx_HAL_Driver/Inc/stm32l1xx_ll_gpio.h **** __STATIC_INLINE uint32_t LL_GPIO_GetPinOutputType(GPIO_TypeDef *GPIOx, uint32_t Pin)
 378:Drivers/STM32L1xx_HAL_Driver/Inc/stm32l1xx_ll_gpio.h **** {
 379:Drivers/STM32L1xx_HAL_Driver/Inc/stm32l1xx_ll_gpio.h ****   return (uint32_t)(READ_BIT(GPIOx->OTYPER, Pin) >> POSITION_VAL(Pin));
 380:Drivers/STM32L1xx_HAL_Driver/Inc/stm32l1xx_ll_gpio.h **** }
 381:Drivers/STM32L1xx_HAL_Driver/Inc/stm32l1xx_ll_gpio.h **** 
 382:Drivers/STM32L1xx_HAL_Driver/Inc/stm32l1xx_ll_gpio.h **** /**
 383:Drivers/STM32L1xx_HAL_Driver/Inc/stm32l1xx_ll_gpio.h ****   * @brief  Configure gpio speed for a dedicated pin on dedicated port.
 384:Drivers/STM32L1xx_HAL_Driver/Inc/stm32l1xx_ll_gpio.h ****   * @note   I/O speed can be Low, Medium, Fast or High speed.
 385:Drivers/STM32L1xx_HAL_Driver/Inc/stm32l1xx_ll_gpio.h ****   * @note   Warning: only one pin can be passed as parameter.
 386:Drivers/STM32L1xx_HAL_Driver/Inc/stm32l1xx_ll_gpio.h ****   * @note   Refer to datasheet for frequency specifications and the power
 387:Drivers/STM32L1xx_HAL_Driver/Inc/stm32l1xx_ll_gpio.h ****   *         supply and load conditions for each speed.
 388:Drivers/STM32L1xx_HAL_Driver/Inc/stm32l1xx_ll_gpio.h ****   * @rmtoll OSPEEDR      OSPEEDy       LL_GPIO_SetPinSpeed
 389:Drivers/STM32L1xx_HAL_Driver/Inc/stm32l1xx_ll_gpio.h ****   * @param  GPIOx GPIO Port
 390:Drivers/STM32L1xx_HAL_Driver/Inc/stm32l1xx_ll_gpio.h ****   * @param  Pin This parameter can be one of the following values:
 391:Drivers/STM32L1xx_HAL_Driver/Inc/stm32l1xx_ll_gpio.h ****   *         @arg @ref LL_GPIO_PIN_0
ARM GAS  C:\Users\domen\AppData\Local\Temp\ccgakVxa.s 			page 15


 392:Drivers/STM32L1xx_HAL_Driver/Inc/stm32l1xx_ll_gpio.h ****   *         @arg @ref LL_GPIO_PIN_1
 393:Drivers/STM32L1xx_HAL_Driver/Inc/stm32l1xx_ll_gpio.h ****   *         @arg @ref LL_GPIO_PIN_2
 394:Drivers/STM32L1xx_HAL_Driver/Inc/stm32l1xx_ll_gpio.h ****   *         @arg @ref LL_GPIO_PIN_3
 395:Drivers/STM32L1xx_HAL_Driver/Inc/stm32l1xx_ll_gpio.h ****   *         @arg @ref LL_GPIO_PIN_4
 396:Drivers/STM32L1xx_HAL_Driver/Inc/stm32l1xx_ll_gpio.h ****   *         @arg @ref LL_GPIO_PIN_5
 397:Drivers/STM32L1xx_HAL_Driver/Inc/stm32l1xx_ll_gpio.h ****   *         @arg @ref LL_GPIO_PIN_6
 398:Drivers/STM32L1xx_HAL_Driver/Inc/stm32l1xx_ll_gpio.h ****   *         @arg @ref LL_GPIO_PIN_7
 399:Drivers/STM32L1xx_HAL_Driver/Inc/stm32l1xx_ll_gpio.h ****   *         @arg @ref LL_GPIO_PIN_8
 400:Drivers/STM32L1xx_HAL_Driver/Inc/stm32l1xx_ll_gpio.h ****   *         @arg @ref LL_GPIO_PIN_9
 401:Drivers/STM32L1xx_HAL_Driver/Inc/stm32l1xx_ll_gpio.h ****   *         @arg @ref LL_GPIO_PIN_10
 402:Drivers/STM32L1xx_HAL_Driver/Inc/stm32l1xx_ll_gpio.h ****   *         @arg @ref LL_GPIO_PIN_11
 403:Drivers/STM32L1xx_HAL_Driver/Inc/stm32l1xx_ll_gpio.h ****   *         @arg @ref LL_GPIO_PIN_12
 404:Drivers/STM32L1xx_HAL_Driver/Inc/stm32l1xx_ll_gpio.h ****   *         @arg @ref LL_GPIO_PIN_13
 405:Drivers/STM32L1xx_HAL_Driver/Inc/stm32l1xx_ll_gpio.h ****   *         @arg @ref LL_GPIO_PIN_14
 406:Drivers/STM32L1xx_HAL_Driver/Inc/stm32l1xx_ll_gpio.h ****   *         @arg @ref LL_GPIO_PIN_15
 407:Drivers/STM32L1xx_HAL_Driver/Inc/stm32l1xx_ll_gpio.h ****   * @param  Speed This parameter can be one of the following values:
 408:Drivers/STM32L1xx_HAL_Driver/Inc/stm32l1xx_ll_gpio.h ****   *         @arg @ref LL_GPIO_SPEED_FREQ_LOW
 409:Drivers/STM32L1xx_HAL_Driver/Inc/stm32l1xx_ll_gpio.h ****   *         @arg @ref LL_GPIO_SPEED_FREQ_MEDIUM
 410:Drivers/STM32L1xx_HAL_Driver/Inc/stm32l1xx_ll_gpio.h ****   *         @arg @ref LL_GPIO_SPEED_FREQ_HIGH
 411:Drivers/STM32L1xx_HAL_Driver/Inc/stm32l1xx_ll_gpio.h ****   *         @arg @ref LL_GPIO_SPEED_FREQ_VERY_HIGH
 412:Drivers/STM32L1xx_HAL_Driver/Inc/stm32l1xx_ll_gpio.h ****   * @retval None
 413:Drivers/STM32L1xx_HAL_Driver/Inc/stm32l1xx_ll_gpio.h ****   */
 414:Drivers/STM32L1xx_HAL_Driver/Inc/stm32l1xx_ll_gpio.h **** __STATIC_INLINE void LL_GPIO_SetPinSpeed(GPIO_TypeDef *GPIOx, uint32_t Pin, uint32_t  Speed)
 415:Drivers/STM32L1xx_HAL_Driver/Inc/stm32l1xx_ll_gpio.h **** {
 416:Drivers/STM32L1xx_HAL_Driver/Inc/stm32l1xx_ll_gpio.h ****   MODIFY_REG(GPIOx->OSPEEDR, (GPIO_OSPEEDER_OSPEEDR0 << (POSITION_VAL(Pin) * 2U)),
 417:Drivers/STM32L1xx_HAL_Driver/Inc/stm32l1xx_ll_gpio.h ****              (Speed << (POSITION_VAL(Pin) * 2U)));
 418:Drivers/STM32L1xx_HAL_Driver/Inc/stm32l1xx_ll_gpio.h **** }
 419:Drivers/STM32L1xx_HAL_Driver/Inc/stm32l1xx_ll_gpio.h **** 
 420:Drivers/STM32L1xx_HAL_Driver/Inc/stm32l1xx_ll_gpio.h **** /**
 421:Drivers/STM32L1xx_HAL_Driver/Inc/stm32l1xx_ll_gpio.h ****   * @brief  Return gpio speed for a dedicated pin on dedicated port.
 422:Drivers/STM32L1xx_HAL_Driver/Inc/stm32l1xx_ll_gpio.h ****   * @note   I/O speed can be Low, Medium, Fast or High speed.
 423:Drivers/STM32L1xx_HAL_Driver/Inc/stm32l1xx_ll_gpio.h ****   * @note   Warning: only one pin can be passed as parameter.
 424:Drivers/STM32L1xx_HAL_Driver/Inc/stm32l1xx_ll_gpio.h ****   * @note   Refer to datasheet for frequency specifications and the power
 425:Drivers/STM32L1xx_HAL_Driver/Inc/stm32l1xx_ll_gpio.h ****   *         supply and load conditions for each speed.
 426:Drivers/STM32L1xx_HAL_Driver/Inc/stm32l1xx_ll_gpio.h ****   * @rmtoll OSPEEDR      OSPEEDy       LL_GPIO_GetPinSpeed
 427:Drivers/STM32L1xx_HAL_Driver/Inc/stm32l1xx_ll_gpio.h ****   * @param  GPIOx GPIO Port
 428:Drivers/STM32L1xx_HAL_Driver/Inc/stm32l1xx_ll_gpio.h ****   * @param  Pin This parameter can be one of the following values:
 429:Drivers/STM32L1xx_HAL_Driver/Inc/stm32l1xx_ll_gpio.h ****   *         @arg @ref LL_GPIO_PIN_0
 430:Drivers/STM32L1xx_HAL_Driver/Inc/stm32l1xx_ll_gpio.h ****   *         @arg @ref LL_GPIO_PIN_1
 431:Drivers/STM32L1xx_HAL_Driver/Inc/stm32l1xx_ll_gpio.h ****   *         @arg @ref LL_GPIO_PIN_2
 432:Drivers/STM32L1xx_HAL_Driver/Inc/stm32l1xx_ll_gpio.h ****   *         @arg @ref LL_GPIO_PIN_3
 433:Drivers/STM32L1xx_HAL_Driver/Inc/stm32l1xx_ll_gpio.h ****   *         @arg @ref LL_GPIO_PIN_4
 434:Drivers/STM32L1xx_HAL_Driver/Inc/stm32l1xx_ll_gpio.h ****   *         @arg @ref LL_GPIO_PIN_5
 435:Drivers/STM32L1xx_HAL_Driver/Inc/stm32l1xx_ll_gpio.h ****   *         @arg @ref LL_GPIO_PIN_6
 436:Drivers/STM32L1xx_HAL_Driver/Inc/stm32l1xx_ll_gpio.h ****   *         @arg @ref LL_GPIO_PIN_7
 437:Drivers/STM32L1xx_HAL_Driver/Inc/stm32l1xx_ll_gpio.h ****   *         @arg @ref LL_GPIO_PIN_8
 438:Drivers/STM32L1xx_HAL_Driver/Inc/stm32l1xx_ll_gpio.h ****   *         @arg @ref LL_GPIO_PIN_9
 439:Drivers/STM32L1xx_HAL_Driver/Inc/stm32l1xx_ll_gpio.h ****   *         @arg @ref LL_GPIO_PIN_10
 440:Drivers/STM32L1xx_HAL_Driver/Inc/stm32l1xx_ll_gpio.h ****   *         @arg @ref LL_GPIO_PIN_11
 441:Drivers/STM32L1xx_HAL_Driver/Inc/stm32l1xx_ll_gpio.h ****   *         @arg @ref LL_GPIO_PIN_12
 442:Drivers/STM32L1xx_HAL_Driver/Inc/stm32l1xx_ll_gpio.h ****   *         @arg @ref LL_GPIO_PIN_13
 443:Drivers/STM32L1xx_HAL_Driver/Inc/stm32l1xx_ll_gpio.h ****   *         @arg @ref LL_GPIO_PIN_14
 444:Drivers/STM32L1xx_HAL_Driver/Inc/stm32l1xx_ll_gpio.h ****   *         @arg @ref LL_GPIO_PIN_15
 445:Drivers/STM32L1xx_HAL_Driver/Inc/stm32l1xx_ll_gpio.h ****   * @retval Returned value can be one of the following values:
 446:Drivers/STM32L1xx_HAL_Driver/Inc/stm32l1xx_ll_gpio.h ****   *         @arg @ref LL_GPIO_SPEED_FREQ_LOW
 447:Drivers/STM32L1xx_HAL_Driver/Inc/stm32l1xx_ll_gpio.h ****   *         @arg @ref LL_GPIO_SPEED_FREQ_MEDIUM
 448:Drivers/STM32L1xx_HAL_Driver/Inc/stm32l1xx_ll_gpio.h ****   *         @arg @ref LL_GPIO_SPEED_FREQ_HIGH
ARM GAS  C:\Users\domen\AppData\Local\Temp\ccgakVxa.s 			page 16


 449:Drivers/STM32L1xx_HAL_Driver/Inc/stm32l1xx_ll_gpio.h ****   *         @arg @ref LL_GPIO_SPEED_FREQ_VERY_HIGH
 450:Drivers/STM32L1xx_HAL_Driver/Inc/stm32l1xx_ll_gpio.h ****   */
 451:Drivers/STM32L1xx_HAL_Driver/Inc/stm32l1xx_ll_gpio.h **** __STATIC_INLINE uint32_t LL_GPIO_GetPinSpeed(GPIO_TypeDef *GPIOx, uint32_t Pin)
 452:Drivers/STM32L1xx_HAL_Driver/Inc/stm32l1xx_ll_gpio.h **** {
 453:Drivers/STM32L1xx_HAL_Driver/Inc/stm32l1xx_ll_gpio.h ****   return (uint32_t)(READ_BIT(GPIOx->OSPEEDR,
 454:Drivers/STM32L1xx_HAL_Driver/Inc/stm32l1xx_ll_gpio.h ****                              (GPIO_OSPEEDER_OSPEEDR0 << (POSITION_VAL(Pin) * 2U))) >> (POSITION_VAL
 455:Drivers/STM32L1xx_HAL_Driver/Inc/stm32l1xx_ll_gpio.h **** }
 456:Drivers/STM32L1xx_HAL_Driver/Inc/stm32l1xx_ll_gpio.h **** 
 457:Drivers/STM32L1xx_HAL_Driver/Inc/stm32l1xx_ll_gpio.h **** /**
 458:Drivers/STM32L1xx_HAL_Driver/Inc/stm32l1xx_ll_gpio.h ****   * @brief  Configure gpio pull-up or pull-down for a dedicated pin on a dedicated port.
 459:Drivers/STM32L1xx_HAL_Driver/Inc/stm32l1xx_ll_gpio.h ****   * @note   Warning: only one pin can be passed as parameter.
 460:Drivers/STM32L1xx_HAL_Driver/Inc/stm32l1xx_ll_gpio.h ****   * @rmtoll PUPDR        PUPDy         LL_GPIO_SetPinPull
 461:Drivers/STM32L1xx_HAL_Driver/Inc/stm32l1xx_ll_gpio.h ****   * @param  GPIOx GPIO Port
 462:Drivers/STM32L1xx_HAL_Driver/Inc/stm32l1xx_ll_gpio.h ****   * @param  Pin This parameter can be one of the following values:
 463:Drivers/STM32L1xx_HAL_Driver/Inc/stm32l1xx_ll_gpio.h ****   *         @arg @ref LL_GPIO_PIN_0
 464:Drivers/STM32L1xx_HAL_Driver/Inc/stm32l1xx_ll_gpio.h ****   *         @arg @ref LL_GPIO_PIN_1
 465:Drivers/STM32L1xx_HAL_Driver/Inc/stm32l1xx_ll_gpio.h ****   *         @arg @ref LL_GPIO_PIN_2
 466:Drivers/STM32L1xx_HAL_Driver/Inc/stm32l1xx_ll_gpio.h ****   *         @arg @ref LL_GPIO_PIN_3
 467:Drivers/STM32L1xx_HAL_Driver/Inc/stm32l1xx_ll_gpio.h ****   *         @arg @ref LL_GPIO_PIN_4
 468:Drivers/STM32L1xx_HAL_Driver/Inc/stm32l1xx_ll_gpio.h ****   *         @arg @ref LL_GPIO_PIN_5
 469:Drivers/STM32L1xx_HAL_Driver/Inc/stm32l1xx_ll_gpio.h ****   *         @arg @ref LL_GPIO_PIN_6
 470:Drivers/STM32L1xx_HAL_Driver/Inc/stm32l1xx_ll_gpio.h ****   *         @arg @ref LL_GPIO_PIN_7
 471:Drivers/STM32L1xx_HAL_Driver/Inc/stm32l1xx_ll_gpio.h ****   *         @arg @ref LL_GPIO_PIN_8
 472:Drivers/STM32L1xx_HAL_Driver/Inc/stm32l1xx_ll_gpio.h ****   *         @arg @ref LL_GPIO_PIN_9
 473:Drivers/STM32L1xx_HAL_Driver/Inc/stm32l1xx_ll_gpio.h ****   *         @arg @ref LL_GPIO_PIN_10
 474:Drivers/STM32L1xx_HAL_Driver/Inc/stm32l1xx_ll_gpio.h ****   *         @arg @ref LL_GPIO_PIN_11
 475:Drivers/STM32L1xx_HAL_Driver/Inc/stm32l1xx_ll_gpio.h ****   *         @arg @ref LL_GPIO_PIN_12
 476:Drivers/STM32L1xx_HAL_Driver/Inc/stm32l1xx_ll_gpio.h ****   *         @arg @ref LL_GPIO_PIN_13
 477:Drivers/STM32L1xx_HAL_Driver/Inc/stm32l1xx_ll_gpio.h ****   *         @arg @ref LL_GPIO_PIN_14
 478:Drivers/STM32L1xx_HAL_Driver/Inc/stm32l1xx_ll_gpio.h ****   *         @arg @ref LL_GPIO_PIN_15
 479:Drivers/STM32L1xx_HAL_Driver/Inc/stm32l1xx_ll_gpio.h ****   * @param  Pull This parameter can be one of the following values:
 480:Drivers/STM32L1xx_HAL_Driver/Inc/stm32l1xx_ll_gpio.h ****   *         @arg @ref LL_GPIO_PULL_NO
 481:Drivers/STM32L1xx_HAL_Driver/Inc/stm32l1xx_ll_gpio.h ****   *         @arg @ref LL_GPIO_PULL_UP
 482:Drivers/STM32L1xx_HAL_Driver/Inc/stm32l1xx_ll_gpio.h ****   *         @arg @ref LL_GPIO_PULL_DOWN
 483:Drivers/STM32L1xx_HAL_Driver/Inc/stm32l1xx_ll_gpio.h ****   * @retval None
 484:Drivers/STM32L1xx_HAL_Driver/Inc/stm32l1xx_ll_gpio.h ****   */
 485:Drivers/STM32L1xx_HAL_Driver/Inc/stm32l1xx_ll_gpio.h **** __STATIC_INLINE void LL_GPIO_SetPinPull(GPIO_TypeDef *GPIOx, uint32_t Pin, uint32_t Pull)
 486:Drivers/STM32L1xx_HAL_Driver/Inc/stm32l1xx_ll_gpio.h **** {
 487:Drivers/STM32L1xx_HAL_Driver/Inc/stm32l1xx_ll_gpio.h ****   MODIFY_REG(GPIOx->PUPDR, (GPIO_PUPDR_PUPDR0 << (POSITION_VAL(Pin) * 2U)), (Pull << (POSITION_VAL(
 488:Drivers/STM32L1xx_HAL_Driver/Inc/stm32l1xx_ll_gpio.h **** }
 489:Drivers/STM32L1xx_HAL_Driver/Inc/stm32l1xx_ll_gpio.h **** 
 490:Drivers/STM32L1xx_HAL_Driver/Inc/stm32l1xx_ll_gpio.h **** /**
 491:Drivers/STM32L1xx_HAL_Driver/Inc/stm32l1xx_ll_gpio.h ****   * @brief  Return gpio pull-up or pull-down for a dedicated pin on a dedicated port
 492:Drivers/STM32L1xx_HAL_Driver/Inc/stm32l1xx_ll_gpio.h ****   * @note   Warning: only one pin can be passed as parameter.
 493:Drivers/STM32L1xx_HAL_Driver/Inc/stm32l1xx_ll_gpio.h ****   * @rmtoll PUPDR        PUPDy         LL_GPIO_GetPinPull
 494:Drivers/STM32L1xx_HAL_Driver/Inc/stm32l1xx_ll_gpio.h ****   * @param  GPIOx GPIO Port
 495:Drivers/STM32L1xx_HAL_Driver/Inc/stm32l1xx_ll_gpio.h ****   * @param  Pin This parameter can be one of the following values:
 496:Drivers/STM32L1xx_HAL_Driver/Inc/stm32l1xx_ll_gpio.h ****   *         @arg @ref LL_GPIO_PIN_0
 497:Drivers/STM32L1xx_HAL_Driver/Inc/stm32l1xx_ll_gpio.h ****   *         @arg @ref LL_GPIO_PIN_1
 498:Drivers/STM32L1xx_HAL_Driver/Inc/stm32l1xx_ll_gpio.h ****   *         @arg @ref LL_GPIO_PIN_2
 499:Drivers/STM32L1xx_HAL_Driver/Inc/stm32l1xx_ll_gpio.h ****   *         @arg @ref LL_GPIO_PIN_3
 500:Drivers/STM32L1xx_HAL_Driver/Inc/stm32l1xx_ll_gpio.h ****   *         @arg @ref LL_GPIO_PIN_4
 501:Drivers/STM32L1xx_HAL_Driver/Inc/stm32l1xx_ll_gpio.h ****   *         @arg @ref LL_GPIO_PIN_5
 502:Drivers/STM32L1xx_HAL_Driver/Inc/stm32l1xx_ll_gpio.h ****   *         @arg @ref LL_GPIO_PIN_6
 503:Drivers/STM32L1xx_HAL_Driver/Inc/stm32l1xx_ll_gpio.h ****   *         @arg @ref LL_GPIO_PIN_7
 504:Drivers/STM32L1xx_HAL_Driver/Inc/stm32l1xx_ll_gpio.h ****   *         @arg @ref LL_GPIO_PIN_8
 505:Drivers/STM32L1xx_HAL_Driver/Inc/stm32l1xx_ll_gpio.h ****   *         @arg @ref LL_GPIO_PIN_9
ARM GAS  C:\Users\domen\AppData\Local\Temp\ccgakVxa.s 			page 17


 506:Drivers/STM32L1xx_HAL_Driver/Inc/stm32l1xx_ll_gpio.h ****   *         @arg @ref LL_GPIO_PIN_10
 507:Drivers/STM32L1xx_HAL_Driver/Inc/stm32l1xx_ll_gpio.h ****   *         @arg @ref LL_GPIO_PIN_11
 508:Drivers/STM32L1xx_HAL_Driver/Inc/stm32l1xx_ll_gpio.h ****   *         @arg @ref LL_GPIO_PIN_12
 509:Drivers/STM32L1xx_HAL_Driver/Inc/stm32l1xx_ll_gpio.h ****   *         @arg @ref LL_GPIO_PIN_13
 510:Drivers/STM32L1xx_HAL_Driver/Inc/stm32l1xx_ll_gpio.h ****   *         @arg @ref LL_GPIO_PIN_14
 511:Drivers/STM32L1xx_HAL_Driver/Inc/stm32l1xx_ll_gpio.h ****   *         @arg @ref LL_GPIO_PIN_15
 512:Drivers/STM32L1xx_HAL_Driver/Inc/stm32l1xx_ll_gpio.h ****   * @retval Returned value can be one of the following values:
 513:Drivers/STM32L1xx_HAL_Driver/Inc/stm32l1xx_ll_gpio.h ****   *         @arg @ref LL_GPIO_PULL_NO
 514:Drivers/STM32L1xx_HAL_Driver/Inc/stm32l1xx_ll_gpio.h ****   *         @arg @ref LL_GPIO_PULL_UP
 515:Drivers/STM32L1xx_HAL_Driver/Inc/stm32l1xx_ll_gpio.h ****   *         @arg @ref LL_GPIO_PULL_DOWN
 516:Drivers/STM32L1xx_HAL_Driver/Inc/stm32l1xx_ll_gpio.h ****   */
 517:Drivers/STM32L1xx_HAL_Driver/Inc/stm32l1xx_ll_gpio.h **** __STATIC_INLINE uint32_t LL_GPIO_GetPinPull(GPIO_TypeDef *GPIOx, uint32_t Pin)
 518:Drivers/STM32L1xx_HAL_Driver/Inc/stm32l1xx_ll_gpio.h **** {
 519:Drivers/STM32L1xx_HAL_Driver/Inc/stm32l1xx_ll_gpio.h ****   return (uint32_t)(READ_BIT(GPIOx->PUPDR,
 520:Drivers/STM32L1xx_HAL_Driver/Inc/stm32l1xx_ll_gpio.h ****                              (GPIO_PUPDR_PUPDR0 << (POSITION_VAL(Pin) * 2U))) >> (POSITION_VAL(Pin)
 521:Drivers/STM32L1xx_HAL_Driver/Inc/stm32l1xx_ll_gpio.h **** }
 522:Drivers/STM32L1xx_HAL_Driver/Inc/stm32l1xx_ll_gpio.h **** 
 523:Drivers/STM32L1xx_HAL_Driver/Inc/stm32l1xx_ll_gpio.h **** /**
 524:Drivers/STM32L1xx_HAL_Driver/Inc/stm32l1xx_ll_gpio.h ****   * @brief  Configure gpio alternate function of a dedicated pin from 0 to 7 for a dedicated port.
 525:Drivers/STM32L1xx_HAL_Driver/Inc/stm32l1xx_ll_gpio.h ****   * @note   Possible values are from AF0 to AF15 depending on target.
 526:Drivers/STM32L1xx_HAL_Driver/Inc/stm32l1xx_ll_gpio.h ****   * @note   Warning: only one pin can be passed as parameter.
 527:Drivers/STM32L1xx_HAL_Driver/Inc/stm32l1xx_ll_gpio.h ****   * @rmtoll AFRL         AFSELy        LL_GPIO_SetAFPin_0_7
 528:Drivers/STM32L1xx_HAL_Driver/Inc/stm32l1xx_ll_gpio.h ****   * @param  GPIOx GPIO Port
 529:Drivers/STM32L1xx_HAL_Driver/Inc/stm32l1xx_ll_gpio.h ****   * @param  Pin This parameter can be one of the following values:
 530:Drivers/STM32L1xx_HAL_Driver/Inc/stm32l1xx_ll_gpio.h ****   *         @arg @ref LL_GPIO_PIN_0
 531:Drivers/STM32L1xx_HAL_Driver/Inc/stm32l1xx_ll_gpio.h ****   *         @arg @ref LL_GPIO_PIN_1
 532:Drivers/STM32L1xx_HAL_Driver/Inc/stm32l1xx_ll_gpio.h ****   *         @arg @ref LL_GPIO_PIN_2
 533:Drivers/STM32L1xx_HAL_Driver/Inc/stm32l1xx_ll_gpio.h ****   *         @arg @ref LL_GPIO_PIN_3
 534:Drivers/STM32L1xx_HAL_Driver/Inc/stm32l1xx_ll_gpio.h ****   *         @arg @ref LL_GPIO_PIN_4
 535:Drivers/STM32L1xx_HAL_Driver/Inc/stm32l1xx_ll_gpio.h ****   *         @arg @ref LL_GPIO_PIN_5
 536:Drivers/STM32L1xx_HAL_Driver/Inc/stm32l1xx_ll_gpio.h ****   *         @arg @ref LL_GPIO_PIN_6
 537:Drivers/STM32L1xx_HAL_Driver/Inc/stm32l1xx_ll_gpio.h ****   *         @arg @ref LL_GPIO_PIN_7
 538:Drivers/STM32L1xx_HAL_Driver/Inc/stm32l1xx_ll_gpio.h ****   * @param  Alternate This parameter can be one of the following values:
 539:Drivers/STM32L1xx_HAL_Driver/Inc/stm32l1xx_ll_gpio.h ****   *         @arg @ref LL_GPIO_AF_0
 540:Drivers/STM32L1xx_HAL_Driver/Inc/stm32l1xx_ll_gpio.h ****   *         @arg @ref LL_GPIO_AF_1
 541:Drivers/STM32L1xx_HAL_Driver/Inc/stm32l1xx_ll_gpio.h ****   *         @arg @ref LL_GPIO_AF_2
 542:Drivers/STM32L1xx_HAL_Driver/Inc/stm32l1xx_ll_gpio.h ****   *         @arg @ref LL_GPIO_AF_3
 543:Drivers/STM32L1xx_HAL_Driver/Inc/stm32l1xx_ll_gpio.h ****   *         @arg @ref LL_GPIO_AF_4
 544:Drivers/STM32L1xx_HAL_Driver/Inc/stm32l1xx_ll_gpio.h ****   *         @arg @ref LL_GPIO_AF_5
 545:Drivers/STM32L1xx_HAL_Driver/Inc/stm32l1xx_ll_gpio.h ****   *         @arg @ref LL_GPIO_AF_6
 546:Drivers/STM32L1xx_HAL_Driver/Inc/stm32l1xx_ll_gpio.h ****   *         @arg @ref LL_GPIO_AF_7
 547:Drivers/STM32L1xx_HAL_Driver/Inc/stm32l1xx_ll_gpio.h ****   *         @arg @ref LL_GPIO_AF_8
 548:Drivers/STM32L1xx_HAL_Driver/Inc/stm32l1xx_ll_gpio.h ****   *         @arg @ref LL_GPIO_AF_9
 549:Drivers/STM32L1xx_HAL_Driver/Inc/stm32l1xx_ll_gpio.h ****   *         @arg @ref LL_GPIO_AF_10
 550:Drivers/STM32L1xx_HAL_Driver/Inc/stm32l1xx_ll_gpio.h ****   *         @arg @ref LL_GPIO_AF_11
 551:Drivers/STM32L1xx_HAL_Driver/Inc/stm32l1xx_ll_gpio.h ****   *         @arg @ref LL_GPIO_AF_12
 552:Drivers/STM32L1xx_HAL_Driver/Inc/stm32l1xx_ll_gpio.h ****   *         @arg @ref LL_GPIO_AF_13
 553:Drivers/STM32L1xx_HAL_Driver/Inc/stm32l1xx_ll_gpio.h ****   *         @arg @ref LL_GPIO_AF_14
 554:Drivers/STM32L1xx_HAL_Driver/Inc/stm32l1xx_ll_gpio.h ****   *         @arg @ref LL_GPIO_AF_15
 555:Drivers/STM32L1xx_HAL_Driver/Inc/stm32l1xx_ll_gpio.h ****   * @retval None
 556:Drivers/STM32L1xx_HAL_Driver/Inc/stm32l1xx_ll_gpio.h ****   */
 557:Drivers/STM32L1xx_HAL_Driver/Inc/stm32l1xx_ll_gpio.h **** __STATIC_INLINE void LL_GPIO_SetAFPin_0_7(GPIO_TypeDef *GPIOx, uint32_t Pin, uint32_t Alternate)
 558:Drivers/STM32L1xx_HAL_Driver/Inc/stm32l1xx_ll_gpio.h **** {
 559:Drivers/STM32L1xx_HAL_Driver/Inc/stm32l1xx_ll_gpio.h ****   MODIFY_REG(GPIOx->AFR[0], (GPIO_AFRL_AFSEL0 << (POSITION_VAL(Pin) * 4U)),
 560:Drivers/STM32L1xx_HAL_Driver/Inc/stm32l1xx_ll_gpio.h ****              (Alternate << (POSITION_VAL(Pin) * 4U)));
 561:Drivers/STM32L1xx_HAL_Driver/Inc/stm32l1xx_ll_gpio.h **** }
 562:Drivers/STM32L1xx_HAL_Driver/Inc/stm32l1xx_ll_gpio.h **** 
ARM GAS  C:\Users\domen\AppData\Local\Temp\ccgakVxa.s 			page 18


 563:Drivers/STM32L1xx_HAL_Driver/Inc/stm32l1xx_ll_gpio.h **** /**
 564:Drivers/STM32L1xx_HAL_Driver/Inc/stm32l1xx_ll_gpio.h ****   * @brief  Return gpio alternate function of a dedicated pin from 0 to 7 for a dedicated port.
 565:Drivers/STM32L1xx_HAL_Driver/Inc/stm32l1xx_ll_gpio.h ****   * @rmtoll AFRL         AFSELy        LL_GPIO_GetAFPin_0_7
 566:Drivers/STM32L1xx_HAL_Driver/Inc/stm32l1xx_ll_gpio.h ****   * @param  GPIOx GPIO Port
 567:Drivers/STM32L1xx_HAL_Driver/Inc/stm32l1xx_ll_gpio.h ****   * @param  Pin This parameter can be one of the following values:
 568:Drivers/STM32L1xx_HAL_Driver/Inc/stm32l1xx_ll_gpio.h ****   *         @arg @ref LL_GPIO_PIN_0
 569:Drivers/STM32L1xx_HAL_Driver/Inc/stm32l1xx_ll_gpio.h ****   *         @arg @ref LL_GPIO_PIN_1
 570:Drivers/STM32L1xx_HAL_Driver/Inc/stm32l1xx_ll_gpio.h ****   *         @arg @ref LL_GPIO_PIN_2
 571:Drivers/STM32L1xx_HAL_Driver/Inc/stm32l1xx_ll_gpio.h ****   *         @arg @ref LL_GPIO_PIN_3
 572:Drivers/STM32L1xx_HAL_Driver/Inc/stm32l1xx_ll_gpio.h ****   *         @arg @ref LL_GPIO_PIN_4
 573:Drivers/STM32L1xx_HAL_Driver/Inc/stm32l1xx_ll_gpio.h ****   *         @arg @ref LL_GPIO_PIN_5
 574:Drivers/STM32L1xx_HAL_Driver/Inc/stm32l1xx_ll_gpio.h ****   *         @arg @ref LL_GPIO_PIN_6
 575:Drivers/STM32L1xx_HAL_Driver/Inc/stm32l1xx_ll_gpio.h ****   *         @arg @ref LL_GPIO_PIN_7
 576:Drivers/STM32L1xx_HAL_Driver/Inc/stm32l1xx_ll_gpio.h ****   * @retval Returned value can be one of the following values:
 577:Drivers/STM32L1xx_HAL_Driver/Inc/stm32l1xx_ll_gpio.h ****   *         @arg @ref LL_GPIO_AF_0
 578:Drivers/STM32L1xx_HAL_Driver/Inc/stm32l1xx_ll_gpio.h ****   *         @arg @ref LL_GPIO_AF_1
 579:Drivers/STM32L1xx_HAL_Driver/Inc/stm32l1xx_ll_gpio.h ****   *         @arg @ref LL_GPIO_AF_2
 580:Drivers/STM32L1xx_HAL_Driver/Inc/stm32l1xx_ll_gpio.h ****   *         @arg @ref LL_GPIO_AF_3
 581:Drivers/STM32L1xx_HAL_Driver/Inc/stm32l1xx_ll_gpio.h ****   *         @arg @ref LL_GPIO_AF_4
 582:Drivers/STM32L1xx_HAL_Driver/Inc/stm32l1xx_ll_gpio.h ****   *         @arg @ref LL_GPIO_AF_5
 583:Drivers/STM32L1xx_HAL_Driver/Inc/stm32l1xx_ll_gpio.h ****   *         @arg @ref LL_GPIO_AF_6
 584:Drivers/STM32L1xx_HAL_Driver/Inc/stm32l1xx_ll_gpio.h ****   *         @arg @ref LL_GPIO_AF_7
 585:Drivers/STM32L1xx_HAL_Driver/Inc/stm32l1xx_ll_gpio.h ****   *         @arg @ref LL_GPIO_AF_8
 586:Drivers/STM32L1xx_HAL_Driver/Inc/stm32l1xx_ll_gpio.h ****   *         @arg @ref LL_GPIO_AF_9
 587:Drivers/STM32L1xx_HAL_Driver/Inc/stm32l1xx_ll_gpio.h ****   *         @arg @ref LL_GPIO_AF_10
 588:Drivers/STM32L1xx_HAL_Driver/Inc/stm32l1xx_ll_gpio.h ****   *         @arg @ref LL_GPIO_AF_11
 589:Drivers/STM32L1xx_HAL_Driver/Inc/stm32l1xx_ll_gpio.h ****   *         @arg @ref LL_GPIO_AF_12
 590:Drivers/STM32L1xx_HAL_Driver/Inc/stm32l1xx_ll_gpio.h ****   *         @arg @ref LL_GPIO_AF_13
 591:Drivers/STM32L1xx_HAL_Driver/Inc/stm32l1xx_ll_gpio.h ****   *         @arg @ref LL_GPIO_AF_14
 592:Drivers/STM32L1xx_HAL_Driver/Inc/stm32l1xx_ll_gpio.h ****   *         @arg @ref LL_GPIO_AF_15
 593:Drivers/STM32L1xx_HAL_Driver/Inc/stm32l1xx_ll_gpio.h ****   */
 594:Drivers/STM32L1xx_HAL_Driver/Inc/stm32l1xx_ll_gpio.h **** __STATIC_INLINE uint32_t LL_GPIO_GetAFPin_0_7(GPIO_TypeDef *GPIOx, uint32_t Pin)
 595:Drivers/STM32L1xx_HAL_Driver/Inc/stm32l1xx_ll_gpio.h **** {
 596:Drivers/STM32L1xx_HAL_Driver/Inc/stm32l1xx_ll_gpio.h ****   return (uint32_t)(READ_BIT(GPIOx->AFR[0],
 597:Drivers/STM32L1xx_HAL_Driver/Inc/stm32l1xx_ll_gpio.h ****                              (GPIO_AFRL_AFSEL0 << (POSITION_VAL(Pin) * 4U))) >> (POSITION_VAL(Pin) 
 598:Drivers/STM32L1xx_HAL_Driver/Inc/stm32l1xx_ll_gpio.h **** }
 599:Drivers/STM32L1xx_HAL_Driver/Inc/stm32l1xx_ll_gpio.h **** 
 600:Drivers/STM32L1xx_HAL_Driver/Inc/stm32l1xx_ll_gpio.h **** /**
 601:Drivers/STM32L1xx_HAL_Driver/Inc/stm32l1xx_ll_gpio.h ****   * @brief  Configure gpio alternate function of a dedicated pin from 8 to 15 for a dedicated port.
 602:Drivers/STM32L1xx_HAL_Driver/Inc/stm32l1xx_ll_gpio.h ****   * @note   Possible values are from AF0 to AF15 depending on target.
 603:Drivers/STM32L1xx_HAL_Driver/Inc/stm32l1xx_ll_gpio.h ****   * @note   Warning: only one pin can be passed as parameter.
 604:Drivers/STM32L1xx_HAL_Driver/Inc/stm32l1xx_ll_gpio.h ****   * @rmtoll AFRH         AFSELy        LL_GPIO_SetAFPin_8_15
 605:Drivers/STM32L1xx_HAL_Driver/Inc/stm32l1xx_ll_gpio.h ****   * @param  GPIOx GPIO Port
 606:Drivers/STM32L1xx_HAL_Driver/Inc/stm32l1xx_ll_gpio.h ****   * @param  Pin This parameter can be one of the following values:
 607:Drivers/STM32L1xx_HAL_Driver/Inc/stm32l1xx_ll_gpio.h ****   *         @arg @ref LL_GPIO_PIN_8
 608:Drivers/STM32L1xx_HAL_Driver/Inc/stm32l1xx_ll_gpio.h ****   *         @arg @ref LL_GPIO_PIN_9
 609:Drivers/STM32L1xx_HAL_Driver/Inc/stm32l1xx_ll_gpio.h ****   *         @arg @ref LL_GPIO_PIN_10
 610:Drivers/STM32L1xx_HAL_Driver/Inc/stm32l1xx_ll_gpio.h ****   *         @arg @ref LL_GPIO_PIN_11
 611:Drivers/STM32L1xx_HAL_Driver/Inc/stm32l1xx_ll_gpio.h ****   *         @arg @ref LL_GPIO_PIN_12
 612:Drivers/STM32L1xx_HAL_Driver/Inc/stm32l1xx_ll_gpio.h ****   *         @arg @ref LL_GPIO_PIN_13
 613:Drivers/STM32L1xx_HAL_Driver/Inc/stm32l1xx_ll_gpio.h ****   *         @arg @ref LL_GPIO_PIN_14
 614:Drivers/STM32L1xx_HAL_Driver/Inc/stm32l1xx_ll_gpio.h ****   *         @arg @ref LL_GPIO_PIN_15
 615:Drivers/STM32L1xx_HAL_Driver/Inc/stm32l1xx_ll_gpio.h ****   * @param  Alternate This parameter can be one of the following values:
 616:Drivers/STM32L1xx_HAL_Driver/Inc/stm32l1xx_ll_gpio.h ****   *         @arg @ref LL_GPIO_AF_0
 617:Drivers/STM32L1xx_HAL_Driver/Inc/stm32l1xx_ll_gpio.h ****   *         @arg @ref LL_GPIO_AF_1
 618:Drivers/STM32L1xx_HAL_Driver/Inc/stm32l1xx_ll_gpio.h ****   *         @arg @ref LL_GPIO_AF_2
 619:Drivers/STM32L1xx_HAL_Driver/Inc/stm32l1xx_ll_gpio.h ****   *         @arg @ref LL_GPIO_AF_3
ARM GAS  C:\Users\domen\AppData\Local\Temp\ccgakVxa.s 			page 19


 620:Drivers/STM32L1xx_HAL_Driver/Inc/stm32l1xx_ll_gpio.h ****   *         @arg @ref LL_GPIO_AF_4
 621:Drivers/STM32L1xx_HAL_Driver/Inc/stm32l1xx_ll_gpio.h ****   *         @arg @ref LL_GPIO_AF_5
 622:Drivers/STM32L1xx_HAL_Driver/Inc/stm32l1xx_ll_gpio.h ****   *         @arg @ref LL_GPIO_AF_6
 623:Drivers/STM32L1xx_HAL_Driver/Inc/stm32l1xx_ll_gpio.h ****   *         @arg @ref LL_GPIO_AF_7
 624:Drivers/STM32L1xx_HAL_Driver/Inc/stm32l1xx_ll_gpio.h ****   *         @arg @ref LL_GPIO_AF_8
 625:Drivers/STM32L1xx_HAL_Driver/Inc/stm32l1xx_ll_gpio.h ****   *         @arg @ref LL_GPIO_AF_9
 626:Drivers/STM32L1xx_HAL_Driver/Inc/stm32l1xx_ll_gpio.h ****   *         @arg @ref LL_GPIO_AF_10
 627:Drivers/STM32L1xx_HAL_Driver/Inc/stm32l1xx_ll_gpio.h ****   *         @arg @ref LL_GPIO_AF_11
 628:Drivers/STM32L1xx_HAL_Driver/Inc/stm32l1xx_ll_gpio.h ****   *         @arg @ref LL_GPIO_AF_12
 629:Drivers/STM32L1xx_HAL_Driver/Inc/stm32l1xx_ll_gpio.h ****   *         @arg @ref LL_GPIO_AF_13
 630:Drivers/STM32L1xx_HAL_Driver/Inc/stm32l1xx_ll_gpio.h ****   *         @arg @ref LL_GPIO_AF_14
 631:Drivers/STM32L1xx_HAL_Driver/Inc/stm32l1xx_ll_gpio.h ****   *         @arg @ref LL_GPIO_AF_15
 632:Drivers/STM32L1xx_HAL_Driver/Inc/stm32l1xx_ll_gpio.h ****   * @retval None
 633:Drivers/STM32L1xx_HAL_Driver/Inc/stm32l1xx_ll_gpio.h ****   */
 634:Drivers/STM32L1xx_HAL_Driver/Inc/stm32l1xx_ll_gpio.h **** __STATIC_INLINE void LL_GPIO_SetAFPin_8_15(GPIO_TypeDef *GPIOx, uint32_t Pin, uint32_t Alternate)
 635:Drivers/STM32L1xx_HAL_Driver/Inc/stm32l1xx_ll_gpio.h **** {
 636:Drivers/STM32L1xx_HAL_Driver/Inc/stm32l1xx_ll_gpio.h ****   MODIFY_REG(GPIOx->AFR[1], (GPIO_AFRH_AFSEL8 << (POSITION_VAL(Pin >> 8U) * 4U)),
 637:Drivers/STM32L1xx_HAL_Driver/Inc/stm32l1xx_ll_gpio.h ****              (Alternate << (POSITION_VAL(Pin >> 8U) * 4U)));
 638:Drivers/STM32L1xx_HAL_Driver/Inc/stm32l1xx_ll_gpio.h **** }
 639:Drivers/STM32L1xx_HAL_Driver/Inc/stm32l1xx_ll_gpio.h **** 
 640:Drivers/STM32L1xx_HAL_Driver/Inc/stm32l1xx_ll_gpio.h **** /**
 641:Drivers/STM32L1xx_HAL_Driver/Inc/stm32l1xx_ll_gpio.h ****   * @brief  Return gpio alternate function of a dedicated pin from 8 to 15 for a dedicated port.
 642:Drivers/STM32L1xx_HAL_Driver/Inc/stm32l1xx_ll_gpio.h ****   * @note   Possible values are from AF0 to AF15 depending on target.
 643:Drivers/STM32L1xx_HAL_Driver/Inc/stm32l1xx_ll_gpio.h ****   * @rmtoll AFRH         AFSELy        LL_GPIO_GetAFPin_8_15
 644:Drivers/STM32L1xx_HAL_Driver/Inc/stm32l1xx_ll_gpio.h ****   * @param  GPIOx GPIO Port
 645:Drivers/STM32L1xx_HAL_Driver/Inc/stm32l1xx_ll_gpio.h ****   * @param  Pin This parameter can be one of the following values:
 646:Drivers/STM32L1xx_HAL_Driver/Inc/stm32l1xx_ll_gpio.h ****   *         @arg @ref LL_GPIO_PIN_8
 647:Drivers/STM32L1xx_HAL_Driver/Inc/stm32l1xx_ll_gpio.h ****   *         @arg @ref LL_GPIO_PIN_9
 648:Drivers/STM32L1xx_HAL_Driver/Inc/stm32l1xx_ll_gpio.h ****   *         @arg @ref LL_GPIO_PIN_10
 649:Drivers/STM32L1xx_HAL_Driver/Inc/stm32l1xx_ll_gpio.h ****   *         @arg @ref LL_GPIO_PIN_11
 650:Drivers/STM32L1xx_HAL_Driver/Inc/stm32l1xx_ll_gpio.h ****   *         @arg @ref LL_GPIO_PIN_12
 651:Drivers/STM32L1xx_HAL_Driver/Inc/stm32l1xx_ll_gpio.h ****   *         @arg @ref LL_GPIO_PIN_13
 652:Drivers/STM32L1xx_HAL_Driver/Inc/stm32l1xx_ll_gpio.h ****   *         @arg @ref LL_GPIO_PIN_14
 653:Drivers/STM32L1xx_HAL_Driver/Inc/stm32l1xx_ll_gpio.h ****   *         @arg @ref LL_GPIO_PIN_15
 654:Drivers/STM32L1xx_HAL_Driver/Inc/stm32l1xx_ll_gpio.h ****   * @retval Returned value can be one of the following values:
 655:Drivers/STM32L1xx_HAL_Driver/Inc/stm32l1xx_ll_gpio.h ****   *         @arg @ref LL_GPIO_AF_0
 656:Drivers/STM32L1xx_HAL_Driver/Inc/stm32l1xx_ll_gpio.h ****   *         @arg @ref LL_GPIO_AF_1
 657:Drivers/STM32L1xx_HAL_Driver/Inc/stm32l1xx_ll_gpio.h ****   *         @arg @ref LL_GPIO_AF_2
 658:Drivers/STM32L1xx_HAL_Driver/Inc/stm32l1xx_ll_gpio.h ****   *         @arg @ref LL_GPIO_AF_3
 659:Drivers/STM32L1xx_HAL_Driver/Inc/stm32l1xx_ll_gpio.h ****   *         @arg @ref LL_GPIO_AF_4
 660:Drivers/STM32L1xx_HAL_Driver/Inc/stm32l1xx_ll_gpio.h ****   *         @arg @ref LL_GPIO_AF_5
 661:Drivers/STM32L1xx_HAL_Driver/Inc/stm32l1xx_ll_gpio.h ****   *         @arg @ref LL_GPIO_AF_6
 662:Drivers/STM32L1xx_HAL_Driver/Inc/stm32l1xx_ll_gpio.h ****   *         @arg @ref LL_GPIO_AF_7
 663:Drivers/STM32L1xx_HAL_Driver/Inc/stm32l1xx_ll_gpio.h ****   *         @arg @ref LL_GPIO_AF_8
 664:Drivers/STM32L1xx_HAL_Driver/Inc/stm32l1xx_ll_gpio.h ****   *         @arg @ref LL_GPIO_AF_9
 665:Drivers/STM32L1xx_HAL_Driver/Inc/stm32l1xx_ll_gpio.h ****   *         @arg @ref LL_GPIO_AF_10
 666:Drivers/STM32L1xx_HAL_Driver/Inc/stm32l1xx_ll_gpio.h ****   *         @arg @ref LL_GPIO_AF_11
 667:Drivers/STM32L1xx_HAL_Driver/Inc/stm32l1xx_ll_gpio.h ****   *         @arg @ref LL_GPIO_AF_12
 668:Drivers/STM32L1xx_HAL_Driver/Inc/stm32l1xx_ll_gpio.h ****   *         @arg @ref LL_GPIO_AF_13
 669:Drivers/STM32L1xx_HAL_Driver/Inc/stm32l1xx_ll_gpio.h ****   *         @arg @ref LL_GPIO_AF_14
 670:Drivers/STM32L1xx_HAL_Driver/Inc/stm32l1xx_ll_gpio.h ****   *         @arg @ref LL_GPIO_AF_15
 671:Drivers/STM32L1xx_HAL_Driver/Inc/stm32l1xx_ll_gpio.h ****   */
 672:Drivers/STM32L1xx_HAL_Driver/Inc/stm32l1xx_ll_gpio.h **** __STATIC_INLINE uint32_t LL_GPIO_GetAFPin_8_15(GPIO_TypeDef *GPIOx, uint32_t Pin)
 673:Drivers/STM32L1xx_HAL_Driver/Inc/stm32l1xx_ll_gpio.h **** {
 674:Drivers/STM32L1xx_HAL_Driver/Inc/stm32l1xx_ll_gpio.h ****   return (uint32_t)(READ_BIT(GPIOx->AFR[1],
 675:Drivers/STM32L1xx_HAL_Driver/Inc/stm32l1xx_ll_gpio.h ****                              (GPIO_AFRH_AFSEL8 << (POSITION_VAL(Pin >> 8U) * 4U))) >> (POSITION_VAL
 676:Drivers/STM32L1xx_HAL_Driver/Inc/stm32l1xx_ll_gpio.h **** }
ARM GAS  C:\Users\domen\AppData\Local\Temp\ccgakVxa.s 			page 20


 677:Drivers/STM32L1xx_HAL_Driver/Inc/stm32l1xx_ll_gpio.h **** 
 678:Drivers/STM32L1xx_HAL_Driver/Inc/stm32l1xx_ll_gpio.h **** 
 679:Drivers/STM32L1xx_HAL_Driver/Inc/stm32l1xx_ll_gpio.h **** /**
 680:Drivers/STM32L1xx_HAL_Driver/Inc/stm32l1xx_ll_gpio.h ****   * @brief  Lock configuration of several pins for a dedicated port.
 681:Drivers/STM32L1xx_HAL_Driver/Inc/stm32l1xx_ll_gpio.h ****   * @note   When the lock sequence has been applied on a port bit, the
 682:Drivers/STM32L1xx_HAL_Driver/Inc/stm32l1xx_ll_gpio.h ****   *         value of this port bit can no longer be modified until the
 683:Drivers/STM32L1xx_HAL_Driver/Inc/stm32l1xx_ll_gpio.h ****   *         next reset.
 684:Drivers/STM32L1xx_HAL_Driver/Inc/stm32l1xx_ll_gpio.h ****   * @note   Each lock bit freezes a specific configuration register
 685:Drivers/STM32L1xx_HAL_Driver/Inc/stm32l1xx_ll_gpio.h ****   *         (control and alternate function registers).
 686:Drivers/STM32L1xx_HAL_Driver/Inc/stm32l1xx_ll_gpio.h ****   * @rmtoll LCKR         LCKK          LL_GPIO_LockPin
 687:Drivers/STM32L1xx_HAL_Driver/Inc/stm32l1xx_ll_gpio.h ****   * @param  GPIOx GPIO Port
 688:Drivers/STM32L1xx_HAL_Driver/Inc/stm32l1xx_ll_gpio.h ****   * @param  PinMask This parameter can be a combination of the following values:
 689:Drivers/STM32L1xx_HAL_Driver/Inc/stm32l1xx_ll_gpio.h ****   *         @arg @ref LL_GPIO_PIN_0
 690:Drivers/STM32L1xx_HAL_Driver/Inc/stm32l1xx_ll_gpio.h ****   *         @arg @ref LL_GPIO_PIN_1
 691:Drivers/STM32L1xx_HAL_Driver/Inc/stm32l1xx_ll_gpio.h ****   *         @arg @ref LL_GPIO_PIN_2
 692:Drivers/STM32L1xx_HAL_Driver/Inc/stm32l1xx_ll_gpio.h ****   *         @arg @ref LL_GPIO_PIN_3
 693:Drivers/STM32L1xx_HAL_Driver/Inc/stm32l1xx_ll_gpio.h ****   *         @arg @ref LL_GPIO_PIN_4
 694:Drivers/STM32L1xx_HAL_Driver/Inc/stm32l1xx_ll_gpio.h ****   *         @arg @ref LL_GPIO_PIN_5
 695:Drivers/STM32L1xx_HAL_Driver/Inc/stm32l1xx_ll_gpio.h ****   *         @arg @ref LL_GPIO_PIN_6
 696:Drivers/STM32L1xx_HAL_Driver/Inc/stm32l1xx_ll_gpio.h ****   *         @arg @ref LL_GPIO_PIN_7
 697:Drivers/STM32L1xx_HAL_Driver/Inc/stm32l1xx_ll_gpio.h ****   *         @arg @ref LL_GPIO_PIN_8
 698:Drivers/STM32L1xx_HAL_Driver/Inc/stm32l1xx_ll_gpio.h ****   *         @arg @ref LL_GPIO_PIN_9
 699:Drivers/STM32L1xx_HAL_Driver/Inc/stm32l1xx_ll_gpio.h ****   *         @arg @ref LL_GPIO_PIN_10
 700:Drivers/STM32L1xx_HAL_Driver/Inc/stm32l1xx_ll_gpio.h ****   *         @arg @ref LL_GPIO_PIN_11
 701:Drivers/STM32L1xx_HAL_Driver/Inc/stm32l1xx_ll_gpio.h ****   *         @arg @ref LL_GPIO_PIN_12
 702:Drivers/STM32L1xx_HAL_Driver/Inc/stm32l1xx_ll_gpio.h ****   *         @arg @ref LL_GPIO_PIN_13
 703:Drivers/STM32L1xx_HAL_Driver/Inc/stm32l1xx_ll_gpio.h ****   *         @arg @ref LL_GPIO_PIN_14
 704:Drivers/STM32L1xx_HAL_Driver/Inc/stm32l1xx_ll_gpio.h ****   *         @arg @ref LL_GPIO_PIN_15
 705:Drivers/STM32L1xx_HAL_Driver/Inc/stm32l1xx_ll_gpio.h ****   *         @arg @ref LL_GPIO_PIN_ALL
 706:Drivers/STM32L1xx_HAL_Driver/Inc/stm32l1xx_ll_gpio.h ****   * @retval None
 707:Drivers/STM32L1xx_HAL_Driver/Inc/stm32l1xx_ll_gpio.h ****   */
 708:Drivers/STM32L1xx_HAL_Driver/Inc/stm32l1xx_ll_gpio.h **** __STATIC_INLINE void LL_GPIO_LockPin(GPIO_TypeDef *GPIOx, uint32_t PinMask)
 709:Drivers/STM32L1xx_HAL_Driver/Inc/stm32l1xx_ll_gpio.h **** {
 710:Drivers/STM32L1xx_HAL_Driver/Inc/stm32l1xx_ll_gpio.h ****   __IO uint32_t temp;
 711:Drivers/STM32L1xx_HAL_Driver/Inc/stm32l1xx_ll_gpio.h ****   WRITE_REG(GPIOx->LCKR, GPIO_LCKR_LCKK | PinMask);
 712:Drivers/STM32L1xx_HAL_Driver/Inc/stm32l1xx_ll_gpio.h ****   WRITE_REG(GPIOx->LCKR, PinMask);
 713:Drivers/STM32L1xx_HAL_Driver/Inc/stm32l1xx_ll_gpio.h ****   WRITE_REG(GPIOx->LCKR, GPIO_LCKR_LCKK | PinMask);
 714:Drivers/STM32L1xx_HAL_Driver/Inc/stm32l1xx_ll_gpio.h ****   /* Read LCKK register. This read is mandatory to complete key lock sequence */
 715:Drivers/STM32L1xx_HAL_Driver/Inc/stm32l1xx_ll_gpio.h ****   temp = READ_REG(GPIOx->LCKR);
 716:Drivers/STM32L1xx_HAL_Driver/Inc/stm32l1xx_ll_gpio.h ****   (void) temp;
 717:Drivers/STM32L1xx_HAL_Driver/Inc/stm32l1xx_ll_gpio.h **** }
 718:Drivers/STM32L1xx_HAL_Driver/Inc/stm32l1xx_ll_gpio.h **** 
 719:Drivers/STM32L1xx_HAL_Driver/Inc/stm32l1xx_ll_gpio.h **** /**
 720:Drivers/STM32L1xx_HAL_Driver/Inc/stm32l1xx_ll_gpio.h ****   * @brief  Return 1 if all pins passed as parameter, of a dedicated port, are locked. else Return 
 721:Drivers/STM32L1xx_HAL_Driver/Inc/stm32l1xx_ll_gpio.h ****   * @rmtoll LCKR         LCKy          LL_GPIO_IsPinLocked
 722:Drivers/STM32L1xx_HAL_Driver/Inc/stm32l1xx_ll_gpio.h ****   * @param  GPIOx GPIO Port
 723:Drivers/STM32L1xx_HAL_Driver/Inc/stm32l1xx_ll_gpio.h ****   * @param  PinMask This parameter can be a combination of the following values:
 724:Drivers/STM32L1xx_HAL_Driver/Inc/stm32l1xx_ll_gpio.h ****   *         @arg @ref LL_GPIO_PIN_0
 725:Drivers/STM32L1xx_HAL_Driver/Inc/stm32l1xx_ll_gpio.h ****   *         @arg @ref LL_GPIO_PIN_1
 726:Drivers/STM32L1xx_HAL_Driver/Inc/stm32l1xx_ll_gpio.h ****   *         @arg @ref LL_GPIO_PIN_2
 727:Drivers/STM32L1xx_HAL_Driver/Inc/stm32l1xx_ll_gpio.h ****   *         @arg @ref LL_GPIO_PIN_3
 728:Drivers/STM32L1xx_HAL_Driver/Inc/stm32l1xx_ll_gpio.h ****   *         @arg @ref LL_GPIO_PIN_4
 729:Drivers/STM32L1xx_HAL_Driver/Inc/stm32l1xx_ll_gpio.h ****   *         @arg @ref LL_GPIO_PIN_5
 730:Drivers/STM32L1xx_HAL_Driver/Inc/stm32l1xx_ll_gpio.h ****   *         @arg @ref LL_GPIO_PIN_6
 731:Drivers/STM32L1xx_HAL_Driver/Inc/stm32l1xx_ll_gpio.h ****   *         @arg @ref LL_GPIO_PIN_7
 732:Drivers/STM32L1xx_HAL_Driver/Inc/stm32l1xx_ll_gpio.h ****   *         @arg @ref LL_GPIO_PIN_8
 733:Drivers/STM32L1xx_HAL_Driver/Inc/stm32l1xx_ll_gpio.h ****   *         @arg @ref LL_GPIO_PIN_9
ARM GAS  C:\Users\domen\AppData\Local\Temp\ccgakVxa.s 			page 21


 734:Drivers/STM32L1xx_HAL_Driver/Inc/stm32l1xx_ll_gpio.h ****   *         @arg @ref LL_GPIO_PIN_10
 735:Drivers/STM32L1xx_HAL_Driver/Inc/stm32l1xx_ll_gpio.h ****   *         @arg @ref LL_GPIO_PIN_11
 736:Drivers/STM32L1xx_HAL_Driver/Inc/stm32l1xx_ll_gpio.h ****   *         @arg @ref LL_GPIO_PIN_12
 737:Drivers/STM32L1xx_HAL_Driver/Inc/stm32l1xx_ll_gpio.h ****   *         @arg @ref LL_GPIO_PIN_13
 738:Drivers/STM32L1xx_HAL_Driver/Inc/stm32l1xx_ll_gpio.h ****   *         @arg @ref LL_GPIO_PIN_14
 739:Drivers/STM32L1xx_HAL_Driver/Inc/stm32l1xx_ll_gpio.h ****   *         @arg @ref LL_GPIO_PIN_15
 740:Drivers/STM32L1xx_HAL_Driver/Inc/stm32l1xx_ll_gpio.h ****   *         @arg @ref LL_GPIO_PIN_ALL
 741:Drivers/STM32L1xx_HAL_Driver/Inc/stm32l1xx_ll_gpio.h ****   * @retval State of bit (1 or 0).
 742:Drivers/STM32L1xx_HAL_Driver/Inc/stm32l1xx_ll_gpio.h ****   */
 743:Drivers/STM32L1xx_HAL_Driver/Inc/stm32l1xx_ll_gpio.h **** __STATIC_INLINE uint32_t LL_GPIO_IsPinLocked(GPIO_TypeDef *GPIOx, uint32_t PinMask)
 744:Drivers/STM32L1xx_HAL_Driver/Inc/stm32l1xx_ll_gpio.h **** {
 745:Drivers/STM32L1xx_HAL_Driver/Inc/stm32l1xx_ll_gpio.h ****   return (READ_BIT(GPIOx->LCKR, PinMask) == (PinMask));
 746:Drivers/STM32L1xx_HAL_Driver/Inc/stm32l1xx_ll_gpio.h **** }
 747:Drivers/STM32L1xx_HAL_Driver/Inc/stm32l1xx_ll_gpio.h **** 
 748:Drivers/STM32L1xx_HAL_Driver/Inc/stm32l1xx_ll_gpio.h **** /**
 749:Drivers/STM32L1xx_HAL_Driver/Inc/stm32l1xx_ll_gpio.h ****   * @brief  Return 1 if one of the pin of a dedicated port is locked. else return 0.
 750:Drivers/STM32L1xx_HAL_Driver/Inc/stm32l1xx_ll_gpio.h ****   * @rmtoll LCKR         LCKK          LL_GPIO_IsAnyPinLocked
 751:Drivers/STM32L1xx_HAL_Driver/Inc/stm32l1xx_ll_gpio.h ****   * @param  GPIOx GPIO Port
 752:Drivers/STM32L1xx_HAL_Driver/Inc/stm32l1xx_ll_gpio.h ****   * @retval State of bit (1 or 0).
 753:Drivers/STM32L1xx_HAL_Driver/Inc/stm32l1xx_ll_gpio.h ****   */
 754:Drivers/STM32L1xx_HAL_Driver/Inc/stm32l1xx_ll_gpio.h **** __STATIC_INLINE uint32_t LL_GPIO_IsAnyPinLocked(GPIO_TypeDef *GPIOx)
 755:Drivers/STM32L1xx_HAL_Driver/Inc/stm32l1xx_ll_gpio.h **** {
 756:Drivers/STM32L1xx_HAL_Driver/Inc/stm32l1xx_ll_gpio.h ****   return (READ_BIT(GPIOx->LCKR, GPIO_LCKR_LCKK) == (GPIO_LCKR_LCKK));
 757:Drivers/STM32L1xx_HAL_Driver/Inc/stm32l1xx_ll_gpio.h **** }
 758:Drivers/STM32L1xx_HAL_Driver/Inc/stm32l1xx_ll_gpio.h **** 
 759:Drivers/STM32L1xx_HAL_Driver/Inc/stm32l1xx_ll_gpio.h **** /**
 760:Drivers/STM32L1xx_HAL_Driver/Inc/stm32l1xx_ll_gpio.h ****   * @}
 761:Drivers/STM32L1xx_HAL_Driver/Inc/stm32l1xx_ll_gpio.h ****   */
 762:Drivers/STM32L1xx_HAL_Driver/Inc/stm32l1xx_ll_gpio.h **** 
 763:Drivers/STM32L1xx_HAL_Driver/Inc/stm32l1xx_ll_gpio.h **** /** @defgroup GPIO_LL_EF_Data_Access Data Access
 764:Drivers/STM32L1xx_HAL_Driver/Inc/stm32l1xx_ll_gpio.h ****   * @{
 765:Drivers/STM32L1xx_HAL_Driver/Inc/stm32l1xx_ll_gpio.h ****   */
 766:Drivers/STM32L1xx_HAL_Driver/Inc/stm32l1xx_ll_gpio.h **** 
 767:Drivers/STM32L1xx_HAL_Driver/Inc/stm32l1xx_ll_gpio.h **** /**
 768:Drivers/STM32L1xx_HAL_Driver/Inc/stm32l1xx_ll_gpio.h ****   * @brief  Return full input data register value for a dedicated port.
 769:Drivers/STM32L1xx_HAL_Driver/Inc/stm32l1xx_ll_gpio.h ****   * @rmtoll IDR          IDy           LL_GPIO_ReadInputPort
 770:Drivers/STM32L1xx_HAL_Driver/Inc/stm32l1xx_ll_gpio.h ****   * @param  GPIOx GPIO Port
 771:Drivers/STM32L1xx_HAL_Driver/Inc/stm32l1xx_ll_gpio.h ****   * @retval Input data register value of port
 772:Drivers/STM32L1xx_HAL_Driver/Inc/stm32l1xx_ll_gpio.h ****   */
 773:Drivers/STM32L1xx_HAL_Driver/Inc/stm32l1xx_ll_gpio.h **** __STATIC_INLINE uint32_t LL_GPIO_ReadInputPort(GPIO_TypeDef *GPIOx)
 774:Drivers/STM32L1xx_HAL_Driver/Inc/stm32l1xx_ll_gpio.h **** {
 775:Drivers/STM32L1xx_HAL_Driver/Inc/stm32l1xx_ll_gpio.h ****   return (uint32_t)(READ_REG(GPIOx->IDR));
 776:Drivers/STM32L1xx_HAL_Driver/Inc/stm32l1xx_ll_gpio.h **** }
 777:Drivers/STM32L1xx_HAL_Driver/Inc/stm32l1xx_ll_gpio.h **** 
 778:Drivers/STM32L1xx_HAL_Driver/Inc/stm32l1xx_ll_gpio.h **** /**
 779:Drivers/STM32L1xx_HAL_Driver/Inc/stm32l1xx_ll_gpio.h ****   * @brief  Return if input data level for several pins of dedicated port is high or low.
 780:Drivers/STM32L1xx_HAL_Driver/Inc/stm32l1xx_ll_gpio.h ****   * @rmtoll IDR          IDy           LL_GPIO_IsInputPinSet
 781:Drivers/STM32L1xx_HAL_Driver/Inc/stm32l1xx_ll_gpio.h ****   * @param  GPIOx GPIO Port
 782:Drivers/STM32L1xx_HAL_Driver/Inc/stm32l1xx_ll_gpio.h ****   * @param  PinMask This parameter can be a combination of the following values:
 783:Drivers/STM32L1xx_HAL_Driver/Inc/stm32l1xx_ll_gpio.h ****   *         @arg @ref LL_GPIO_PIN_0
 784:Drivers/STM32L1xx_HAL_Driver/Inc/stm32l1xx_ll_gpio.h ****   *         @arg @ref LL_GPIO_PIN_1
 785:Drivers/STM32L1xx_HAL_Driver/Inc/stm32l1xx_ll_gpio.h ****   *         @arg @ref LL_GPIO_PIN_2
 786:Drivers/STM32L1xx_HAL_Driver/Inc/stm32l1xx_ll_gpio.h ****   *         @arg @ref LL_GPIO_PIN_3
 787:Drivers/STM32L1xx_HAL_Driver/Inc/stm32l1xx_ll_gpio.h ****   *         @arg @ref LL_GPIO_PIN_4
 788:Drivers/STM32L1xx_HAL_Driver/Inc/stm32l1xx_ll_gpio.h ****   *         @arg @ref LL_GPIO_PIN_5
 789:Drivers/STM32L1xx_HAL_Driver/Inc/stm32l1xx_ll_gpio.h ****   *         @arg @ref LL_GPIO_PIN_6
 790:Drivers/STM32L1xx_HAL_Driver/Inc/stm32l1xx_ll_gpio.h ****   *         @arg @ref LL_GPIO_PIN_7
ARM GAS  C:\Users\domen\AppData\Local\Temp\ccgakVxa.s 			page 22


 791:Drivers/STM32L1xx_HAL_Driver/Inc/stm32l1xx_ll_gpio.h ****   *         @arg @ref LL_GPIO_PIN_8
 792:Drivers/STM32L1xx_HAL_Driver/Inc/stm32l1xx_ll_gpio.h ****   *         @arg @ref LL_GPIO_PIN_9
 793:Drivers/STM32L1xx_HAL_Driver/Inc/stm32l1xx_ll_gpio.h ****   *         @arg @ref LL_GPIO_PIN_10
 794:Drivers/STM32L1xx_HAL_Driver/Inc/stm32l1xx_ll_gpio.h ****   *         @arg @ref LL_GPIO_PIN_11
 795:Drivers/STM32L1xx_HAL_Driver/Inc/stm32l1xx_ll_gpio.h ****   *         @arg @ref LL_GPIO_PIN_12
 796:Drivers/STM32L1xx_HAL_Driver/Inc/stm32l1xx_ll_gpio.h ****   *         @arg @ref LL_GPIO_PIN_13
 797:Drivers/STM32L1xx_HAL_Driver/Inc/stm32l1xx_ll_gpio.h ****   *         @arg @ref LL_GPIO_PIN_14
 798:Drivers/STM32L1xx_HAL_Driver/Inc/stm32l1xx_ll_gpio.h ****   *         @arg @ref LL_GPIO_PIN_15
 799:Drivers/STM32L1xx_HAL_Driver/Inc/stm32l1xx_ll_gpio.h ****   *         @arg @ref LL_GPIO_PIN_ALL
 800:Drivers/STM32L1xx_HAL_Driver/Inc/stm32l1xx_ll_gpio.h ****   * @retval State of bit (1 or 0).
 801:Drivers/STM32L1xx_HAL_Driver/Inc/stm32l1xx_ll_gpio.h ****   */
 802:Drivers/STM32L1xx_HAL_Driver/Inc/stm32l1xx_ll_gpio.h **** __STATIC_INLINE uint32_t LL_GPIO_IsInputPinSet(GPIO_TypeDef *GPIOx, uint32_t PinMask)
 803:Drivers/STM32L1xx_HAL_Driver/Inc/stm32l1xx_ll_gpio.h **** {
 804:Drivers/STM32L1xx_HAL_Driver/Inc/stm32l1xx_ll_gpio.h ****   return (READ_BIT(GPIOx->IDR, PinMask) == (PinMask));
 805:Drivers/STM32L1xx_HAL_Driver/Inc/stm32l1xx_ll_gpio.h **** }
 806:Drivers/STM32L1xx_HAL_Driver/Inc/stm32l1xx_ll_gpio.h **** 
 807:Drivers/STM32L1xx_HAL_Driver/Inc/stm32l1xx_ll_gpio.h **** /**
 808:Drivers/STM32L1xx_HAL_Driver/Inc/stm32l1xx_ll_gpio.h ****   * @brief  Write output data register for the port.
 809:Drivers/STM32L1xx_HAL_Driver/Inc/stm32l1xx_ll_gpio.h ****   * @rmtoll ODR          ODy           LL_GPIO_WriteOutputPort
 810:Drivers/STM32L1xx_HAL_Driver/Inc/stm32l1xx_ll_gpio.h ****   * @param  GPIOx GPIO Port
 811:Drivers/STM32L1xx_HAL_Driver/Inc/stm32l1xx_ll_gpio.h ****   * @param  PortValue Level value for each pin of the port
 812:Drivers/STM32L1xx_HAL_Driver/Inc/stm32l1xx_ll_gpio.h ****   * @retval None
 813:Drivers/STM32L1xx_HAL_Driver/Inc/stm32l1xx_ll_gpio.h ****   */
 814:Drivers/STM32L1xx_HAL_Driver/Inc/stm32l1xx_ll_gpio.h **** __STATIC_INLINE void LL_GPIO_WriteOutputPort(GPIO_TypeDef *GPIOx, uint32_t PortValue)
 815:Drivers/STM32L1xx_HAL_Driver/Inc/stm32l1xx_ll_gpio.h **** {
 816:Drivers/STM32L1xx_HAL_Driver/Inc/stm32l1xx_ll_gpio.h ****   WRITE_REG(GPIOx->ODR, PortValue);
 817:Drivers/STM32L1xx_HAL_Driver/Inc/stm32l1xx_ll_gpio.h **** }
 818:Drivers/STM32L1xx_HAL_Driver/Inc/stm32l1xx_ll_gpio.h **** 
 819:Drivers/STM32L1xx_HAL_Driver/Inc/stm32l1xx_ll_gpio.h **** /**
 820:Drivers/STM32L1xx_HAL_Driver/Inc/stm32l1xx_ll_gpio.h ****   * @brief  Return full output data register value for a dedicated port.
 821:Drivers/STM32L1xx_HAL_Driver/Inc/stm32l1xx_ll_gpio.h ****   * @rmtoll ODR          ODy           LL_GPIO_ReadOutputPort
 822:Drivers/STM32L1xx_HAL_Driver/Inc/stm32l1xx_ll_gpio.h ****   * @param  GPIOx GPIO Port
 823:Drivers/STM32L1xx_HAL_Driver/Inc/stm32l1xx_ll_gpio.h ****   * @retval Output data register value of port
 824:Drivers/STM32L1xx_HAL_Driver/Inc/stm32l1xx_ll_gpio.h ****   */
 825:Drivers/STM32L1xx_HAL_Driver/Inc/stm32l1xx_ll_gpio.h **** __STATIC_INLINE uint32_t LL_GPIO_ReadOutputPort(GPIO_TypeDef *GPIOx)
 826:Drivers/STM32L1xx_HAL_Driver/Inc/stm32l1xx_ll_gpio.h **** {
 827:Drivers/STM32L1xx_HAL_Driver/Inc/stm32l1xx_ll_gpio.h ****   return (uint32_t)(READ_REG(GPIOx->ODR));
 828:Drivers/STM32L1xx_HAL_Driver/Inc/stm32l1xx_ll_gpio.h **** }
 829:Drivers/STM32L1xx_HAL_Driver/Inc/stm32l1xx_ll_gpio.h **** 
 830:Drivers/STM32L1xx_HAL_Driver/Inc/stm32l1xx_ll_gpio.h **** /**
 831:Drivers/STM32L1xx_HAL_Driver/Inc/stm32l1xx_ll_gpio.h ****   * @brief  Return if input data level for several pins of dedicated port is high or low.
 832:Drivers/STM32L1xx_HAL_Driver/Inc/stm32l1xx_ll_gpio.h ****   * @rmtoll ODR          ODy           LL_GPIO_IsOutputPinSet
 833:Drivers/STM32L1xx_HAL_Driver/Inc/stm32l1xx_ll_gpio.h ****   * @param  GPIOx GPIO Port
 834:Drivers/STM32L1xx_HAL_Driver/Inc/stm32l1xx_ll_gpio.h ****   * @param  PinMask This parameter can be a combination of the following values:
 835:Drivers/STM32L1xx_HAL_Driver/Inc/stm32l1xx_ll_gpio.h ****   *         @arg @ref LL_GPIO_PIN_0
 836:Drivers/STM32L1xx_HAL_Driver/Inc/stm32l1xx_ll_gpio.h ****   *         @arg @ref LL_GPIO_PIN_1
 837:Drivers/STM32L1xx_HAL_Driver/Inc/stm32l1xx_ll_gpio.h ****   *         @arg @ref LL_GPIO_PIN_2
 838:Drivers/STM32L1xx_HAL_Driver/Inc/stm32l1xx_ll_gpio.h ****   *         @arg @ref LL_GPIO_PIN_3
 839:Drivers/STM32L1xx_HAL_Driver/Inc/stm32l1xx_ll_gpio.h ****   *         @arg @ref LL_GPIO_PIN_4
 840:Drivers/STM32L1xx_HAL_Driver/Inc/stm32l1xx_ll_gpio.h ****   *         @arg @ref LL_GPIO_PIN_5
 841:Drivers/STM32L1xx_HAL_Driver/Inc/stm32l1xx_ll_gpio.h ****   *         @arg @ref LL_GPIO_PIN_6
 842:Drivers/STM32L1xx_HAL_Driver/Inc/stm32l1xx_ll_gpio.h ****   *         @arg @ref LL_GPIO_PIN_7
 843:Drivers/STM32L1xx_HAL_Driver/Inc/stm32l1xx_ll_gpio.h ****   *         @arg @ref LL_GPIO_PIN_8
 844:Drivers/STM32L1xx_HAL_Driver/Inc/stm32l1xx_ll_gpio.h ****   *         @arg @ref LL_GPIO_PIN_9
 845:Drivers/STM32L1xx_HAL_Driver/Inc/stm32l1xx_ll_gpio.h ****   *         @arg @ref LL_GPIO_PIN_10
 846:Drivers/STM32L1xx_HAL_Driver/Inc/stm32l1xx_ll_gpio.h ****   *         @arg @ref LL_GPIO_PIN_11
 847:Drivers/STM32L1xx_HAL_Driver/Inc/stm32l1xx_ll_gpio.h ****   *         @arg @ref LL_GPIO_PIN_12
ARM GAS  C:\Users\domen\AppData\Local\Temp\ccgakVxa.s 			page 23


 848:Drivers/STM32L1xx_HAL_Driver/Inc/stm32l1xx_ll_gpio.h ****   *         @arg @ref LL_GPIO_PIN_13
 849:Drivers/STM32L1xx_HAL_Driver/Inc/stm32l1xx_ll_gpio.h ****   *         @arg @ref LL_GPIO_PIN_14
 850:Drivers/STM32L1xx_HAL_Driver/Inc/stm32l1xx_ll_gpio.h ****   *         @arg @ref LL_GPIO_PIN_15
 851:Drivers/STM32L1xx_HAL_Driver/Inc/stm32l1xx_ll_gpio.h ****   *         @arg @ref LL_GPIO_PIN_ALL
 852:Drivers/STM32L1xx_HAL_Driver/Inc/stm32l1xx_ll_gpio.h ****   * @retval State of bit (1 or 0).
 853:Drivers/STM32L1xx_HAL_Driver/Inc/stm32l1xx_ll_gpio.h ****   */
 854:Drivers/STM32L1xx_HAL_Driver/Inc/stm32l1xx_ll_gpio.h **** __STATIC_INLINE uint32_t LL_GPIO_IsOutputPinSet(GPIO_TypeDef *GPIOx, uint32_t PinMask)
 855:Drivers/STM32L1xx_HAL_Driver/Inc/stm32l1xx_ll_gpio.h **** {
 856:Drivers/STM32L1xx_HAL_Driver/Inc/stm32l1xx_ll_gpio.h ****   return (READ_BIT(GPIOx->ODR, PinMask) == (PinMask));
 857:Drivers/STM32L1xx_HAL_Driver/Inc/stm32l1xx_ll_gpio.h **** }
 858:Drivers/STM32L1xx_HAL_Driver/Inc/stm32l1xx_ll_gpio.h **** 
 859:Drivers/STM32L1xx_HAL_Driver/Inc/stm32l1xx_ll_gpio.h **** /**
 860:Drivers/STM32L1xx_HAL_Driver/Inc/stm32l1xx_ll_gpio.h ****   * @brief  Set several pins to high level on dedicated gpio port.
 861:Drivers/STM32L1xx_HAL_Driver/Inc/stm32l1xx_ll_gpio.h ****   * @rmtoll BSRR         BSy           LL_GPIO_SetOutputPin
 862:Drivers/STM32L1xx_HAL_Driver/Inc/stm32l1xx_ll_gpio.h ****   * @param  GPIOx GPIO Port
 863:Drivers/STM32L1xx_HAL_Driver/Inc/stm32l1xx_ll_gpio.h ****   * @param  PinMask This parameter can be a combination of the following values:
 864:Drivers/STM32L1xx_HAL_Driver/Inc/stm32l1xx_ll_gpio.h ****   *         @arg @ref LL_GPIO_PIN_0
 865:Drivers/STM32L1xx_HAL_Driver/Inc/stm32l1xx_ll_gpio.h ****   *         @arg @ref LL_GPIO_PIN_1
 866:Drivers/STM32L1xx_HAL_Driver/Inc/stm32l1xx_ll_gpio.h ****   *         @arg @ref LL_GPIO_PIN_2
 867:Drivers/STM32L1xx_HAL_Driver/Inc/stm32l1xx_ll_gpio.h ****   *         @arg @ref LL_GPIO_PIN_3
 868:Drivers/STM32L1xx_HAL_Driver/Inc/stm32l1xx_ll_gpio.h ****   *         @arg @ref LL_GPIO_PIN_4
 869:Drivers/STM32L1xx_HAL_Driver/Inc/stm32l1xx_ll_gpio.h ****   *         @arg @ref LL_GPIO_PIN_5
 870:Drivers/STM32L1xx_HAL_Driver/Inc/stm32l1xx_ll_gpio.h ****   *         @arg @ref LL_GPIO_PIN_6
 871:Drivers/STM32L1xx_HAL_Driver/Inc/stm32l1xx_ll_gpio.h ****   *         @arg @ref LL_GPIO_PIN_7
 872:Drivers/STM32L1xx_HAL_Driver/Inc/stm32l1xx_ll_gpio.h ****   *         @arg @ref LL_GPIO_PIN_8
 873:Drivers/STM32L1xx_HAL_Driver/Inc/stm32l1xx_ll_gpio.h ****   *         @arg @ref LL_GPIO_PIN_9
 874:Drivers/STM32L1xx_HAL_Driver/Inc/stm32l1xx_ll_gpio.h ****   *         @arg @ref LL_GPIO_PIN_10
 875:Drivers/STM32L1xx_HAL_Driver/Inc/stm32l1xx_ll_gpio.h ****   *         @arg @ref LL_GPIO_PIN_11
 876:Drivers/STM32L1xx_HAL_Driver/Inc/stm32l1xx_ll_gpio.h ****   *         @arg @ref LL_GPIO_PIN_12
 877:Drivers/STM32L1xx_HAL_Driver/Inc/stm32l1xx_ll_gpio.h ****   *         @arg @ref LL_GPIO_PIN_13
 878:Drivers/STM32L1xx_HAL_Driver/Inc/stm32l1xx_ll_gpio.h ****   *         @arg @ref LL_GPIO_PIN_14
 879:Drivers/STM32L1xx_HAL_Driver/Inc/stm32l1xx_ll_gpio.h ****   *         @arg @ref LL_GPIO_PIN_15
 880:Drivers/STM32L1xx_HAL_Driver/Inc/stm32l1xx_ll_gpio.h ****   *         @arg @ref LL_GPIO_PIN_ALL
 881:Drivers/STM32L1xx_HAL_Driver/Inc/stm32l1xx_ll_gpio.h ****   * @retval None
 882:Drivers/STM32L1xx_HAL_Driver/Inc/stm32l1xx_ll_gpio.h ****   */
 883:Drivers/STM32L1xx_HAL_Driver/Inc/stm32l1xx_ll_gpio.h **** __STATIC_INLINE void LL_GPIO_SetOutputPin(GPIO_TypeDef *GPIOx, uint32_t PinMask)
 884:Drivers/STM32L1xx_HAL_Driver/Inc/stm32l1xx_ll_gpio.h **** {
 885:Drivers/STM32L1xx_HAL_Driver/Inc/stm32l1xx_ll_gpio.h ****   WRITE_REG(GPIOx->BSRR, PinMask);
 886:Drivers/STM32L1xx_HAL_Driver/Inc/stm32l1xx_ll_gpio.h **** }
 887:Drivers/STM32L1xx_HAL_Driver/Inc/stm32l1xx_ll_gpio.h **** 
 888:Drivers/STM32L1xx_HAL_Driver/Inc/stm32l1xx_ll_gpio.h **** /**
 889:Drivers/STM32L1xx_HAL_Driver/Inc/stm32l1xx_ll_gpio.h ****   * @brief  Set several pins to low level on dedicated gpio port.
 890:Drivers/STM32L1xx_HAL_Driver/Inc/stm32l1xx_ll_gpio.h ****   * @rmtoll BRR          BRy           LL_GPIO_ResetOutputPin\n
 891:Drivers/STM32L1xx_HAL_Driver/Inc/stm32l1xx_ll_gpio.h ****   * @rmtoll BSRR         BRy           LL_GPIO_ResetOutputPin
 892:Drivers/STM32L1xx_HAL_Driver/Inc/stm32l1xx_ll_gpio.h ****   * @param  GPIOx GPIO Port
 893:Drivers/STM32L1xx_HAL_Driver/Inc/stm32l1xx_ll_gpio.h ****   * @param  PinMask This parameter can be a combination of the following values:
 894:Drivers/STM32L1xx_HAL_Driver/Inc/stm32l1xx_ll_gpio.h ****   *         @arg @ref LL_GPIO_PIN_0
 895:Drivers/STM32L1xx_HAL_Driver/Inc/stm32l1xx_ll_gpio.h ****   *         @arg @ref LL_GPIO_PIN_1
 896:Drivers/STM32L1xx_HAL_Driver/Inc/stm32l1xx_ll_gpio.h ****   *         @arg @ref LL_GPIO_PIN_2
 897:Drivers/STM32L1xx_HAL_Driver/Inc/stm32l1xx_ll_gpio.h ****   *         @arg @ref LL_GPIO_PIN_3
 898:Drivers/STM32L1xx_HAL_Driver/Inc/stm32l1xx_ll_gpio.h ****   *         @arg @ref LL_GPIO_PIN_4
 899:Drivers/STM32L1xx_HAL_Driver/Inc/stm32l1xx_ll_gpio.h ****   *         @arg @ref LL_GPIO_PIN_5
 900:Drivers/STM32L1xx_HAL_Driver/Inc/stm32l1xx_ll_gpio.h ****   *         @arg @ref LL_GPIO_PIN_6
 901:Drivers/STM32L1xx_HAL_Driver/Inc/stm32l1xx_ll_gpio.h ****   *         @arg @ref LL_GPIO_PIN_7
 902:Drivers/STM32L1xx_HAL_Driver/Inc/stm32l1xx_ll_gpio.h ****   *         @arg @ref LL_GPIO_PIN_8
 903:Drivers/STM32L1xx_HAL_Driver/Inc/stm32l1xx_ll_gpio.h ****   *         @arg @ref LL_GPIO_PIN_9
 904:Drivers/STM32L1xx_HAL_Driver/Inc/stm32l1xx_ll_gpio.h ****   *         @arg @ref LL_GPIO_PIN_10
ARM GAS  C:\Users\domen\AppData\Local\Temp\ccgakVxa.s 			page 24


 905:Drivers/STM32L1xx_HAL_Driver/Inc/stm32l1xx_ll_gpio.h ****   *         @arg @ref LL_GPIO_PIN_11
 906:Drivers/STM32L1xx_HAL_Driver/Inc/stm32l1xx_ll_gpio.h ****   *         @arg @ref LL_GPIO_PIN_12
 907:Drivers/STM32L1xx_HAL_Driver/Inc/stm32l1xx_ll_gpio.h ****   *         @arg @ref LL_GPIO_PIN_13
 908:Drivers/STM32L1xx_HAL_Driver/Inc/stm32l1xx_ll_gpio.h ****   *         @arg @ref LL_GPIO_PIN_14
 909:Drivers/STM32L1xx_HAL_Driver/Inc/stm32l1xx_ll_gpio.h ****   *         @arg @ref LL_GPIO_PIN_15
 910:Drivers/STM32L1xx_HAL_Driver/Inc/stm32l1xx_ll_gpio.h ****   *         @arg @ref LL_GPIO_PIN_ALL
 911:Drivers/STM32L1xx_HAL_Driver/Inc/stm32l1xx_ll_gpio.h ****   * @retval None
 912:Drivers/STM32L1xx_HAL_Driver/Inc/stm32l1xx_ll_gpio.h ****   */
 913:Drivers/STM32L1xx_HAL_Driver/Inc/stm32l1xx_ll_gpio.h **** __STATIC_INLINE void LL_GPIO_ResetOutputPin(GPIO_TypeDef *GPIOx, uint32_t PinMask)
 127              		.loc 3 913 22 view .LVU33
 128              	.LBB53:
 914:Drivers/STM32L1xx_HAL_Driver/Inc/stm32l1xx_ll_gpio.h **** {
 915:Drivers/STM32L1xx_HAL_Driver/Inc/stm32l1xx_ll_gpio.h **** #if defined(GPIO_BRR_BR_0)
 916:Drivers/STM32L1xx_HAL_Driver/Inc/stm32l1xx_ll_gpio.h ****   WRITE_REG(GPIOx->BRR, PinMask);
 129              		.loc 3 916 3 view .LVU34
 130 004a DFF87491 		ldr	r9, .L5+16
 131 004e 0723     		movs	r3, #7
 132 0050 C9F82830 		str	r3, [r9, #40]
 133              	.LVL4:
 134              		.loc 3 916 3 is_stmt 0 view .LVU35
 135              	.LBE53:
 136              	.LBE52:
  49:Core/Src/gpio.c **** 
  50:Core/Src/gpio.c ****   /**/
  51:Core/Src/gpio.c ****   LL_GPIO_ResetOutputPin(GPIOC, LD5_Pin|LD4_Pin|LD3_Pin|BT_PWR_Pin);
 137              		.loc 1 51 3 is_stmt 1 view .LVU36
 138              	.LBB54:
 139              	.LBI54:
 913:Drivers/STM32L1xx_HAL_Driver/Inc/stm32l1xx_ll_gpio.h **** {
 140              		.loc 3 913 22 view .LVU37
 141              	.LBB55:
 142              		.loc 3 916 3 view .LVU38
 143 0054 DFF86C81 		ldr	r8, .L5+20
 144 0058 4FF49C53 		mov	r3, #4992
 145 005c C8F82830 		str	r3, [r8, #40]
 146              	.LVL5:
 147              		.loc 3 916 3 is_stmt 0 view .LVU39
 148              	.LBE55:
 149              	.LBE54:
  52:Core/Src/gpio.c **** 
  53:Core/Src/gpio.c ****   /**/
  54:Core/Src/gpio.c ****   GPIO_InitStruct.Pin = PLAY_PAUSE_Pin;
 150              		.loc 1 54 3 is_stmt 1 view .LVU40
 151              		.loc 1 54 23 is_stmt 0 view .LVU41
 152 0060 0125     		movs	r5, #1
 153 0062 0495     		str	r5, [sp, #16]
  55:Core/Src/gpio.c ****   GPIO_InitStruct.Mode = LL_GPIO_MODE_OUTPUT;
 154              		.loc 1 55 3 is_stmt 1 view .LVU42
 155              		.loc 1 55 24 is_stmt 0 view .LVU43
 156 0064 0595     		str	r5, [sp, #20]
  56:Core/Src/gpio.c ****   GPIO_InitStruct.Speed = LL_GPIO_SPEED_FREQ_HIGH;
 157              		.loc 1 56 3 is_stmt 1 view .LVU44
 158              		.loc 1 56 25 is_stmt 0 view .LVU45
 159 0066 0226     		movs	r6, #2
 160 0068 0696     		str	r6, [sp, #24]
  57:Core/Src/gpio.c ****   GPIO_InitStruct.OutputType = LL_GPIO_OUTPUT_PUSHPULL;
 161              		.loc 1 57 3 is_stmt 1 view .LVU46
ARM GAS  C:\Users\domen\AppData\Local\Temp\ccgakVxa.s 			page 25


  58:Core/Src/gpio.c ****   GPIO_InitStruct.Pull = LL_GPIO_PULL_NO;
 162              		.loc 1 58 3 view .LVU47
  59:Core/Src/gpio.c ****   LL_GPIO_Init(PLAY_PAUSE_GPIO_Port, &GPIO_InitStruct);
 163              		.loc 1 59 3 view .LVU48
 164 006a 04A9     		add	r1, sp, #16
 165 006c 4846     		mov	r0, r9
 166 006e FFF7FEFF 		bl	LL_GPIO_Init
 167              	.LVL6:
  60:Core/Src/gpio.c **** 
  61:Core/Src/gpio.c ****   /**/
  62:Core/Src/gpio.c ****   GPIO_InitStruct.Pin = NEXT_Pin;
 168              		.loc 1 62 3 view .LVU49
 169              		.loc 1 62 23 is_stmt 0 view .LVU50
 170 0072 0496     		str	r6, [sp, #16]
  63:Core/Src/gpio.c ****   GPIO_InitStruct.Mode = LL_GPIO_MODE_OUTPUT;
 171              		.loc 1 63 3 is_stmt 1 view .LVU51
 172              		.loc 1 63 24 is_stmt 0 view .LVU52
 173 0074 0595     		str	r5, [sp, #20]
  64:Core/Src/gpio.c ****   GPIO_InitStruct.Speed = LL_GPIO_SPEED_FREQ_HIGH;
 174              		.loc 1 64 3 is_stmt 1 view .LVU53
 175              		.loc 1 64 25 is_stmt 0 view .LVU54
 176 0076 0696     		str	r6, [sp, #24]
  65:Core/Src/gpio.c ****   GPIO_InitStruct.OutputType = LL_GPIO_OUTPUT_PUSHPULL;
 177              		.loc 1 65 3 is_stmt 1 view .LVU55
 178              		.loc 1 65 30 is_stmt 0 view .LVU56
 179 0078 0794     		str	r4, [sp, #28]
  66:Core/Src/gpio.c ****   GPIO_InitStruct.Pull = LL_GPIO_PULL_NO;
 180              		.loc 1 66 3 is_stmt 1 view .LVU57
 181              		.loc 1 66 24 is_stmt 0 view .LVU58
 182 007a 0894     		str	r4, [sp, #32]
  67:Core/Src/gpio.c ****   LL_GPIO_Init(NEXT_GPIO_Port, &GPIO_InitStruct);
 183              		.loc 1 67 3 is_stmt 1 view .LVU59
 184 007c 04A9     		add	r1, sp, #16
 185 007e 4846     		mov	r0, r9
 186 0080 FFF7FEFF 		bl	LL_GPIO_Init
 187              	.LVL7:
  68:Core/Src/gpio.c **** 
  69:Core/Src/gpio.c ****   /**/
  70:Core/Src/gpio.c ****   GPIO_InitStruct.Pin = PREV_Pin;
 188              		.loc 1 70 3 view .LVU60
 189              		.loc 1 70 23 is_stmt 0 view .LVU61
 190 0084 0423     		movs	r3, #4
 191 0086 0493     		str	r3, [sp, #16]
  71:Core/Src/gpio.c ****   GPIO_InitStruct.Mode = LL_GPIO_MODE_OUTPUT;
 192              		.loc 1 71 3 is_stmt 1 view .LVU62
 193              		.loc 1 71 24 is_stmt 0 view .LVU63
 194 0088 0595     		str	r5, [sp, #20]
  72:Core/Src/gpio.c ****   GPIO_InitStruct.Speed = LL_GPIO_SPEED_FREQ_HIGH;
 195              		.loc 1 72 3 is_stmt 1 view .LVU64
 196              		.loc 1 72 25 is_stmt 0 view .LVU65
 197 008a 0696     		str	r6, [sp, #24]
  73:Core/Src/gpio.c ****   GPIO_InitStruct.OutputType = LL_GPIO_OUTPUT_PUSHPULL;
 198              		.loc 1 73 3 is_stmt 1 view .LVU66
 199              		.loc 1 73 30 is_stmt 0 view .LVU67
 200 008c 0794     		str	r4, [sp, #28]
  74:Core/Src/gpio.c ****   GPIO_InitStruct.Pull = LL_GPIO_PULL_NO;
 201              		.loc 1 74 3 is_stmt 1 view .LVU68
ARM GAS  C:\Users\domen\AppData\Local\Temp\ccgakVxa.s 			page 26


 202              		.loc 1 74 24 is_stmt 0 view .LVU69
 203 008e 0894     		str	r4, [sp, #32]
  75:Core/Src/gpio.c ****   LL_GPIO_Init(PREV_GPIO_Port, &GPIO_InitStruct);
 204              		.loc 1 75 3 is_stmt 1 view .LVU70
 205 0090 04A9     		add	r1, sp, #16
 206 0092 4846     		mov	r0, r9
 207 0094 FFF7FEFF 		bl	LL_GPIO_Init
 208              	.LVL8:
  76:Core/Src/gpio.c **** 
  77:Core/Src/gpio.c ****   /**/
  78:Core/Src/gpio.c ****   GPIO_InitStruct.Pin = LD5_Pin;
 209              		.loc 1 78 3 view .LVU71
 210              		.loc 1 78 23 is_stmt 0 view .LVU72
 211 0098 8023     		movs	r3, #128
 212 009a 0493     		str	r3, [sp, #16]
  79:Core/Src/gpio.c ****   GPIO_InitStruct.Mode = LL_GPIO_MODE_OUTPUT;
 213              		.loc 1 79 3 is_stmt 1 view .LVU73
 214              		.loc 1 79 24 is_stmt 0 view .LVU74
 215 009c 0595     		str	r5, [sp, #20]
  80:Core/Src/gpio.c ****   GPIO_InitStruct.Speed = LL_GPIO_SPEED_FREQ_HIGH;
 216              		.loc 1 80 3 is_stmt 1 view .LVU75
 217              		.loc 1 80 25 is_stmt 0 view .LVU76
 218 009e 0696     		str	r6, [sp, #24]
  81:Core/Src/gpio.c ****   GPIO_InitStruct.OutputType = LL_GPIO_OUTPUT_PUSHPULL;
 219              		.loc 1 81 3 is_stmt 1 view .LVU77
 220              		.loc 1 81 30 is_stmt 0 view .LVU78
 221 00a0 0794     		str	r4, [sp, #28]
  82:Core/Src/gpio.c ****   GPIO_InitStruct.Pull = LL_GPIO_PULL_NO;
 222              		.loc 1 82 3 is_stmt 1 view .LVU79
 223              		.loc 1 82 24 is_stmt 0 view .LVU80
 224 00a2 0894     		str	r4, [sp, #32]
  83:Core/Src/gpio.c ****   LL_GPIO_Init(LD5_GPIO_Port, &GPIO_InitStruct);
 225              		.loc 1 83 3 is_stmt 1 view .LVU81
 226 00a4 04A9     		add	r1, sp, #16
 227 00a6 4046     		mov	r0, r8
 228 00a8 FFF7FEFF 		bl	LL_GPIO_Init
 229              	.LVL9:
  84:Core/Src/gpio.c **** 
  85:Core/Src/gpio.c ****   /**/
  86:Core/Src/gpio.c ****   GPIO_InitStruct.Pin = LD4_Pin;
 230              		.loc 1 86 3 view .LVU82
 231              		.loc 1 86 23 is_stmt 0 view .LVU83
 232 00ac 4FF48077 		mov	r7, #256
 233 00b0 0497     		str	r7, [sp, #16]
  87:Core/Src/gpio.c ****   GPIO_InitStruct.Mode = LL_GPIO_MODE_OUTPUT;
 234              		.loc 1 87 3 is_stmt 1 view .LVU84
 235              		.loc 1 87 24 is_stmt 0 view .LVU85
 236 00b2 0595     		str	r5, [sp, #20]
  88:Core/Src/gpio.c ****   GPIO_InitStruct.Speed = LL_GPIO_SPEED_FREQ_HIGH;
 237              		.loc 1 88 3 is_stmt 1 view .LVU86
 238              		.loc 1 88 25 is_stmt 0 view .LVU87
 239 00b4 0696     		str	r6, [sp, #24]
  89:Core/Src/gpio.c ****   GPIO_InitStruct.OutputType = LL_GPIO_OUTPUT_PUSHPULL;
 240              		.loc 1 89 3 is_stmt 1 view .LVU88
 241              		.loc 1 89 30 is_stmt 0 view .LVU89
 242 00b6 0794     		str	r4, [sp, #28]
  90:Core/Src/gpio.c ****   GPIO_InitStruct.Pull = LL_GPIO_PULL_NO;
ARM GAS  C:\Users\domen\AppData\Local\Temp\ccgakVxa.s 			page 27


 243              		.loc 1 90 3 is_stmt 1 view .LVU90
 244              		.loc 1 90 24 is_stmt 0 view .LVU91
 245 00b8 0894     		str	r4, [sp, #32]
  91:Core/Src/gpio.c ****   LL_GPIO_Init(LD4_GPIO_Port, &GPIO_InitStruct);
 246              		.loc 1 91 3 is_stmt 1 view .LVU92
 247 00ba 04A9     		add	r1, sp, #16
 248 00bc 4046     		mov	r0, r8
 249 00be FFF7FEFF 		bl	LL_GPIO_Init
 250              	.LVL10:
  92:Core/Src/gpio.c **** 
  93:Core/Src/gpio.c ****   /**/
  94:Core/Src/gpio.c ****   GPIO_InitStruct.Pin = LD3_Pin;
 251              		.loc 1 94 3 view .LVU93
 252              		.loc 1 94 23 is_stmt 0 view .LVU94
 253 00c2 4FF40073 		mov	r3, #512
 254 00c6 0493     		str	r3, [sp, #16]
  95:Core/Src/gpio.c ****   GPIO_InitStruct.Mode = LL_GPIO_MODE_OUTPUT;
 255              		.loc 1 95 3 is_stmt 1 view .LVU95
 256              		.loc 1 95 24 is_stmt 0 view .LVU96
 257 00c8 0595     		str	r5, [sp, #20]
  96:Core/Src/gpio.c ****   GPIO_InitStruct.Speed = LL_GPIO_SPEED_FREQ_HIGH;
 258              		.loc 1 96 3 is_stmt 1 view .LVU97
 259              		.loc 1 96 25 is_stmt 0 view .LVU98
 260 00ca 0696     		str	r6, [sp, #24]
  97:Core/Src/gpio.c ****   GPIO_InitStruct.OutputType = LL_GPIO_OUTPUT_PUSHPULL;
 261              		.loc 1 97 3 is_stmt 1 view .LVU99
 262              		.loc 1 97 30 is_stmt 0 view .LVU100
 263 00cc 0794     		str	r4, [sp, #28]
  98:Core/Src/gpio.c ****   GPIO_InitStruct.Pull = LL_GPIO_PULL_NO;
 264              		.loc 1 98 3 is_stmt 1 view .LVU101
 265              		.loc 1 98 24 is_stmt 0 view .LVU102
 266 00ce 0894     		str	r4, [sp, #32]
  99:Core/Src/gpio.c ****   LL_GPIO_Init(LD3_GPIO_Port, &GPIO_InitStruct);
 267              		.loc 1 99 3 is_stmt 1 view .LVU103
 268 00d0 04A9     		add	r1, sp, #16
 269 00d2 4046     		mov	r0, r8
 270 00d4 FFF7FEFF 		bl	LL_GPIO_Init
 271              	.LVL11:
 100:Core/Src/gpio.c **** 
 101:Core/Src/gpio.c ****   /**/
 102:Core/Src/gpio.c ****   GPIO_InitStruct.Pin = LL_GPIO_PIN_8;
 272              		.loc 1 102 3 view .LVU104
 273              		.loc 1 102 23 is_stmt 0 view .LVU105
 274 00d8 0497     		str	r7, [sp, #16]
 103:Core/Src/gpio.c ****   GPIO_InitStruct.Mode = LL_GPIO_MODE_ALTERNATE;
 275              		.loc 1 103 3 is_stmt 1 view .LVU106
 276              		.loc 1 103 24 is_stmt 0 view .LVU107
 277 00da 0596     		str	r6, [sp, #20]
 104:Core/Src/gpio.c ****   GPIO_InitStruct.Speed = LL_GPIO_SPEED_FREQ_VERY_HIGH;
 278              		.loc 1 104 3 is_stmt 1 view .LVU108
 279              		.loc 1 104 25 is_stmt 0 view .LVU109
 280 00dc 0327     		movs	r7, #3
 281 00de 0697     		str	r7, [sp, #24]
 105:Core/Src/gpio.c ****   GPIO_InitStruct.OutputType = LL_GPIO_OUTPUT_PUSHPULL;
 282              		.loc 1 105 3 is_stmt 1 view .LVU110
 283              		.loc 1 105 30 is_stmt 0 view .LVU111
 284 00e0 0794     		str	r4, [sp, #28]
ARM GAS  C:\Users\domen\AppData\Local\Temp\ccgakVxa.s 			page 28


 106:Core/Src/gpio.c ****   GPIO_InitStruct.Pull = LL_GPIO_PULL_NO;
 285              		.loc 1 106 3 is_stmt 1 view .LVU112
 286              		.loc 1 106 24 is_stmt 0 view .LVU113
 287 00e2 0894     		str	r4, [sp, #32]
 107:Core/Src/gpio.c ****   GPIO_InitStruct.Alternate = LL_GPIO_AF_0;
 288              		.loc 1 107 3 is_stmt 1 view .LVU114
 289              		.loc 1 107 29 is_stmt 0 view .LVU115
 290 00e4 0994     		str	r4, [sp, #36]
 108:Core/Src/gpio.c ****   LL_GPIO_Init(GPIOA, &GPIO_InitStruct);
 291              		.loc 1 108 3 is_stmt 1 view .LVU116
 292 00e6 04A9     		add	r1, sp, #16
 293 00e8 4846     		mov	r0, r9
 294 00ea FFF7FEFF 		bl	LL_GPIO_Init
 295              	.LVL12:
 109:Core/Src/gpio.c **** 
 110:Core/Src/gpio.c ****   /**/
 111:Core/Src/gpio.c ****   GPIO_InitStruct.Pin = BT_PWR_Pin;
 296              		.loc 1 111 3 view .LVU117
 297              		.loc 1 111 23 is_stmt 0 view .LVU118
 298 00ee 4FF48053 		mov	r3, #4096
 299 00f2 0493     		str	r3, [sp, #16]
 112:Core/Src/gpio.c ****   GPIO_InitStruct.Mode = LL_GPIO_MODE_OUTPUT;
 300              		.loc 1 112 3 is_stmt 1 view .LVU119
 301              		.loc 1 112 24 is_stmt 0 view .LVU120
 302 00f4 0595     		str	r5, [sp, #20]
 113:Core/Src/gpio.c ****   GPIO_InitStruct.Speed = LL_GPIO_SPEED_FREQ_HIGH;
 303              		.loc 1 113 3 is_stmt 1 view .LVU121
 304              		.loc 1 113 25 is_stmt 0 view .LVU122
 305 00f6 0696     		str	r6, [sp, #24]
 114:Core/Src/gpio.c ****   GPIO_InitStruct.OutputType = LL_GPIO_OUTPUT_PUSHPULL;
 306              		.loc 1 114 3 is_stmt 1 view .LVU123
 307              		.loc 1 114 30 is_stmt 0 view .LVU124
 308 00f8 0794     		str	r4, [sp, #28]
 115:Core/Src/gpio.c ****   GPIO_InitStruct.Pull = LL_GPIO_PULL_NO;
 309              		.loc 1 115 3 is_stmt 1 view .LVU125
 310              		.loc 1 115 24 is_stmt 0 view .LVU126
 311 00fa 0894     		str	r4, [sp, #32]
 116:Core/Src/gpio.c ****   LL_GPIO_Init(BT_PWR_GPIO_Port, &GPIO_InitStruct);
 312              		.loc 1 116 3 is_stmt 1 view .LVU127
 313 00fc 04A9     		add	r1, sp, #16
 314 00fe 4046     		mov	r0, r8
 315 0100 FFF7FEFF 		bl	LL_GPIO_Init
 316              	.LVL13:
 117:Core/Src/gpio.c **** 
 118:Core/Src/gpio.c ****   /**/
 119:Core/Src/gpio.c ****   LL_SYSCFG_SetEXTISource(LL_SYSCFG_EXTI_PORTB, LL_SYSCFG_EXTI_LINE4);
 317              		.loc 1 119 3 view .LVU128
 318              	.LBB56:
 319              	.LBI56:
 320              		.file 4 "Drivers/STM32L1xx_HAL_Driver/Inc/stm32l1xx_ll_system.h"
   1:Drivers/STM32L1xx_HAL_Driver/Inc/stm32l1xx_ll_system.h **** /**
   2:Drivers/STM32L1xx_HAL_Driver/Inc/stm32l1xx_ll_system.h ****   ******************************************************************************
   3:Drivers/STM32L1xx_HAL_Driver/Inc/stm32l1xx_ll_system.h ****   * @file    stm32l1xx_ll_system.h
   4:Drivers/STM32L1xx_HAL_Driver/Inc/stm32l1xx_ll_system.h ****   * @author  MCD Application Team
   5:Drivers/STM32L1xx_HAL_Driver/Inc/stm32l1xx_ll_system.h ****   * @brief   Header file of SYSTEM LL module.
   6:Drivers/STM32L1xx_HAL_Driver/Inc/stm32l1xx_ll_system.h ****   @verbatim
   7:Drivers/STM32L1xx_HAL_Driver/Inc/stm32l1xx_ll_system.h ****   ==============================================================================
ARM GAS  C:\Users\domen\AppData\Local\Temp\ccgakVxa.s 			page 29


   8:Drivers/STM32L1xx_HAL_Driver/Inc/stm32l1xx_ll_system.h ****                      ##### How to use this driver #####
   9:Drivers/STM32L1xx_HAL_Driver/Inc/stm32l1xx_ll_system.h ****   ==============================================================================
  10:Drivers/STM32L1xx_HAL_Driver/Inc/stm32l1xx_ll_system.h ****     [..]
  11:Drivers/STM32L1xx_HAL_Driver/Inc/stm32l1xx_ll_system.h ****     The LL SYSTEM driver contains a set of generic APIs that can be
  12:Drivers/STM32L1xx_HAL_Driver/Inc/stm32l1xx_ll_system.h ****     used by user:
  13:Drivers/STM32L1xx_HAL_Driver/Inc/stm32l1xx_ll_system.h ****       (+) Some of the FLASH features need to be handled in the SYSTEM file.
  14:Drivers/STM32L1xx_HAL_Driver/Inc/stm32l1xx_ll_system.h ****       (+) Access to DBGCMU registers
  15:Drivers/STM32L1xx_HAL_Driver/Inc/stm32l1xx_ll_system.h ****       (+) Access to SYSCFG registers
  16:Drivers/STM32L1xx_HAL_Driver/Inc/stm32l1xx_ll_system.h ****       (+) Access to Routing Interfaces registers
  17:Drivers/STM32L1xx_HAL_Driver/Inc/stm32l1xx_ll_system.h **** 
  18:Drivers/STM32L1xx_HAL_Driver/Inc/stm32l1xx_ll_system.h ****   @endverbatim
  19:Drivers/STM32L1xx_HAL_Driver/Inc/stm32l1xx_ll_system.h ****   ******************************************************************************
  20:Drivers/STM32L1xx_HAL_Driver/Inc/stm32l1xx_ll_system.h ****   * @attention
  21:Drivers/STM32L1xx_HAL_Driver/Inc/stm32l1xx_ll_system.h ****   *
  22:Drivers/STM32L1xx_HAL_Driver/Inc/stm32l1xx_ll_system.h ****   * <h2><center>&copy; Copyright (c) 2017 STMicroelectronics.
  23:Drivers/STM32L1xx_HAL_Driver/Inc/stm32l1xx_ll_system.h ****   * All rights reserved.</center></h2>
  24:Drivers/STM32L1xx_HAL_Driver/Inc/stm32l1xx_ll_system.h ****   *
  25:Drivers/STM32L1xx_HAL_Driver/Inc/stm32l1xx_ll_system.h ****   * This software component is licensed by ST under BSD 3-Clause license,
  26:Drivers/STM32L1xx_HAL_Driver/Inc/stm32l1xx_ll_system.h ****   * the "License"; You may not use this file except in compliance with the
  27:Drivers/STM32L1xx_HAL_Driver/Inc/stm32l1xx_ll_system.h ****   * License. You may obtain a copy of the License at:
  28:Drivers/STM32L1xx_HAL_Driver/Inc/stm32l1xx_ll_system.h ****   *                        opensource.org/licenses/BSD-3-Clause
  29:Drivers/STM32L1xx_HAL_Driver/Inc/stm32l1xx_ll_system.h ****   *
  30:Drivers/STM32L1xx_HAL_Driver/Inc/stm32l1xx_ll_system.h ****   ******************************************************************************
  31:Drivers/STM32L1xx_HAL_Driver/Inc/stm32l1xx_ll_system.h ****   */
  32:Drivers/STM32L1xx_HAL_Driver/Inc/stm32l1xx_ll_system.h **** 
  33:Drivers/STM32L1xx_HAL_Driver/Inc/stm32l1xx_ll_system.h **** /* Define to prevent recursive inclusion -------------------------------------*/
  34:Drivers/STM32L1xx_HAL_Driver/Inc/stm32l1xx_ll_system.h **** #ifndef __STM32L1xx_LL_SYSTEM_H
  35:Drivers/STM32L1xx_HAL_Driver/Inc/stm32l1xx_ll_system.h **** #define __STM32L1xx_LL_SYSTEM_H
  36:Drivers/STM32L1xx_HAL_Driver/Inc/stm32l1xx_ll_system.h **** 
  37:Drivers/STM32L1xx_HAL_Driver/Inc/stm32l1xx_ll_system.h **** #ifdef __cplusplus
  38:Drivers/STM32L1xx_HAL_Driver/Inc/stm32l1xx_ll_system.h **** extern "C" {
  39:Drivers/STM32L1xx_HAL_Driver/Inc/stm32l1xx_ll_system.h **** #endif
  40:Drivers/STM32L1xx_HAL_Driver/Inc/stm32l1xx_ll_system.h **** 
  41:Drivers/STM32L1xx_HAL_Driver/Inc/stm32l1xx_ll_system.h **** /* Includes ------------------------------------------------------------------*/
  42:Drivers/STM32L1xx_HAL_Driver/Inc/stm32l1xx_ll_system.h **** #include "stm32l1xx.h"
  43:Drivers/STM32L1xx_HAL_Driver/Inc/stm32l1xx_ll_system.h **** 
  44:Drivers/STM32L1xx_HAL_Driver/Inc/stm32l1xx_ll_system.h **** /** @addtogroup STM32L1xx_LL_Driver
  45:Drivers/STM32L1xx_HAL_Driver/Inc/stm32l1xx_ll_system.h ****   * @{
  46:Drivers/STM32L1xx_HAL_Driver/Inc/stm32l1xx_ll_system.h ****   */
  47:Drivers/STM32L1xx_HAL_Driver/Inc/stm32l1xx_ll_system.h **** 
  48:Drivers/STM32L1xx_HAL_Driver/Inc/stm32l1xx_ll_system.h **** #if defined (FLASH) || defined (SYSCFG) || defined (DBGMCU) || defined(RI)
  49:Drivers/STM32L1xx_HAL_Driver/Inc/stm32l1xx_ll_system.h **** 
  50:Drivers/STM32L1xx_HAL_Driver/Inc/stm32l1xx_ll_system.h **** /** @defgroup SYSTEM_LL SYSTEM
  51:Drivers/STM32L1xx_HAL_Driver/Inc/stm32l1xx_ll_system.h ****   * @{
  52:Drivers/STM32L1xx_HAL_Driver/Inc/stm32l1xx_ll_system.h ****   */
  53:Drivers/STM32L1xx_HAL_Driver/Inc/stm32l1xx_ll_system.h **** 
  54:Drivers/STM32L1xx_HAL_Driver/Inc/stm32l1xx_ll_system.h **** /* Private types -------------------------------------------------------------*/
  55:Drivers/STM32L1xx_HAL_Driver/Inc/stm32l1xx_ll_system.h **** /* Private variables ---------------------------------------------------------*/
  56:Drivers/STM32L1xx_HAL_Driver/Inc/stm32l1xx_ll_system.h **** 
  57:Drivers/STM32L1xx_HAL_Driver/Inc/stm32l1xx_ll_system.h **** /* Private constants ---------------------------------------------------------*/
  58:Drivers/STM32L1xx_HAL_Driver/Inc/stm32l1xx_ll_system.h **** /** @defgroup SYSTEM_LL_Private_Constants SYSTEM Private Constants
  59:Drivers/STM32L1xx_HAL_Driver/Inc/stm32l1xx_ll_system.h ****   * @{
  60:Drivers/STM32L1xx_HAL_Driver/Inc/stm32l1xx_ll_system.h ****   */
  61:Drivers/STM32L1xx_HAL_Driver/Inc/stm32l1xx_ll_system.h **** 
  62:Drivers/STM32L1xx_HAL_Driver/Inc/stm32l1xx_ll_system.h **** /**
  63:Drivers/STM32L1xx_HAL_Driver/Inc/stm32l1xx_ll_system.h ****  * @brief Power-down in Run mode Flash key
  64:Drivers/STM32L1xx_HAL_Driver/Inc/stm32l1xx_ll_system.h ****  */
ARM GAS  C:\Users\domen\AppData\Local\Temp\ccgakVxa.s 			page 30


  65:Drivers/STM32L1xx_HAL_Driver/Inc/stm32l1xx_ll_system.h **** #define FLASH_PDKEY1                  (0x04152637U) /*!< Flash power down key1 */
  66:Drivers/STM32L1xx_HAL_Driver/Inc/stm32l1xx_ll_system.h **** #define FLASH_PDKEY2                  (0xFAFBFCFDU) /*!< Flash power down key2: used with FLASH_PDK
  67:Drivers/STM32L1xx_HAL_Driver/Inc/stm32l1xx_ll_system.h ****                                                        to unlock the RUN_PD bit in FLASH_ACR */
  68:Drivers/STM32L1xx_HAL_Driver/Inc/stm32l1xx_ll_system.h **** 
  69:Drivers/STM32L1xx_HAL_Driver/Inc/stm32l1xx_ll_system.h **** /**
  70:Drivers/STM32L1xx_HAL_Driver/Inc/stm32l1xx_ll_system.h ****   * @}
  71:Drivers/STM32L1xx_HAL_Driver/Inc/stm32l1xx_ll_system.h ****   */
  72:Drivers/STM32L1xx_HAL_Driver/Inc/stm32l1xx_ll_system.h **** 
  73:Drivers/STM32L1xx_HAL_Driver/Inc/stm32l1xx_ll_system.h **** /* Private macros ------------------------------------------------------------*/
  74:Drivers/STM32L1xx_HAL_Driver/Inc/stm32l1xx_ll_system.h **** 
  75:Drivers/STM32L1xx_HAL_Driver/Inc/stm32l1xx_ll_system.h **** /* Exported types ------------------------------------------------------------*/
  76:Drivers/STM32L1xx_HAL_Driver/Inc/stm32l1xx_ll_system.h **** /* Exported constants --------------------------------------------------------*/
  77:Drivers/STM32L1xx_HAL_Driver/Inc/stm32l1xx_ll_system.h **** /** @defgroup SYSTEM_LL_Exported_Constants SYSTEM Exported Constants
  78:Drivers/STM32L1xx_HAL_Driver/Inc/stm32l1xx_ll_system.h ****   * @{
  79:Drivers/STM32L1xx_HAL_Driver/Inc/stm32l1xx_ll_system.h ****   */
  80:Drivers/STM32L1xx_HAL_Driver/Inc/stm32l1xx_ll_system.h **** 
  81:Drivers/STM32L1xx_HAL_Driver/Inc/stm32l1xx_ll_system.h **** /** @defgroup SYSTEM_LL_EC_REMAP SYSCFG REMAP
  82:Drivers/STM32L1xx_HAL_Driver/Inc/stm32l1xx_ll_system.h **** * @{
  83:Drivers/STM32L1xx_HAL_Driver/Inc/stm32l1xx_ll_system.h **** */
  84:Drivers/STM32L1xx_HAL_Driver/Inc/stm32l1xx_ll_system.h **** #define LL_SYSCFG_REMAP_FLASH              (0x00000000U)                                         /*
  85:Drivers/STM32L1xx_HAL_Driver/Inc/stm32l1xx_ll_system.h **** #define LL_SYSCFG_REMAP_SYSTEMFLASH        SYSCFG_MEMRMP_MEM_MODE_0                              /*
  86:Drivers/STM32L1xx_HAL_Driver/Inc/stm32l1xx_ll_system.h **** #define LL_SYSCFG_REMAP_SRAM               (SYSCFG_MEMRMP_MEM_MODE_1 | SYSCFG_MEMRMP_MEM_MODE_0) /*
  87:Drivers/STM32L1xx_HAL_Driver/Inc/stm32l1xx_ll_system.h **** #if defined(FSMC_R_BASE)
  88:Drivers/STM32L1xx_HAL_Driver/Inc/stm32l1xx_ll_system.h **** #define LL_SYSCFG_REMAP_FMC                SYSCFG_MEMRMP_MEM_MODE_1                              /*
  89:Drivers/STM32L1xx_HAL_Driver/Inc/stm32l1xx_ll_system.h **** #endif /* FSMC_R_BASE */
  90:Drivers/STM32L1xx_HAL_Driver/Inc/stm32l1xx_ll_system.h **** /**
  91:Drivers/STM32L1xx_HAL_Driver/Inc/stm32l1xx_ll_system.h ****   * @}
  92:Drivers/STM32L1xx_HAL_Driver/Inc/stm32l1xx_ll_system.h ****   */
  93:Drivers/STM32L1xx_HAL_Driver/Inc/stm32l1xx_ll_system.h **** 
  94:Drivers/STM32L1xx_HAL_Driver/Inc/stm32l1xx_ll_system.h **** /** @defgroup SYSTEM_LL_EC_BOOT SYSCFG BOOT MODE
  95:Drivers/STM32L1xx_HAL_Driver/Inc/stm32l1xx_ll_system.h ****   * @{
  96:Drivers/STM32L1xx_HAL_Driver/Inc/stm32l1xx_ll_system.h ****   */
  97:Drivers/STM32L1xx_HAL_Driver/Inc/stm32l1xx_ll_system.h **** #define LL_SYSCFG_BOOTMODE_FLASH               (0x00000000U)             /*<! Main Flash memory boo
  98:Drivers/STM32L1xx_HAL_Driver/Inc/stm32l1xx_ll_system.h **** #define LL_SYSCFG_BOOTMODE_SYSTEMFLASH         SYSCFG_MEMRMP_BOOT_MODE_0 /*<! System Flash memory b
  99:Drivers/STM32L1xx_HAL_Driver/Inc/stm32l1xx_ll_system.h **** #if defined(FSMC_BANK1)
 100:Drivers/STM32L1xx_HAL_Driver/Inc/stm32l1xx_ll_system.h **** #define LL_SYSCFG_BOOTMODE_FSMC                SYSCFG_MEMRMP_BOOT_MODE_1 /*<! FSMC boot mode */
 101:Drivers/STM32L1xx_HAL_Driver/Inc/stm32l1xx_ll_system.h **** #endif /* FSMC_BANK1 */
 102:Drivers/STM32L1xx_HAL_Driver/Inc/stm32l1xx_ll_system.h **** #define LL_SYSCFG_BOOTMODE_SRAM                SYSCFG_MEMRMP_BOOT_MODE   /*<! Embedded SRAM boot mo
 103:Drivers/STM32L1xx_HAL_Driver/Inc/stm32l1xx_ll_system.h **** /**
 104:Drivers/STM32L1xx_HAL_Driver/Inc/stm32l1xx_ll_system.h ****   * @}
 105:Drivers/STM32L1xx_HAL_Driver/Inc/stm32l1xx_ll_system.h ****   */
 106:Drivers/STM32L1xx_HAL_Driver/Inc/stm32l1xx_ll_system.h **** 
 107:Drivers/STM32L1xx_HAL_Driver/Inc/stm32l1xx_ll_system.h **** #if defined(LCD)
 108:Drivers/STM32L1xx_HAL_Driver/Inc/stm32l1xx_ll_system.h **** /** @defgroup SYSTEM_LL_EC_LCDCAPA SYSCFG LCD capacitance connection
 109:Drivers/STM32L1xx_HAL_Driver/Inc/stm32l1xx_ll_system.h ****   * @{
 110:Drivers/STM32L1xx_HAL_Driver/Inc/stm32l1xx_ll_system.h ****   */
 111:Drivers/STM32L1xx_HAL_Driver/Inc/stm32l1xx_ll_system.h **** #define LL_SYSCFG_LCDCAPA_PB2              SYSCFG_PMC_LCD_CAPA_0 /*<! controls the connection of VL
 112:Drivers/STM32L1xx_HAL_Driver/Inc/stm32l1xx_ll_system.h **** #define LL_SYSCFG_LCDCAPA_PB12             SYSCFG_PMC_LCD_CAPA_1 /*<! controls the connection of VL
 113:Drivers/STM32L1xx_HAL_Driver/Inc/stm32l1xx_ll_system.h **** #define LL_SYSCFG_LCDCAPA_PB0              SYSCFG_PMC_LCD_CAPA_2 /*<! controls the connection of VL
 114:Drivers/STM32L1xx_HAL_Driver/Inc/stm32l1xx_ll_system.h **** #define LL_SYSCFG_LCDCAPA_PE11             SYSCFG_PMC_LCD_CAPA_3 /*<! controls the connection of VL
 115:Drivers/STM32L1xx_HAL_Driver/Inc/stm32l1xx_ll_system.h **** #define LL_SYSCFG_LCDCAPA_PE12             SYSCFG_PMC_LCD_CAPA_4 /*<! controls the connection of VL
 116:Drivers/STM32L1xx_HAL_Driver/Inc/stm32l1xx_ll_system.h **** /**
 117:Drivers/STM32L1xx_HAL_Driver/Inc/stm32l1xx_ll_system.h ****   * @}
 118:Drivers/STM32L1xx_HAL_Driver/Inc/stm32l1xx_ll_system.h ****   */
 119:Drivers/STM32L1xx_HAL_Driver/Inc/stm32l1xx_ll_system.h **** 
 120:Drivers/STM32L1xx_HAL_Driver/Inc/stm32l1xx_ll_system.h **** #endif /* LCD */
 121:Drivers/STM32L1xx_HAL_Driver/Inc/stm32l1xx_ll_system.h **** 
ARM GAS  C:\Users\domen\AppData\Local\Temp\ccgakVxa.s 			page 31


 122:Drivers/STM32L1xx_HAL_Driver/Inc/stm32l1xx_ll_system.h **** /** @defgroup SYSTEM_LL_EC_EXTI SYSCFG EXTI PORT
 123:Drivers/STM32L1xx_HAL_Driver/Inc/stm32l1xx_ll_system.h ****   * @{
 124:Drivers/STM32L1xx_HAL_Driver/Inc/stm32l1xx_ll_system.h ****   */
 125:Drivers/STM32L1xx_HAL_Driver/Inc/stm32l1xx_ll_system.h **** #define LL_SYSCFG_EXTI_PORTA               0U /*!< EXTI PORT A                        */
 126:Drivers/STM32L1xx_HAL_Driver/Inc/stm32l1xx_ll_system.h **** #define LL_SYSCFG_EXTI_PORTB               1U /*!< EXTI PORT B                        */
 127:Drivers/STM32L1xx_HAL_Driver/Inc/stm32l1xx_ll_system.h **** #define LL_SYSCFG_EXTI_PORTC               2U /*!< EXTI PORT C                        */
 128:Drivers/STM32L1xx_HAL_Driver/Inc/stm32l1xx_ll_system.h **** #define LL_SYSCFG_EXTI_PORTD               3U /*!< EXTI PORT D                        */
 129:Drivers/STM32L1xx_HAL_Driver/Inc/stm32l1xx_ll_system.h **** #if defined(GPIOE)
 130:Drivers/STM32L1xx_HAL_Driver/Inc/stm32l1xx_ll_system.h **** #define LL_SYSCFG_EXTI_PORTE               4U /*!< EXTI PORT E                        */
 131:Drivers/STM32L1xx_HAL_Driver/Inc/stm32l1xx_ll_system.h **** #endif /* GPIOE */
 132:Drivers/STM32L1xx_HAL_Driver/Inc/stm32l1xx_ll_system.h **** #if defined(GPIOF)
 133:Drivers/STM32L1xx_HAL_Driver/Inc/stm32l1xx_ll_system.h **** #define LL_SYSCFG_EXTI_PORTF               6U /*!< EXTI PORT F                        */
 134:Drivers/STM32L1xx_HAL_Driver/Inc/stm32l1xx_ll_system.h **** #endif /* GPIOF */
 135:Drivers/STM32L1xx_HAL_Driver/Inc/stm32l1xx_ll_system.h **** #if defined(GPIOG)
 136:Drivers/STM32L1xx_HAL_Driver/Inc/stm32l1xx_ll_system.h **** #define LL_SYSCFG_EXTI_PORTG               7U /*!< EXTI PORT G                        */
 137:Drivers/STM32L1xx_HAL_Driver/Inc/stm32l1xx_ll_system.h **** #endif /* GPIOG */
 138:Drivers/STM32L1xx_HAL_Driver/Inc/stm32l1xx_ll_system.h **** #define LL_SYSCFG_EXTI_PORTH               5U /*!< EXTI PORT H                        */
 139:Drivers/STM32L1xx_HAL_Driver/Inc/stm32l1xx_ll_system.h **** /**
 140:Drivers/STM32L1xx_HAL_Driver/Inc/stm32l1xx_ll_system.h ****   * @}
 141:Drivers/STM32L1xx_HAL_Driver/Inc/stm32l1xx_ll_system.h ****   */
 142:Drivers/STM32L1xx_HAL_Driver/Inc/stm32l1xx_ll_system.h **** 
 143:Drivers/STM32L1xx_HAL_Driver/Inc/stm32l1xx_ll_system.h **** /** @addtogroup SYSTEM_LL_EC_SYSCFG EXTI LINE
 144:Drivers/STM32L1xx_HAL_Driver/Inc/stm32l1xx_ll_system.h ****   * @{
 145:Drivers/STM32L1xx_HAL_Driver/Inc/stm32l1xx_ll_system.h ****   */
 146:Drivers/STM32L1xx_HAL_Driver/Inc/stm32l1xx_ll_system.h **** #define LL_SYSCFG_EXTI_LINE0               (uint32_t)(0x000FU << 16U | 0U)  /* EXTI_POSITION_0 | EX
 147:Drivers/STM32L1xx_HAL_Driver/Inc/stm32l1xx_ll_system.h **** #define LL_SYSCFG_EXTI_LINE1               (uint32_t)(0x00F0U << 16U | 0U)  /* EXTI_POSITION_4 | EX
 148:Drivers/STM32L1xx_HAL_Driver/Inc/stm32l1xx_ll_system.h **** #define LL_SYSCFG_EXTI_LINE2               (uint32_t)(0x0F00U << 16U | 0U)  /* EXTI_POSITION_8 | EX
 149:Drivers/STM32L1xx_HAL_Driver/Inc/stm32l1xx_ll_system.h **** #define LL_SYSCFG_EXTI_LINE3               (uint32_t)(0xF000U << 16U | 0U)  /* EXTI_POSITION_12 | E
 150:Drivers/STM32L1xx_HAL_Driver/Inc/stm32l1xx_ll_system.h **** #define LL_SYSCFG_EXTI_LINE4               (uint32_t)(0x000FU << 16U | 1U)  /* EXTI_POSITION_0 | EX
 151:Drivers/STM32L1xx_HAL_Driver/Inc/stm32l1xx_ll_system.h **** #define LL_SYSCFG_EXTI_LINE5               (uint32_t)(0x00F0U << 16U | 1U)  /* EXTI_POSITION_4 | EX
 152:Drivers/STM32L1xx_HAL_Driver/Inc/stm32l1xx_ll_system.h **** #define LL_SYSCFG_EXTI_LINE6               (uint32_t)(0x0F00U << 16U | 1U)  /* EXTI_POSITION_8 | EX
 153:Drivers/STM32L1xx_HAL_Driver/Inc/stm32l1xx_ll_system.h **** #define LL_SYSCFG_EXTI_LINE7               (uint32_t)(0xF000U << 16U | 1U)  /* EXTI_POSITION_12 | E
 154:Drivers/STM32L1xx_HAL_Driver/Inc/stm32l1xx_ll_system.h **** #define LL_SYSCFG_EXTI_LINE8               (uint32_t)(0x000FU << 16U | 2U)  /* EXTI_POSITION_0 | EX
 155:Drivers/STM32L1xx_HAL_Driver/Inc/stm32l1xx_ll_system.h **** #define LL_SYSCFG_EXTI_LINE9               (uint32_t)(0x00F0U << 16U | 2U)  /* EXTI_POSITION_4 | EX
 156:Drivers/STM32L1xx_HAL_Driver/Inc/stm32l1xx_ll_system.h **** #define LL_SYSCFG_EXTI_LINE10              (uint32_t)(0x0F00U << 16U | 2U)  /* EXTI_POSITION_8 | EX
 157:Drivers/STM32L1xx_HAL_Driver/Inc/stm32l1xx_ll_system.h **** #define LL_SYSCFG_EXTI_LINE11              (uint32_t)(0xF000U << 16U | 2U)  /* EXTI_POSITION_12 | E
 158:Drivers/STM32L1xx_HAL_Driver/Inc/stm32l1xx_ll_system.h **** #define LL_SYSCFG_EXTI_LINE12              (uint32_t)(0x000FU << 16U | 3U)  /* EXTI_POSITION_0 | EX
 159:Drivers/STM32L1xx_HAL_Driver/Inc/stm32l1xx_ll_system.h **** #define LL_SYSCFG_EXTI_LINE13              (uint32_t)(0x00F0U << 16U | 3U)  /* EXTI_POSITION_4 | EX
 160:Drivers/STM32L1xx_HAL_Driver/Inc/stm32l1xx_ll_system.h **** #define LL_SYSCFG_EXTI_LINE14              (uint32_t)(0x0F00U << 16U | 3U)  /* EXTI_POSITION_8 | EX
 161:Drivers/STM32L1xx_HAL_Driver/Inc/stm32l1xx_ll_system.h **** #define LL_SYSCFG_EXTI_LINE15              (uint32_t)(0xF000U << 16U | 3U)  /* EXTI_POSITION_12 | E
 162:Drivers/STM32L1xx_HAL_Driver/Inc/stm32l1xx_ll_system.h **** /**
 163:Drivers/STM32L1xx_HAL_Driver/Inc/stm32l1xx_ll_system.h ****   * @}
 164:Drivers/STM32L1xx_HAL_Driver/Inc/stm32l1xx_ll_system.h ****   */
 165:Drivers/STM32L1xx_HAL_Driver/Inc/stm32l1xx_ll_system.h **** 
 166:Drivers/STM32L1xx_HAL_Driver/Inc/stm32l1xx_ll_system.h **** /** @defgroup SYSTEM_LL_EC_TRACE DBGMCU TRACE Pin Assignment
 167:Drivers/STM32L1xx_HAL_Driver/Inc/stm32l1xx_ll_system.h ****   * @{
 168:Drivers/STM32L1xx_HAL_Driver/Inc/stm32l1xx_ll_system.h ****   */
 169:Drivers/STM32L1xx_HAL_Driver/Inc/stm32l1xx_ll_system.h **** #define LL_DBGMCU_TRACE_NONE               0x00000000U                                     /*!< TRA
 170:Drivers/STM32L1xx_HAL_Driver/Inc/stm32l1xx_ll_system.h **** #define LL_DBGMCU_TRACE_ASYNCH             DBGMCU_CR_TRACE_IOEN                            /*!< TRA
 171:Drivers/STM32L1xx_HAL_Driver/Inc/stm32l1xx_ll_system.h **** #define LL_DBGMCU_TRACE_SYNCH_SIZE1        (DBGMCU_CR_TRACE_IOEN | DBGMCU_CR_TRACE_MODE_0) /*!< TRA
 172:Drivers/STM32L1xx_HAL_Driver/Inc/stm32l1xx_ll_system.h **** #define LL_DBGMCU_TRACE_SYNCH_SIZE2        (DBGMCU_CR_TRACE_IOEN | DBGMCU_CR_TRACE_MODE_1) /*!< TRA
 173:Drivers/STM32L1xx_HAL_Driver/Inc/stm32l1xx_ll_system.h **** #define LL_DBGMCU_TRACE_SYNCH_SIZE4        (DBGMCU_CR_TRACE_IOEN | DBGMCU_CR_TRACE_MODE)   /*!< TRA
 174:Drivers/STM32L1xx_HAL_Driver/Inc/stm32l1xx_ll_system.h **** /**
 175:Drivers/STM32L1xx_HAL_Driver/Inc/stm32l1xx_ll_system.h ****   * @}
 176:Drivers/STM32L1xx_HAL_Driver/Inc/stm32l1xx_ll_system.h ****   */
 177:Drivers/STM32L1xx_HAL_Driver/Inc/stm32l1xx_ll_system.h **** 
 178:Drivers/STM32L1xx_HAL_Driver/Inc/stm32l1xx_ll_system.h **** /** @defgroup SYSTEM_LL_EC_APB1_GRP1_STOP_IP DBGMCU APB1 GRP1 STOP IP
ARM GAS  C:\Users\domen\AppData\Local\Temp\ccgakVxa.s 			page 32


 179:Drivers/STM32L1xx_HAL_Driver/Inc/stm32l1xx_ll_system.h ****   * @{
 180:Drivers/STM32L1xx_HAL_Driver/Inc/stm32l1xx_ll_system.h ****   */
 181:Drivers/STM32L1xx_HAL_Driver/Inc/stm32l1xx_ll_system.h **** #define LL_DBGMCU_APB1_GRP1_TIM2_STOP      DBGMCU_APB1_FZ_DBG_TIM2_STOP             /*!< TIM2 count
 182:Drivers/STM32L1xx_HAL_Driver/Inc/stm32l1xx_ll_system.h **** #define LL_DBGMCU_APB1_GRP1_TIM3_STOP      DBGMCU_APB1_FZ_DBG_TIM3_STOP             /*!< TIM3 count
 183:Drivers/STM32L1xx_HAL_Driver/Inc/stm32l1xx_ll_system.h **** #define LL_DBGMCU_APB1_GRP1_TIM4_STOP      DBGMCU_APB1_FZ_DBG_TIM4_STOP             /*!< TIM4 count
 184:Drivers/STM32L1xx_HAL_Driver/Inc/stm32l1xx_ll_system.h **** #if defined (DBGMCU_APB1_FZ_DBG_TIM5_STOP)
 185:Drivers/STM32L1xx_HAL_Driver/Inc/stm32l1xx_ll_system.h **** #define LL_DBGMCU_APB1_GRP1_TIM5_STOP      DBGMCU_APB1_FZ_DBG_TIM5_STOP             /*!< TIM5 count
 186:Drivers/STM32L1xx_HAL_Driver/Inc/stm32l1xx_ll_system.h **** #endif /* DBGMCU_APB1_FZ_DBG_TIM5_STOP */
 187:Drivers/STM32L1xx_HAL_Driver/Inc/stm32l1xx_ll_system.h **** #define LL_DBGMCU_APB1_GRP1_TIM6_STOP      DBGMCU_APB1_FZ_DBG_TIM6_STOP             /*!< TIM6 count
 188:Drivers/STM32L1xx_HAL_Driver/Inc/stm32l1xx_ll_system.h **** #define LL_DBGMCU_APB1_GRP1_TIM7_STOP      DBGMCU_APB1_FZ_DBG_TIM7_STOP             /*!< TIM7 count
 189:Drivers/STM32L1xx_HAL_Driver/Inc/stm32l1xx_ll_system.h **** #if defined (DBGMCU_APB1_FZ_DBG_RTC_STOP)
 190:Drivers/STM32L1xx_HAL_Driver/Inc/stm32l1xx_ll_system.h **** #define LL_DBGMCU_APB1_GRP1_RTC_STOP       DBGMCU_APB1_FZ_DBG_RTC_STOP              /*!< RTC Counte
 191:Drivers/STM32L1xx_HAL_Driver/Inc/stm32l1xx_ll_system.h **** #endif /* DBGMCU_APB1_FZ_DBG_RTC_STOP */
 192:Drivers/STM32L1xx_HAL_Driver/Inc/stm32l1xx_ll_system.h **** #define LL_DBGMCU_APB1_GRP1_WWDG_STOP      DBGMCU_APB1_FZ_DBG_WWDG_STOP             /*!< Debug Wind
 193:Drivers/STM32L1xx_HAL_Driver/Inc/stm32l1xx_ll_system.h **** #define LL_DBGMCU_APB1_GRP1_IWDG_STOP      DBGMCU_APB1_FZ_DBG_IWDG_STOP             /*!< Debug Inde
 194:Drivers/STM32L1xx_HAL_Driver/Inc/stm32l1xx_ll_system.h **** #define LL_DBGMCU_APB1_GRP1_I2C1_STOP      DBGMCU_APB1_FZ_DBG_I2C1_SMBUS_TIMEOUT    /*!< I2C1 SMBUS
 195:Drivers/STM32L1xx_HAL_Driver/Inc/stm32l1xx_ll_system.h **** #define LL_DBGMCU_APB1_GRP1_I2C2_STOP      DBGMCU_APB1_FZ_DBG_I2C2_SMBUS_TIMEOUT    /*!< I2C2 SMBUS
 196:Drivers/STM32L1xx_HAL_Driver/Inc/stm32l1xx_ll_system.h **** /**
 197:Drivers/STM32L1xx_HAL_Driver/Inc/stm32l1xx_ll_system.h ****   * @}
 198:Drivers/STM32L1xx_HAL_Driver/Inc/stm32l1xx_ll_system.h ****   */
 199:Drivers/STM32L1xx_HAL_Driver/Inc/stm32l1xx_ll_system.h **** 
 200:Drivers/STM32L1xx_HAL_Driver/Inc/stm32l1xx_ll_system.h **** /** @defgroup SYSTEM_LL_EC_APB2_GRP1_STOP_IP DBGMCU APB2 GRP1 STOP IP
 201:Drivers/STM32L1xx_HAL_Driver/Inc/stm32l1xx_ll_system.h ****   * @{
 202:Drivers/STM32L1xx_HAL_Driver/Inc/stm32l1xx_ll_system.h ****   */
 203:Drivers/STM32L1xx_HAL_Driver/Inc/stm32l1xx_ll_system.h **** #define LL_DBGMCU_APB2_GRP1_TIM9_STOP      DBGMCU_APB2_FZ_DBG_TIM9_STOP             /*!< TIM9 count
 204:Drivers/STM32L1xx_HAL_Driver/Inc/stm32l1xx_ll_system.h **** #define LL_DBGMCU_APB2_GRP1_TIM10_STOP     DBGMCU_APB2_FZ_DBG_TIM10_STOP            /*!< TIM10 coun
 205:Drivers/STM32L1xx_HAL_Driver/Inc/stm32l1xx_ll_system.h **** #define LL_DBGMCU_APB2_GRP1_TIM11_STOP     DBGMCU_APB2_FZ_DBG_TIM11_STOP            /*!< TIM11 coun
 206:Drivers/STM32L1xx_HAL_Driver/Inc/stm32l1xx_ll_system.h **** /**
 207:Drivers/STM32L1xx_HAL_Driver/Inc/stm32l1xx_ll_system.h ****   * @}
 208:Drivers/STM32L1xx_HAL_Driver/Inc/stm32l1xx_ll_system.h ****   */
 209:Drivers/STM32L1xx_HAL_Driver/Inc/stm32l1xx_ll_system.h **** 
 210:Drivers/STM32L1xx_HAL_Driver/Inc/stm32l1xx_ll_system.h **** /** @defgroup SYSTEM_LL_EC_TIM_SELECT RI TIM selection
 211:Drivers/STM32L1xx_HAL_Driver/Inc/stm32l1xx_ll_system.h ****   * @{
 212:Drivers/STM32L1xx_HAL_Driver/Inc/stm32l1xx_ll_system.h ****   */
 213:Drivers/STM32L1xx_HAL_Driver/Inc/stm32l1xx_ll_system.h **** #define LL_RI_TIM_SELECT_NONE              (0x00000000U)           /*!< No timer selected */
 214:Drivers/STM32L1xx_HAL_Driver/Inc/stm32l1xx_ll_system.h **** #define LL_RI_TIM_SELECT_TIM2              RI_ICR_TIM_0            /*!< Timer 2 selected */
 215:Drivers/STM32L1xx_HAL_Driver/Inc/stm32l1xx_ll_system.h **** #define LL_RI_TIM_SELECT_TIM3              RI_ICR_TIM_1            /*!< Timer 3 selected */
 216:Drivers/STM32L1xx_HAL_Driver/Inc/stm32l1xx_ll_system.h **** #define LL_RI_TIM_SELECT_TIM4              RI_ICR_TIM              /*!< Timer 4 selected */
 217:Drivers/STM32L1xx_HAL_Driver/Inc/stm32l1xx_ll_system.h **** /**
 218:Drivers/STM32L1xx_HAL_Driver/Inc/stm32l1xx_ll_system.h ****   * @}
 219:Drivers/STM32L1xx_HAL_Driver/Inc/stm32l1xx_ll_system.h ****   */
 220:Drivers/STM32L1xx_HAL_Driver/Inc/stm32l1xx_ll_system.h **** 
 221:Drivers/STM32L1xx_HAL_Driver/Inc/stm32l1xx_ll_system.h **** /** @defgroup SYSTEM_LL_EC_INPUTCAPTURE RI Input Capture number
 222:Drivers/STM32L1xx_HAL_Driver/Inc/stm32l1xx_ll_system.h ****   * @{
 223:Drivers/STM32L1xx_HAL_Driver/Inc/stm32l1xx_ll_system.h ****   */
 224:Drivers/STM32L1xx_HAL_Driver/Inc/stm32l1xx_ll_system.h **** #define LL_RI_INPUTCAPTURE_1               (RI_ICR_IC1 | RI_ICR_IC1OS) /*!< Input Capture 1 select 
 225:Drivers/STM32L1xx_HAL_Driver/Inc/stm32l1xx_ll_system.h **** #define LL_RI_INPUTCAPTURE_2               (RI_ICR_IC2 | RI_ICR_IC2OS) /*!< Input Capture 2 select 
 226:Drivers/STM32L1xx_HAL_Driver/Inc/stm32l1xx_ll_system.h **** #define LL_RI_INPUTCAPTURE_3               (RI_ICR_IC3 | RI_ICR_IC3OS) /*!< Input Capture 3 select 
 227:Drivers/STM32L1xx_HAL_Driver/Inc/stm32l1xx_ll_system.h **** #define LL_RI_INPUTCAPTURE_4               (RI_ICR_IC4 | RI_ICR_IC4OS) /*!< Input Capture 4 select 
 228:Drivers/STM32L1xx_HAL_Driver/Inc/stm32l1xx_ll_system.h **** /**
 229:Drivers/STM32L1xx_HAL_Driver/Inc/stm32l1xx_ll_system.h ****   * @}
 230:Drivers/STM32L1xx_HAL_Driver/Inc/stm32l1xx_ll_system.h ****   */
 231:Drivers/STM32L1xx_HAL_Driver/Inc/stm32l1xx_ll_system.h **** 
 232:Drivers/STM32L1xx_HAL_Driver/Inc/stm32l1xx_ll_system.h **** /** @defgroup SYSTEM_LL_EC_INPUTCAPTUREROUTING RI Input Capture Routing
 233:Drivers/STM32L1xx_HAL_Driver/Inc/stm32l1xx_ll_system.h ****   * @{
 234:Drivers/STM32L1xx_HAL_Driver/Inc/stm32l1xx_ll_system.h ****   */
 235:Drivers/STM32L1xx_HAL_Driver/Inc/stm32l1xx_ll_system.h ****                                                          /* TIMx_IC1 TIMx_IC2  TIMx_IC3  TIMx_IC4  
ARM GAS  C:\Users\domen\AppData\Local\Temp\ccgakVxa.s 			page 33


 236:Drivers/STM32L1xx_HAL_Driver/Inc/stm32l1xx_ll_system.h **** #define LL_RI_INPUTCAPTUREROUTING_0        (0x00000000U) /*!< PA0       PA1      PA2       PA3     
 237:Drivers/STM32L1xx_HAL_Driver/Inc/stm32l1xx_ll_system.h **** #define LL_RI_INPUTCAPTUREROUTING_1        (0x00000001U) /*!< PA4       PA5      PA6       PA7     
 238:Drivers/STM32L1xx_HAL_Driver/Inc/stm32l1xx_ll_system.h **** #define LL_RI_INPUTCAPTUREROUTING_2        (0x00000002U) /*!< PA8       PA9      PA10      PA11    
 239:Drivers/STM32L1xx_HAL_Driver/Inc/stm32l1xx_ll_system.h **** #define LL_RI_INPUTCAPTUREROUTING_3        (0x00000003U) /*!< PA12      PA13     PA14      PA15    
 240:Drivers/STM32L1xx_HAL_Driver/Inc/stm32l1xx_ll_system.h **** #define LL_RI_INPUTCAPTUREROUTING_4        (0x00000004U) /*!< PC0       PC1      PC2       PC3     
 241:Drivers/STM32L1xx_HAL_Driver/Inc/stm32l1xx_ll_system.h **** #define LL_RI_INPUTCAPTUREROUTING_5        (0x00000005U) /*!< PC4       PC5      PC6       PC7     
 242:Drivers/STM32L1xx_HAL_Driver/Inc/stm32l1xx_ll_system.h **** #define LL_RI_INPUTCAPTUREROUTING_6        (0x00000006U) /*!< PC8       PC9      PC10      PC11    
 243:Drivers/STM32L1xx_HAL_Driver/Inc/stm32l1xx_ll_system.h **** #define LL_RI_INPUTCAPTUREROUTING_7        (0x00000007U) /*!< PC12      PC13     PC14      PC15    
 244:Drivers/STM32L1xx_HAL_Driver/Inc/stm32l1xx_ll_system.h **** #define LL_RI_INPUTCAPTUREROUTING_8        (0x00000008U) /*!< PD0       PD1      PD2       PD3     
 245:Drivers/STM32L1xx_HAL_Driver/Inc/stm32l1xx_ll_system.h **** #define LL_RI_INPUTCAPTUREROUTING_9        (0x00000009U) /*!< PD4       PD5      PD6       PD7     
 246:Drivers/STM32L1xx_HAL_Driver/Inc/stm32l1xx_ll_system.h **** #define LL_RI_INPUTCAPTUREROUTING_10       (0x0000000AU) /*!< PD8       PD9      PD10      PD11    
 247:Drivers/STM32L1xx_HAL_Driver/Inc/stm32l1xx_ll_system.h **** #define LL_RI_INPUTCAPTUREROUTING_11       (0x0000000BU) /*!< PD12      PD13     PD14      PD15    
 248:Drivers/STM32L1xx_HAL_Driver/Inc/stm32l1xx_ll_system.h **** #if defined(GPIOE)
 249:Drivers/STM32L1xx_HAL_Driver/Inc/stm32l1xx_ll_system.h **** #define LL_RI_INPUTCAPTUREROUTING_12       (0x0000000CU) /*!< PE0       PE1      PE2       PE3     
 250:Drivers/STM32L1xx_HAL_Driver/Inc/stm32l1xx_ll_system.h **** #define LL_RI_INPUTCAPTUREROUTING_13       (0x0000000DU) /*!< PE4       PE5      PE6       PE7     
 251:Drivers/STM32L1xx_HAL_Driver/Inc/stm32l1xx_ll_system.h **** #define LL_RI_INPUTCAPTUREROUTING_14       (0x0000000EU) /*!< PE8       PE9      PE10      PE11    
 252:Drivers/STM32L1xx_HAL_Driver/Inc/stm32l1xx_ll_system.h **** #define LL_RI_INPUTCAPTUREROUTING_15       (0x0000000FU) /*!< PE12      PE13     PE14      PE15    
 253:Drivers/STM32L1xx_HAL_Driver/Inc/stm32l1xx_ll_system.h **** #endif /* GPIOE */
 254:Drivers/STM32L1xx_HAL_Driver/Inc/stm32l1xx_ll_system.h **** /**
 255:Drivers/STM32L1xx_HAL_Driver/Inc/stm32l1xx_ll_system.h ****   * @}
 256:Drivers/STM32L1xx_HAL_Driver/Inc/stm32l1xx_ll_system.h ****   */
 257:Drivers/STM32L1xx_HAL_Driver/Inc/stm32l1xx_ll_system.h **** 
 258:Drivers/STM32L1xx_HAL_Driver/Inc/stm32l1xx_ll_system.h **** /** @defgroup SYSTEM_LL_EC_IOSWITCH_LINKED_ADC RI IO Switch linked to ADC
 259:Drivers/STM32L1xx_HAL_Driver/Inc/stm32l1xx_ll_system.h ****   * @{
 260:Drivers/STM32L1xx_HAL_Driver/Inc/stm32l1xx_ll_system.h ****   */
 261:Drivers/STM32L1xx_HAL_Driver/Inc/stm32l1xx_ll_system.h **** #define LL_RI_IOSWITCH_CH0                 RI_ASCR1_CH_0    /*!< CH[3:0] GR1[4:1]: I/O Analog switc
 262:Drivers/STM32L1xx_HAL_Driver/Inc/stm32l1xx_ll_system.h **** #define LL_RI_IOSWITCH_CH1                 RI_ASCR1_CH_1    /*!< CH[3:0] GR1[4:1]: I/O Analog switc
 263:Drivers/STM32L1xx_HAL_Driver/Inc/stm32l1xx_ll_system.h **** #define LL_RI_IOSWITCH_CH2                 RI_ASCR1_CH_2    /*!< CH[3:0] GR1[4:1]: I/O Analog switc
 264:Drivers/STM32L1xx_HAL_Driver/Inc/stm32l1xx_ll_system.h **** #define LL_RI_IOSWITCH_CH3                 RI_ASCR1_CH_3    /*!< CH[3:0] GR1[4:1]: I/O Analog switc
 265:Drivers/STM32L1xx_HAL_Driver/Inc/stm32l1xx_ll_system.h **** #define LL_RI_IOSWITCH_CH4                 RI_ASCR1_CH_4    /*!< CH4: Analog switch control     */
 266:Drivers/STM32L1xx_HAL_Driver/Inc/stm32l1xx_ll_system.h **** #define LL_RI_IOSWITCH_CH5                 RI_ASCR1_CH_5    /*!< CH5: Comparator 1 analog switch*/
 267:Drivers/STM32L1xx_HAL_Driver/Inc/stm32l1xx_ll_system.h **** #define LL_RI_IOSWITCH_CH6                 RI_ASCR1_CH_6    /*!< CH[7:6] GR2[2:1]: I/O Analog switc
 268:Drivers/STM32L1xx_HAL_Driver/Inc/stm32l1xx_ll_system.h **** #define LL_RI_IOSWITCH_CH7                 RI_ASCR1_CH_7    /*!< CH[7:6] GR2[2:1]: I/O Analog switc
 269:Drivers/STM32L1xx_HAL_Driver/Inc/stm32l1xx_ll_system.h **** #define LL_RI_IOSWITCH_CH8                 RI_ASCR1_CH_8    /*!< CH[9:8] GR3[2:1]: I/O Analog switc
 270:Drivers/STM32L1xx_HAL_Driver/Inc/stm32l1xx_ll_system.h **** #define LL_RI_IOSWITCH_CH9                 RI_ASCR1_CH_9    /*!< CH[9:8] GR3[2:1]: I/O Analog switc
 271:Drivers/STM32L1xx_HAL_Driver/Inc/stm32l1xx_ll_system.h **** #define LL_RI_IOSWITCH_CH10                RI_ASCR1_CH_10   /*!< CH[13:10] GR8[4:1]: I/O Analog swi
 272:Drivers/STM32L1xx_HAL_Driver/Inc/stm32l1xx_ll_system.h **** #define LL_RI_IOSWITCH_CH11                RI_ASCR1_CH_11   /*!< CH[13:10] GR8[4:1]: I/O Analog swi
 273:Drivers/STM32L1xx_HAL_Driver/Inc/stm32l1xx_ll_system.h **** #define LL_RI_IOSWITCH_CH12                RI_ASCR1_CH_12   /*!< CH[13:10] GR8[4:1]: I/O Analog swi
 274:Drivers/STM32L1xx_HAL_Driver/Inc/stm32l1xx_ll_system.h **** #define LL_RI_IOSWITCH_CH13                RI_ASCR1_CH_13   /*!< CH[13:10] GR8[4:1]: I/O Analog swi
 275:Drivers/STM32L1xx_HAL_Driver/Inc/stm32l1xx_ll_system.h **** #define LL_RI_IOSWITCH_CH14                RI_ASCR1_CH_14   /*!< CH[15:14] GR9[2:1]: I/O Analog swi
 276:Drivers/STM32L1xx_HAL_Driver/Inc/stm32l1xx_ll_system.h **** #define LL_RI_IOSWITCH_CH15                RI_ASCR1_CH_15   /*!< CH[15:14] GR9[2:1]: I/O Analog swi
 277:Drivers/STM32L1xx_HAL_Driver/Inc/stm32l1xx_ll_system.h **** #define LL_RI_IOSWITCH_CH18                RI_ASCR1_CH_18   /*!< CH[21:18]/GR7[4:1]: I/O Analog swi
 278:Drivers/STM32L1xx_HAL_Driver/Inc/stm32l1xx_ll_system.h **** #define LL_RI_IOSWITCH_CH19                RI_ASCR1_CH_19   /*!< CH[21:18]/GR7[4:1]: I/O Analog swi
 279:Drivers/STM32L1xx_HAL_Driver/Inc/stm32l1xx_ll_system.h **** #define LL_RI_IOSWITCH_CH20                RI_ASCR1_CH_20   /*!< CH[21:18]/GR7[4:1]: I/O Analog swi
 280:Drivers/STM32L1xx_HAL_Driver/Inc/stm32l1xx_ll_system.h **** #define LL_RI_IOSWITCH_CH21                RI_ASCR1_CH_21   /*!< CH[21:18]/GR7[4:1]: I/O Analog swi
 281:Drivers/STM32L1xx_HAL_Driver/Inc/stm32l1xx_ll_system.h **** #define LL_RI_IOSWITCH_CH22                RI_ASCR1_CH_22   /*!< Analog I/O switch control of chann
 282:Drivers/STM32L1xx_HAL_Driver/Inc/stm32l1xx_ll_system.h **** #define LL_RI_IOSWITCH_CH23                RI_ASCR1_CH_23   /*!< Analog I/O switch control of chann
 283:Drivers/STM32L1xx_HAL_Driver/Inc/stm32l1xx_ll_system.h **** #define LL_RI_IOSWITCH_CH24                RI_ASCR1_CH_24   /*!< Analog I/O switch control of chann
 284:Drivers/STM32L1xx_HAL_Driver/Inc/stm32l1xx_ll_system.h **** #define LL_RI_IOSWITCH_CH25                RI_ASCR1_CH_25   /*!< Analog I/O switch control of chann
 285:Drivers/STM32L1xx_HAL_Driver/Inc/stm32l1xx_ll_system.h **** #define LL_RI_IOSWITCH_VCOMP               RI_ASCR1_VCOMP   /*!< VCOMP (ADC channel 26) is an inter
 286:Drivers/STM32L1xx_HAL_Driver/Inc/stm32l1xx_ll_system.h ****                                                                  used to connect selected channel t
 287:Drivers/STM32L1xx_HAL_Driver/Inc/stm32l1xx_ll_system.h **** #if defined(RI_ASCR1_CH_27)
 288:Drivers/STM32L1xx_HAL_Driver/Inc/stm32l1xx_ll_system.h **** #define LL_RI_IOSWITCH_CH27                RI_ASCR1_CH_27   /*!< CH[30:27]/GR11[4:1]: I/O Analog sw
 289:Drivers/STM32L1xx_HAL_Driver/Inc/stm32l1xx_ll_system.h **** #define LL_RI_IOSWITCH_CH28                RI_ASCR1_CH_28   /*!< CH[30:27]/GR11[4:1]: I/O Analog sw
 290:Drivers/STM32L1xx_HAL_Driver/Inc/stm32l1xx_ll_system.h **** #define LL_RI_IOSWITCH_CH29                RI_ASCR1_CH_29   /*!< CH[30:27]/GR11[4:1]: I/O Analog sw
 291:Drivers/STM32L1xx_HAL_Driver/Inc/stm32l1xx_ll_system.h **** #define LL_RI_IOSWITCH_CH30                RI_ASCR1_CH_30   /*!< CH[30:27]/GR11[4:1]: I/O Analog sw
 292:Drivers/STM32L1xx_HAL_Driver/Inc/stm32l1xx_ll_system.h **** #define LL_RI_IOSWITCH_CH31                RI_ASCR1_CH_31   /*!< CH31/GR11-5 I/O Analog switch cont
ARM GAS  C:\Users\domen\AppData\Local\Temp\ccgakVxa.s 			page 34


 293:Drivers/STM32L1xx_HAL_Driver/Inc/stm32l1xx_ll_system.h **** #endif /* RI_ASCR1_CH_27 */
 294:Drivers/STM32L1xx_HAL_Driver/Inc/stm32l1xx_ll_system.h **** /**
 295:Drivers/STM32L1xx_HAL_Driver/Inc/stm32l1xx_ll_system.h ****   * @}
 296:Drivers/STM32L1xx_HAL_Driver/Inc/stm32l1xx_ll_system.h ****   */
 297:Drivers/STM32L1xx_HAL_Driver/Inc/stm32l1xx_ll_system.h **** 
 298:Drivers/STM32L1xx_HAL_Driver/Inc/stm32l1xx_ll_system.h **** /** @defgroup SYSTEM_LL_EC_IOSWITCH_NOT_LINKED_ADC RI IO Switch not linked to ADC
 299:Drivers/STM32L1xx_HAL_Driver/Inc/stm32l1xx_ll_system.h ****   * @{
 300:Drivers/STM32L1xx_HAL_Driver/Inc/stm32l1xx_ll_system.h ****   */
 301:Drivers/STM32L1xx_HAL_Driver/Inc/stm32l1xx_ll_system.h **** #define LL_RI_IOSWITCH_GR10_1              RI_ASCR2_GR10_1 /*!< GR10-1 I/O analog switch control */
 302:Drivers/STM32L1xx_HAL_Driver/Inc/stm32l1xx_ll_system.h **** #define LL_RI_IOSWITCH_GR10_2              RI_ASCR2_GR10_2 /*!< GR10-2 I/O analog switch control */
 303:Drivers/STM32L1xx_HAL_Driver/Inc/stm32l1xx_ll_system.h **** #define LL_RI_IOSWITCH_GR10_3              RI_ASCR2_GR10_3 /*!< GR10-3 I/O analog switch control */
 304:Drivers/STM32L1xx_HAL_Driver/Inc/stm32l1xx_ll_system.h **** #define LL_RI_IOSWITCH_GR10_4              RI_ASCR2_GR10_4 /*!< GR10-4 I/O analog switch control */
 305:Drivers/STM32L1xx_HAL_Driver/Inc/stm32l1xx_ll_system.h **** #define LL_RI_IOSWITCH_GR6_1               RI_ASCR2_GR6_1  /*!< GR6-1 I/O analog switch control  */
 306:Drivers/STM32L1xx_HAL_Driver/Inc/stm32l1xx_ll_system.h **** #define LL_RI_IOSWITCH_GR6_2               RI_ASCR2_GR6_2  /*!< GR6-2 I/O analog switch control  */
 307:Drivers/STM32L1xx_HAL_Driver/Inc/stm32l1xx_ll_system.h **** #define LL_RI_IOSWITCH_GR5_1               RI_ASCR2_GR5_1  /*!< GR5-1 I/O analog switch control  */
 308:Drivers/STM32L1xx_HAL_Driver/Inc/stm32l1xx_ll_system.h **** #define LL_RI_IOSWITCH_GR5_2               RI_ASCR2_GR5_2  /*!< GR5-2 I/O analog switch control  */
 309:Drivers/STM32L1xx_HAL_Driver/Inc/stm32l1xx_ll_system.h **** #define LL_RI_IOSWITCH_GR5_3               RI_ASCR2_GR5_3  /*!< GR5-3 I/O analog switch control  */
 310:Drivers/STM32L1xx_HAL_Driver/Inc/stm32l1xx_ll_system.h **** #define LL_RI_IOSWITCH_GR4_1               RI_ASCR2_GR4_1  /*!< GR4-1 I/O analog switch control  */
 311:Drivers/STM32L1xx_HAL_Driver/Inc/stm32l1xx_ll_system.h **** #define LL_RI_IOSWITCH_GR4_2               RI_ASCR2_GR4_2  /*!< GR4-2 I/O analog switch control  */
 312:Drivers/STM32L1xx_HAL_Driver/Inc/stm32l1xx_ll_system.h **** #define LL_RI_IOSWITCH_GR4_3               RI_ASCR2_GR4_3  /*!< GR4-3 I/O analog switch control  */
 313:Drivers/STM32L1xx_HAL_Driver/Inc/stm32l1xx_ll_system.h **** #if defined(RI_ASCR2_CH0b)
 314:Drivers/STM32L1xx_HAL_Driver/Inc/stm32l1xx_ll_system.h **** #define LL_RI_IOSWITCH_CH0b                RI_ASCR2_CH0b   /*!< CH0b-GR03-3 I/O analog switch contr
 315:Drivers/STM32L1xx_HAL_Driver/Inc/stm32l1xx_ll_system.h **** #if defined(RI_ASCR2_CH1b)
 316:Drivers/STM32L1xx_HAL_Driver/Inc/stm32l1xx_ll_system.h **** #define LL_RI_IOSWITCH_CH1b                RI_ASCR2_CH1b   /*!< CH1b-GR03-4 I/O analog switch contr
 317:Drivers/STM32L1xx_HAL_Driver/Inc/stm32l1xx_ll_system.h **** #define LL_RI_IOSWITCH_CH2b                RI_ASCR2_CH2b   /*!< CH2b-GR03-5 I/O analog switch contr
 318:Drivers/STM32L1xx_HAL_Driver/Inc/stm32l1xx_ll_system.h **** #define LL_RI_IOSWITCH_CH3b                RI_ASCR2_CH3b   /*!< CH3b-GR09-3 I/O analog switch contr
 319:Drivers/STM32L1xx_HAL_Driver/Inc/stm32l1xx_ll_system.h **** #define LL_RI_IOSWITCH_CH6b                RI_ASCR2_CH6b   /*!< CH6b-GR09-4 I/O analog switch contr
 320:Drivers/STM32L1xx_HAL_Driver/Inc/stm32l1xx_ll_system.h **** #define LL_RI_IOSWITCH_CH7b                RI_ASCR2_CH7b   /*!< CH7b-GR02-3 I/O analog switch contr
 321:Drivers/STM32L1xx_HAL_Driver/Inc/stm32l1xx_ll_system.h **** #define LL_RI_IOSWITCH_CH8b                RI_ASCR2_CH8b   /*!< CH8b-GR02-4 I/O analog switch contr
 322:Drivers/STM32L1xx_HAL_Driver/Inc/stm32l1xx_ll_system.h **** #define LL_RI_IOSWITCH_CH9b                RI_ASCR2_CH9b   /*!< CH9b-GR02-5 I/O analog switch contr
 323:Drivers/STM32L1xx_HAL_Driver/Inc/stm32l1xx_ll_system.h **** #define LL_RI_IOSWITCH_CH10b               RI_ASCR2_CH10b  /*!< CH10b-GR07-5 I/O analog switch cont
 324:Drivers/STM32L1xx_HAL_Driver/Inc/stm32l1xx_ll_system.h **** #define LL_RI_IOSWITCH_CH11b               RI_ASCR2_CH11b  /*!< CH11b-GR07-6 I/O analog switch cont
 325:Drivers/STM32L1xx_HAL_Driver/Inc/stm32l1xx_ll_system.h **** #define LL_RI_IOSWITCH_CH12b               RI_ASCR2_CH12b  /*!< CH12b-GR07-7 I/O analog switch cont
 326:Drivers/STM32L1xx_HAL_Driver/Inc/stm32l1xx_ll_system.h **** #endif /* RI_ASCR2_CH1b */
 327:Drivers/STM32L1xx_HAL_Driver/Inc/stm32l1xx_ll_system.h **** #define LL_RI_IOSWITCH_GR6_3               RI_ASCR2_GR6_3  /*!< GR6-3 I/O analog switch control  */
 328:Drivers/STM32L1xx_HAL_Driver/Inc/stm32l1xx_ll_system.h **** #define LL_RI_IOSWITCH_GR6_4               RI_ASCR2_GR6_4  /*!< GR6-4 I/O analog switch control  */
 329:Drivers/STM32L1xx_HAL_Driver/Inc/stm32l1xx_ll_system.h **** #endif /* RI_ASCR2_CH0b */
 330:Drivers/STM32L1xx_HAL_Driver/Inc/stm32l1xx_ll_system.h **** /**
 331:Drivers/STM32L1xx_HAL_Driver/Inc/stm32l1xx_ll_system.h ****   * @}
 332:Drivers/STM32L1xx_HAL_Driver/Inc/stm32l1xx_ll_system.h ****   */
 333:Drivers/STM32L1xx_HAL_Driver/Inc/stm32l1xx_ll_system.h **** 
 334:Drivers/STM32L1xx_HAL_Driver/Inc/stm32l1xx_ll_system.h **** /** @defgroup SYSTEM_LL_EC_HSYTERESIS_PORT RI HSYTERESIS PORT
 335:Drivers/STM32L1xx_HAL_Driver/Inc/stm32l1xx_ll_system.h ****   * @{
 336:Drivers/STM32L1xx_HAL_Driver/Inc/stm32l1xx_ll_system.h ****   */
 337:Drivers/STM32L1xx_HAL_Driver/Inc/stm32l1xx_ll_system.h **** #define LL_RI_HSYTERESIS_PORT_A            0U         /*!< HYSTERESIS PORT A  */
 338:Drivers/STM32L1xx_HAL_Driver/Inc/stm32l1xx_ll_system.h **** #define LL_RI_HSYTERESIS_PORT_B            1U         /*!< HYSTERESIS PORT B  */
 339:Drivers/STM32L1xx_HAL_Driver/Inc/stm32l1xx_ll_system.h **** #define LL_RI_HSYTERESIS_PORT_C            2U         /*!< HYSTERESIS PORT C  */
 340:Drivers/STM32L1xx_HAL_Driver/Inc/stm32l1xx_ll_system.h **** #define LL_RI_HSYTERESIS_PORT_D            3U         /*!< HYSTERESIS PORT D  */
 341:Drivers/STM32L1xx_HAL_Driver/Inc/stm32l1xx_ll_system.h **** #if defined(GPIOE)
 342:Drivers/STM32L1xx_HAL_Driver/Inc/stm32l1xx_ll_system.h **** #define LL_RI_HSYTERESIS_PORT_E            4U         /*!< HYSTERESIS PORT E  */
 343:Drivers/STM32L1xx_HAL_Driver/Inc/stm32l1xx_ll_system.h **** #endif /* GPIOE */
 344:Drivers/STM32L1xx_HAL_Driver/Inc/stm32l1xx_ll_system.h **** #if defined(GPIOF)
 345:Drivers/STM32L1xx_HAL_Driver/Inc/stm32l1xx_ll_system.h **** #define LL_RI_HSYTERESIS_PORT_F            5U         /*!< HYSTERESIS PORT F  */
 346:Drivers/STM32L1xx_HAL_Driver/Inc/stm32l1xx_ll_system.h **** #endif /* GPIOF */
 347:Drivers/STM32L1xx_HAL_Driver/Inc/stm32l1xx_ll_system.h **** #if defined(GPIOG)
 348:Drivers/STM32L1xx_HAL_Driver/Inc/stm32l1xx_ll_system.h **** #define LL_RI_HSYTERESIS_PORT_G            6U         /*!< HYSTERESIS PORT G  */
 349:Drivers/STM32L1xx_HAL_Driver/Inc/stm32l1xx_ll_system.h **** #endif /* GPIOG */
ARM GAS  C:\Users\domen\AppData\Local\Temp\ccgakVxa.s 			page 35


 350:Drivers/STM32L1xx_HAL_Driver/Inc/stm32l1xx_ll_system.h **** /**
 351:Drivers/STM32L1xx_HAL_Driver/Inc/stm32l1xx_ll_system.h ****   * @}
 352:Drivers/STM32L1xx_HAL_Driver/Inc/stm32l1xx_ll_system.h ****   */
 353:Drivers/STM32L1xx_HAL_Driver/Inc/stm32l1xx_ll_system.h **** 
 354:Drivers/STM32L1xx_HAL_Driver/Inc/stm32l1xx_ll_system.h **** /** @defgroup SYSTEM_LL_EC_PIN RI PIN
 355:Drivers/STM32L1xx_HAL_Driver/Inc/stm32l1xx_ll_system.h ****   * @{
 356:Drivers/STM32L1xx_HAL_Driver/Inc/stm32l1xx_ll_system.h ****   */
 357:Drivers/STM32L1xx_HAL_Driver/Inc/stm32l1xx_ll_system.h **** #define LL_RI_PIN_0                        ((uint16_t)0x0001U)  /*!< Pin 0 selected */
 358:Drivers/STM32L1xx_HAL_Driver/Inc/stm32l1xx_ll_system.h **** #define LL_RI_PIN_1                        ((uint16_t)0x0002U)  /*!< Pin 1 selected */
 359:Drivers/STM32L1xx_HAL_Driver/Inc/stm32l1xx_ll_system.h **** #define LL_RI_PIN_2                        ((uint16_t)0x0004U)  /*!< Pin 2 selected */
 360:Drivers/STM32L1xx_HAL_Driver/Inc/stm32l1xx_ll_system.h **** #define LL_RI_PIN_3                        ((uint16_t)0x0008U)  /*!< Pin 3 selected */
 361:Drivers/STM32L1xx_HAL_Driver/Inc/stm32l1xx_ll_system.h **** #define LL_RI_PIN_4                        ((uint16_t)0x0010U)  /*!< Pin 4 selected */
 362:Drivers/STM32L1xx_HAL_Driver/Inc/stm32l1xx_ll_system.h **** #define LL_RI_PIN_5                        ((uint16_t)0x0020U)  /*!< Pin 5 selected */
 363:Drivers/STM32L1xx_HAL_Driver/Inc/stm32l1xx_ll_system.h **** #define LL_RI_PIN_6                        ((uint16_t)0x0040U)  /*!< Pin 6 selected */
 364:Drivers/STM32L1xx_HAL_Driver/Inc/stm32l1xx_ll_system.h **** #define LL_RI_PIN_7                        ((uint16_t)0x0080U)  /*!< Pin 7 selected */
 365:Drivers/STM32L1xx_HAL_Driver/Inc/stm32l1xx_ll_system.h **** #define LL_RI_PIN_8                        ((uint16_t)0x0100U)  /*!< Pin 8 selected */
 366:Drivers/STM32L1xx_HAL_Driver/Inc/stm32l1xx_ll_system.h **** #define LL_RI_PIN_9                        ((uint16_t)0x0200U)  /*!< Pin 9 selected */
 367:Drivers/STM32L1xx_HAL_Driver/Inc/stm32l1xx_ll_system.h **** #define LL_RI_PIN_10                       ((uint16_t)0x0400U)  /*!< Pin 10 selected */
 368:Drivers/STM32L1xx_HAL_Driver/Inc/stm32l1xx_ll_system.h **** #define LL_RI_PIN_11                       ((uint16_t)0x0800U)  /*!< Pin 11 selected */
 369:Drivers/STM32L1xx_HAL_Driver/Inc/stm32l1xx_ll_system.h **** #define LL_RI_PIN_12                       ((uint16_t)0x1000U)  /*!< Pin 12 selected */
 370:Drivers/STM32L1xx_HAL_Driver/Inc/stm32l1xx_ll_system.h **** #define LL_RI_PIN_13                       ((uint16_t)0x2000U)  /*!< Pin 13 selected */
 371:Drivers/STM32L1xx_HAL_Driver/Inc/stm32l1xx_ll_system.h **** #define LL_RI_PIN_14                       ((uint16_t)0x4000U)  /*!< Pin 14 selected */
 372:Drivers/STM32L1xx_HAL_Driver/Inc/stm32l1xx_ll_system.h **** #define LL_RI_PIN_15                       ((uint16_t)0x8000U)  /*!< Pin 15 selected */
 373:Drivers/STM32L1xx_HAL_Driver/Inc/stm32l1xx_ll_system.h **** #define LL_RI_PIN_ALL                      ((uint16_t)0xFFFFU)  /*!< All pins selected */
 374:Drivers/STM32L1xx_HAL_Driver/Inc/stm32l1xx_ll_system.h **** /**
 375:Drivers/STM32L1xx_HAL_Driver/Inc/stm32l1xx_ll_system.h ****   * @}
 376:Drivers/STM32L1xx_HAL_Driver/Inc/stm32l1xx_ll_system.h ****   */
 377:Drivers/STM32L1xx_HAL_Driver/Inc/stm32l1xx_ll_system.h **** 
 378:Drivers/STM32L1xx_HAL_Driver/Inc/stm32l1xx_ll_system.h **** #if defined(RI_ASMR1_PA)
 379:Drivers/STM32L1xx_HAL_Driver/Inc/stm32l1xx_ll_system.h **** /** @defgroup SYSTEM_LL_EC_PORT RI PORT
 380:Drivers/STM32L1xx_HAL_Driver/Inc/stm32l1xx_ll_system.h ****   * @{
 381:Drivers/STM32L1xx_HAL_Driver/Inc/stm32l1xx_ll_system.h ****   */
 382:Drivers/STM32L1xx_HAL_Driver/Inc/stm32l1xx_ll_system.h **** #define LL_RI_PORT_A                       0U         /*!< PORT A   */
 383:Drivers/STM32L1xx_HAL_Driver/Inc/stm32l1xx_ll_system.h **** #define LL_RI_PORT_B                       1U         /*!< PORT B   */
 384:Drivers/STM32L1xx_HAL_Driver/Inc/stm32l1xx_ll_system.h **** #define LL_RI_PORT_C                       2U         /*!< PORT C   */
 385:Drivers/STM32L1xx_HAL_Driver/Inc/stm32l1xx_ll_system.h **** #if defined(GPIOF)
 386:Drivers/STM32L1xx_HAL_Driver/Inc/stm32l1xx_ll_system.h **** #define LL_RI_PORT_F                       3U         /*!< PORT F   */
 387:Drivers/STM32L1xx_HAL_Driver/Inc/stm32l1xx_ll_system.h **** #endif /* GPIOF */
 388:Drivers/STM32L1xx_HAL_Driver/Inc/stm32l1xx_ll_system.h **** #if defined(GPIOG)
 389:Drivers/STM32L1xx_HAL_Driver/Inc/stm32l1xx_ll_system.h **** #define LL_RI_PORT_G                       4U         /*!< PORT G   */
 390:Drivers/STM32L1xx_HAL_Driver/Inc/stm32l1xx_ll_system.h **** #endif /* GPIOG */
 391:Drivers/STM32L1xx_HAL_Driver/Inc/stm32l1xx_ll_system.h **** /**
 392:Drivers/STM32L1xx_HAL_Driver/Inc/stm32l1xx_ll_system.h ****   * @}
 393:Drivers/STM32L1xx_HAL_Driver/Inc/stm32l1xx_ll_system.h ****   */
 394:Drivers/STM32L1xx_HAL_Driver/Inc/stm32l1xx_ll_system.h **** 
 395:Drivers/STM32L1xx_HAL_Driver/Inc/stm32l1xx_ll_system.h **** #endif /* RI_ASMR1_PA */
 396:Drivers/STM32L1xx_HAL_Driver/Inc/stm32l1xx_ll_system.h **** 
 397:Drivers/STM32L1xx_HAL_Driver/Inc/stm32l1xx_ll_system.h **** 
 398:Drivers/STM32L1xx_HAL_Driver/Inc/stm32l1xx_ll_system.h **** /** @defgroup SYSTEM_LL_EC_LATENCY FLASH LATENCY
 399:Drivers/STM32L1xx_HAL_Driver/Inc/stm32l1xx_ll_system.h ****   * @{
 400:Drivers/STM32L1xx_HAL_Driver/Inc/stm32l1xx_ll_system.h ****   */
 401:Drivers/STM32L1xx_HAL_Driver/Inc/stm32l1xx_ll_system.h **** #define LL_FLASH_LATENCY_0                 0x00000000U             /*!< FLASH Zero Latency cycle */
 402:Drivers/STM32L1xx_HAL_Driver/Inc/stm32l1xx_ll_system.h **** #define LL_FLASH_LATENCY_1                 FLASH_ACR_LATENCY       /*!< FLASH One Latency cycle */
 403:Drivers/STM32L1xx_HAL_Driver/Inc/stm32l1xx_ll_system.h **** /**
 404:Drivers/STM32L1xx_HAL_Driver/Inc/stm32l1xx_ll_system.h ****   * @}
 405:Drivers/STM32L1xx_HAL_Driver/Inc/stm32l1xx_ll_system.h ****   */
 406:Drivers/STM32L1xx_HAL_Driver/Inc/stm32l1xx_ll_system.h **** 
ARM GAS  C:\Users\domen\AppData\Local\Temp\ccgakVxa.s 			page 36


 407:Drivers/STM32L1xx_HAL_Driver/Inc/stm32l1xx_ll_system.h **** /**
 408:Drivers/STM32L1xx_HAL_Driver/Inc/stm32l1xx_ll_system.h ****   * @}
 409:Drivers/STM32L1xx_HAL_Driver/Inc/stm32l1xx_ll_system.h ****   */
 410:Drivers/STM32L1xx_HAL_Driver/Inc/stm32l1xx_ll_system.h **** 
 411:Drivers/STM32L1xx_HAL_Driver/Inc/stm32l1xx_ll_system.h **** /* Exported macro ------------------------------------------------------------*/
 412:Drivers/STM32L1xx_HAL_Driver/Inc/stm32l1xx_ll_system.h **** 
 413:Drivers/STM32L1xx_HAL_Driver/Inc/stm32l1xx_ll_system.h **** /* Exported functions --------------------------------------------------------*/
 414:Drivers/STM32L1xx_HAL_Driver/Inc/stm32l1xx_ll_system.h **** /** @defgroup SYSTEM_LL_Exported_Functions SYSTEM Exported Functions
 415:Drivers/STM32L1xx_HAL_Driver/Inc/stm32l1xx_ll_system.h ****   * @{
 416:Drivers/STM32L1xx_HAL_Driver/Inc/stm32l1xx_ll_system.h ****   */
 417:Drivers/STM32L1xx_HAL_Driver/Inc/stm32l1xx_ll_system.h **** 
 418:Drivers/STM32L1xx_HAL_Driver/Inc/stm32l1xx_ll_system.h **** /** @defgroup SYSTEM_LL_EF_SYSCFG SYSCFG
 419:Drivers/STM32L1xx_HAL_Driver/Inc/stm32l1xx_ll_system.h ****   * @{
 420:Drivers/STM32L1xx_HAL_Driver/Inc/stm32l1xx_ll_system.h ****   */
 421:Drivers/STM32L1xx_HAL_Driver/Inc/stm32l1xx_ll_system.h **** 
 422:Drivers/STM32L1xx_HAL_Driver/Inc/stm32l1xx_ll_system.h **** /**
 423:Drivers/STM32L1xx_HAL_Driver/Inc/stm32l1xx_ll_system.h ****   * @brief  Set memory mapping at address 0x00000000
 424:Drivers/STM32L1xx_HAL_Driver/Inc/stm32l1xx_ll_system.h ****   * @rmtoll SYSCFG_MEMRMP MEM_MODE      LL_SYSCFG_SetRemapMemory
 425:Drivers/STM32L1xx_HAL_Driver/Inc/stm32l1xx_ll_system.h ****   * @param  Memory This parameter can be one of the following values:
 426:Drivers/STM32L1xx_HAL_Driver/Inc/stm32l1xx_ll_system.h ****   *         @arg @ref LL_SYSCFG_REMAP_FLASH
 427:Drivers/STM32L1xx_HAL_Driver/Inc/stm32l1xx_ll_system.h ****   *         @arg @ref LL_SYSCFG_REMAP_SYSTEMFLASH
 428:Drivers/STM32L1xx_HAL_Driver/Inc/stm32l1xx_ll_system.h ****   *         @arg @ref LL_SYSCFG_REMAP_SRAM
 429:Drivers/STM32L1xx_HAL_Driver/Inc/stm32l1xx_ll_system.h ****   *         @arg @ref LL_SYSCFG_REMAP_FMC (*)
 430:Drivers/STM32L1xx_HAL_Driver/Inc/stm32l1xx_ll_system.h ****   *
 431:Drivers/STM32L1xx_HAL_Driver/Inc/stm32l1xx_ll_system.h ****   *         (*) value not defined in all devices
 432:Drivers/STM32L1xx_HAL_Driver/Inc/stm32l1xx_ll_system.h ****   * @retval None
 433:Drivers/STM32L1xx_HAL_Driver/Inc/stm32l1xx_ll_system.h ****   */
 434:Drivers/STM32L1xx_HAL_Driver/Inc/stm32l1xx_ll_system.h **** __STATIC_INLINE void LL_SYSCFG_SetRemapMemory(uint32_t Memory)
 435:Drivers/STM32L1xx_HAL_Driver/Inc/stm32l1xx_ll_system.h **** {
 436:Drivers/STM32L1xx_HAL_Driver/Inc/stm32l1xx_ll_system.h ****   MODIFY_REG(SYSCFG->MEMRMP, SYSCFG_MEMRMP_MEM_MODE, Memory);
 437:Drivers/STM32L1xx_HAL_Driver/Inc/stm32l1xx_ll_system.h **** }
 438:Drivers/STM32L1xx_HAL_Driver/Inc/stm32l1xx_ll_system.h **** 
 439:Drivers/STM32L1xx_HAL_Driver/Inc/stm32l1xx_ll_system.h **** /**
 440:Drivers/STM32L1xx_HAL_Driver/Inc/stm32l1xx_ll_system.h ****   * @brief  Get memory mapping at address 0x00000000
 441:Drivers/STM32L1xx_HAL_Driver/Inc/stm32l1xx_ll_system.h ****   * @rmtoll SYSCFG_MEMRMP MEM_MODE      LL_SYSCFG_GetRemapMemory
 442:Drivers/STM32L1xx_HAL_Driver/Inc/stm32l1xx_ll_system.h ****   * @retval Returned value can be one of the following values:
 443:Drivers/STM32L1xx_HAL_Driver/Inc/stm32l1xx_ll_system.h ****   *         @arg @ref LL_SYSCFG_REMAP_FLASH
 444:Drivers/STM32L1xx_HAL_Driver/Inc/stm32l1xx_ll_system.h ****   *         @arg @ref LL_SYSCFG_REMAP_SYSTEMFLASH
 445:Drivers/STM32L1xx_HAL_Driver/Inc/stm32l1xx_ll_system.h ****   *         @arg @ref LL_SYSCFG_REMAP_SRAM
 446:Drivers/STM32L1xx_HAL_Driver/Inc/stm32l1xx_ll_system.h ****   *         @arg @ref LL_SYSCFG_REMAP_FMC (*)
 447:Drivers/STM32L1xx_HAL_Driver/Inc/stm32l1xx_ll_system.h ****   *
 448:Drivers/STM32L1xx_HAL_Driver/Inc/stm32l1xx_ll_system.h ****   *         (*) value not defined in all devices.
 449:Drivers/STM32L1xx_HAL_Driver/Inc/stm32l1xx_ll_system.h ****   */
 450:Drivers/STM32L1xx_HAL_Driver/Inc/stm32l1xx_ll_system.h **** __STATIC_INLINE uint32_t LL_SYSCFG_GetRemapMemory(void)
 451:Drivers/STM32L1xx_HAL_Driver/Inc/stm32l1xx_ll_system.h **** {
 452:Drivers/STM32L1xx_HAL_Driver/Inc/stm32l1xx_ll_system.h ****   return (uint32_t)(READ_BIT(SYSCFG->MEMRMP, SYSCFG_MEMRMP_MEM_MODE));
 453:Drivers/STM32L1xx_HAL_Driver/Inc/stm32l1xx_ll_system.h **** }
 454:Drivers/STM32L1xx_HAL_Driver/Inc/stm32l1xx_ll_system.h **** 
 455:Drivers/STM32L1xx_HAL_Driver/Inc/stm32l1xx_ll_system.h **** /**
 456:Drivers/STM32L1xx_HAL_Driver/Inc/stm32l1xx_ll_system.h ****   * @brief  Return the boot mode as configured by user.
 457:Drivers/STM32L1xx_HAL_Driver/Inc/stm32l1xx_ll_system.h ****   * @rmtoll SYSCFG_MEMRMP BOOT_MODE     LL_SYSCFG_GetBootMode
 458:Drivers/STM32L1xx_HAL_Driver/Inc/stm32l1xx_ll_system.h ****   * @retval Returned value can be one of the following values:
 459:Drivers/STM32L1xx_HAL_Driver/Inc/stm32l1xx_ll_system.h ****   *         @arg @ref LL_SYSCFG_BOOTMODE_FLASH
 460:Drivers/STM32L1xx_HAL_Driver/Inc/stm32l1xx_ll_system.h ****   *         @arg @ref LL_SYSCFG_BOOTMODE_SYSTEMFLASH
 461:Drivers/STM32L1xx_HAL_Driver/Inc/stm32l1xx_ll_system.h ****   *         @arg @ref LL_SYSCFG_BOOTMODE_FSMC (*)
 462:Drivers/STM32L1xx_HAL_Driver/Inc/stm32l1xx_ll_system.h ****   *         @arg @ref LL_SYSCFG_BOOTMODE_SRAM
 463:Drivers/STM32L1xx_HAL_Driver/Inc/stm32l1xx_ll_system.h ****   *
ARM GAS  C:\Users\domen\AppData\Local\Temp\ccgakVxa.s 			page 37


 464:Drivers/STM32L1xx_HAL_Driver/Inc/stm32l1xx_ll_system.h ****   *         (*) value not defined in all devices.
 465:Drivers/STM32L1xx_HAL_Driver/Inc/stm32l1xx_ll_system.h ****   */
 466:Drivers/STM32L1xx_HAL_Driver/Inc/stm32l1xx_ll_system.h **** __STATIC_INLINE uint32_t LL_SYSCFG_GetBootMode(void)
 467:Drivers/STM32L1xx_HAL_Driver/Inc/stm32l1xx_ll_system.h **** {
 468:Drivers/STM32L1xx_HAL_Driver/Inc/stm32l1xx_ll_system.h ****   return (uint32_t)(READ_BIT(SYSCFG->MEMRMP, SYSCFG_MEMRMP_BOOT_MODE));
 469:Drivers/STM32L1xx_HAL_Driver/Inc/stm32l1xx_ll_system.h **** }
 470:Drivers/STM32L1xx_HAL_Driver/Inc/stm32l1xx_ll_system.h **** 
 471:Drivers/STM32L1xx_HAL_Driver/Inc/stm32l1xx_ll_system.h **** /**
 472:Drivers/STM32L1xx_HAL_Driver/Inc/stm32l1xx_ll_system.h ****   * @brief  Enable internal pull-up on USB DP line.
 473:Drivers/STM32L1xx_HAL_Driver/Inc/stm32l1xx_ll_system.h ****   * @rmtoll SYSCFG_PMC   USB_PU        LL_SYSCFG_EnableUSBPullUp
 474:Drivers/STM32L1xx_HAL_Driver/Inc/stm32l1xx_ll_system.h ****   * @retval None
 475:Drivers/STM32L1xx_HAL_Driver/Inc/stm32l1xx_ll_system.h ****   */
 476:Drivers/STM32L1xx_HAL_Driver/Inc/stm32l1xx_ll_system.h **** __STATIC_INLINE void LL_SYSCFG_EnableUSBPullUp(void)
 477:Drivers/STM32L1xx_HAL_Driver/Inc/stm32l1xx_ll_system.h **** {
 478:Drivers/STM32L1xx_HAL_Driver/Inc/stm32l1xx_ll_system.h ****   SET_BIT(SYSCFG->PMC, SYSCFG_PMC_USB_PU);
 479:Drivers/STM32L1xx_HAL_Driver/Inc/stm32l1xx_ll_system.h **** }
 480:Drivers/STM32L1xx_HAL_Driver/Inc/stm32l1xx_ll_system.h **** 
 481:Drivers/STM32L1xx_HAL_Driver/Inc/stm32l1xx_ll_system.h **** /**
 482:Drivers/STM32L1xx_HAL_Driver/Inc/stm32l1xx_ll_system.h ****   * @brief  Disable internal pull-up on USB DP line.
 483:Drivers/STM32L1xx_HAL_Driver/Inc/stm32l1xx_ll_system.h ****   * @rmtoll SYSCFG_PMC   USB_PU        LL_SYSCFG_DisableUSBPullUp
 484:Drivers/STM32L1xx_HAL_Driver/Inc/stm32l1xx_ll_system.h ****   * @retval None
 485:Drivers/STM32L1xx_HAL_Driver/Inc/stm32l1xx_ll_system.h ****   */
 486:Drivers/STM32L1xx_HAL_Driver/Inc/stm32l1xx_ll_system.h **** __STATIC_INLINE void LL_SYSCFG_DisableUSBPullUp(void)
 487:Drivers/STM32L1xx_HAL_Driver/Inc/stm32l1xx_ll_system.h **** {
 488:Drivers/STM32L1xx_HAL_Driver/Inc/stm32l1xx_ll_system.h ****   CLEAR_BIT(SYSCFG->PMC, SYSCFG_PMC_USB_PU);
 489:Drivers/STM32L1xx_HAL_Driver/Inc/stm32l1xx_ll_system.h **** }
 490:Drivers/STM32L1xx_HAL_Driver/Inc/stm32l1xx_ll_system.h **** 
 491:Drivers/STM32L1xx_HAL_Driver/Inc/stm32l1xx_ll_system.h **** #if defined(LCD)
 492:Drivers/STM32L1xx_HAL_Driver/Inc/stm32l1xx_ll_system.h **** /**
 493:Drivers/STM32L1xx_HAL_Driver/Inc/stm32l1xx_ll_system.h ****   * @brief  Enable decoupling capacitance connection.
 494:Drivers/STM32L1xx_HAL_Driver/Inc/stm32l1xx_ll_system.h ****   * @rmtoll SYSCFG_PMC   LCD_CAPA      LL_SYSCFG_EnableLCDCapacitanceConnection
 495:Drivers/STM32L1xx_HAL_Driver/Inc/stm32l1xx_ll_system.h ****   * @param  Pin This parameter can be a combination of the following values:
 496:Drivers/STM32L1xx_HAL_Driver/Inc/stm32l1xx_ll_system.h ****   *         @arg @ref LL_SYSCFG_LCDCAPA_PB2
 497:Drivers/STM32L1xx_HAL_Driver/Inc/stm32l1xx_ll_system.h ****   *         @arg @ref LL_SYSCFG_LCDCAPA_PB12
 498:Drivers/STM32L1xx_HAL_Driver/Inc/stm32l1xx_ll_system.h ****   *         @arg @ref LL_SYSCFG_LCDCAPA_PB0
 499:Drivers/STM32L1xx_HAL_Driver/Inc/stm32l1xx_ll_system.h ****   *         @arg @ref LL_SYSCFG_LCDCAPA_PE11
 500:Drivers/STM32L1xx_HAL_Driver/Inc/stm32l1xx_ll_system.h ****   *         @arg @ref LL_SYSCFG_LCDCAPA_PE12
 501:Drivers/STM32L1xx_HAL_Driver/Inc/stm32l1xx_ll_system.h ****   * @retval None
 502:Drivers/STM32L1xx_HAL_Driver/Inc/stm32l1xx_ll_system.h ****   */
 503:Drivers/STM32L1xx_HAL_Driver/Inc/stm32l1xx_ll_system.h **** __STATIC_INLINE void LL_SYSCFG_EnableLCDCapacitanceConnection(uint32_t Pin)
 504:Drivers/STM32L1xx_HAL_Driver/Inc/stm32l1xx_ll_system.h **** {
 505:Drivers/STM32L1xx_HAL_Driver/Inc/stm32l1xx_ll_system.h ****   SET_BIT(SYSCFG->PMC, Pin);
 506:Drivers/STM32L1xx_HAL_Driver/Inc/stm32l1xx_ll_system.h **** }
 507:Drivers/STM32L1xx_HAL_Driver/Inc/stm32l1xx_ll_system.h **** 
 508:Drivers/STM32L1xx_HAL_Driver/Inc/stm32l1xx_ll_system.h **** /**
 509:Drivers/STM32L1xx_HAL_Driver/Inc/stm32l1xx_ll_system.h ****   * @brief  DIsable decoupling capacitance connection.
 510:Drivers/STM32L1xx_HAL_Driver/Inc/stm32l1xx_ll_system.h ****   * @rmtoll SYSCFG_PMC   LCD_CAPA      LL_SYSCFG_DisableLCDCapacitanceConnection
 511:Drivers/STM32L1xx_HAL_Driver/Inc/stm32l1xx_ll_system.h ****   * @param  Pin This parameter can be a combination of the following values:
 512:Drivers/STM32L1xx_HAL_Driver/Inc/stm32l1xx_ll_system.h ****   *         @arg @ref LL_SYSCFG_LCDCAPA_PB2
 513:Drivers/STM32L1xx_HAL_Driver/Inc/stm32l1xx_ll_system.h ****   *         @arg @ref LL_SYSCFG_LCDCAPA_PB12
 514:Drivers/STM32L1xx_HAL_Driver/Inc/stm32l1xx_ll_system.h ****   *         @arg @ref LL_SYSCFG_LCDCAPA_PB0
 515:Drivers/STM32L1xx_HAL_Driver/Inc/stm32l1xx_ll_system.h ****   *         @arg @ref LL_SYSCFG_LCDCAPA_PE11
 516:Drivers/STM32L1xx_HAL_Driver/Inc/stm32l1xx_ll_system.h ****   *         @arg @ref LL_SYSCFG_LCDCAPA_PE12
 517:Drivers/STM32L1xx_HAL_Driver/Inc/stm32l1xx_ll_system.h ****   * @retval None
 518:Drivers/STM32L1xx_HAL_Driver/Inc/stm32l1xx_ll_system.h ****   */
 519:Drivers/STM32L1xx_HAL_Driver/Inc/stm32l1xx_ll_system.h **** __STATIC_INLINE void LL_SYSCFG_DisableLCDCapacitanceConnection(uint32_t Pin)
 520:Drivers/STM32L1xx_HAL_Driver/Inc/stm32l1xx_ll_system.h **** {
ARM GAS  C:\Users\domen\AppData\Local\Temp\ccgakVxa.s 			page 38


 521:Drivers/STM32L1xx_HAL_Driver/Inc/stm32l1xx_ll_system.h ****   CLEAR_BIT(SYSCFG->PMC, Pin);
 522:Drivers/STM32L1xx_HAL_Driver/Inc/stm32l1xx_ll_system.h **** }
 523:Drivers/STM32L1xx_HAL_Driver/Inc/stm32l1xx_ll_system.h **** #endif /* LCD */
 524:Drivers/STM32L1xx_HAL_Driver/Inc/stm32l1xx_ll_system.h **** 
 525:Drivers/STM32L1xx_HAL_Driver/Inc/stm32l1xx_ll_system.h **** /**
 526:Drivers/STM32L1xx_HAL_Driver/Inc/stm32l1xx_ll_system.h ****   * @brief  Configure source input for the EXTI external interrupt.
 527:Drivers/STM32L1xx_HAL_Driver/Inc/stm32l1xx_ll_system.h ****   * @rmtoll SYSCFG_EXTICR1 EXTI0         LL_SYSCFG_SetEXTISource\n
 528:Drivers/STM32L1xx_HAL_Driver/Inc/stm32l1xx_ll_system.h ****   *         SYSCFG_EXTICR1 EXTI1         LL_SYSCFG_SetEXTISource\n
 529:Drivers/STM32L1xx_HAL_Driver/Inc/stm32l1xx_ll_system.h ****   *         SYSCFG_EXTICR1 EXTI2         LL_SYSCFG_SetEXTISource\n
 530:Drivers/STM32L1xx_HAL_Driver/Inc/stm32l1xx_ll_system.h ****   *         SYSCFG_EXTICR1 EXTI3         LL_SYSCFG_SetEXTISource\n
 531:Drivers/STM32L1xx_HAL_Driver/Inc/stm32l1xx_ll_system.h ****   *         SYSCFG_EXTICR1 EXTI4         LL_SYSCFG_SetEXTISource\n
 532:Drivers/STM32L1xx_HAL_Driver/Inc/stm32l1xx_ll_system.h ****   *         SYSCFG_EXTICR1 EXTI5         LL_SYSCFG_SetEXTISource\n
 533:Drivers/STM32L1xx_HAL_Driver/Inc/stm32l1xx_ll_system.h ****   *         SYSCFG_EXTICR1 EXTI6         LL_SYSCFG_SetEXTISource\n
 534:Drivers/STM32L1xx_HAL_Driver/Inc/stm32l1xx_ll_system.h ****   *         SYSCFG_EXTICR1 EXTI7         LL_SYSCFG_SetEXTISource\n
 535:Drivers/STM32L1xx_HAL_Driver/Inc/stm32l1xx_ll_system.h ****   *         SYSCFG_EXTICR1 EXTI8         LL_SYSCFG_SetEXTISource\n
 536:Drivers/STM32L1xx_HAL_Driver/Inc/stm32l1xx_ll_system.h ****   *         SYSCFG_EXTICR1 EXTI9         LL_SYSCFG_SetEXTISource\n
 537:Drivers/STM32L1xx_HAL_Driver/Inc/stm32l1xx_ll_system.h ****   *         SYSCFG_EXTICR1 EXTI10        LL_SYSCFG_SetEXTISource\n
 538:Drivers/STM32L1xx_HAL_Driver/Inc/stm32l1xx_ll_system.h ****   *         SYSCFG_EXTICR1 EXTI11        LL_SYSCFG_SetEXTISource\n
 539:Drivers/STM32L1xx_HAL_Driver/Inc/stm32l1xx_ll_system.h ****   *         SYSCFG_EXTICR1 EXTI12        LL_SYSCFG_SetEXTISource\n
 540:Drivers/STM32L1xx_HAL_Driver/Inc/stm32l1xx_ll_system.h ****   *         SYSCFG_EXTICR1 EXTI13        LL_SYSCFG_SetEXTISource\n
 541:Drivers/STM32L1xx_HAL_Driver/Inc/stm32l1xx_ll_system.h ****   *         SYSCFG_EXTICR1 EXTI14        LL_SYSCFG_SetEXTISource\n
 542:Drivers/STM32L1xx_HAL_Driver/Inc/stm32l1xx_ll_system.h ****   *         SYSCFG_EXTICR1 EXTI15        LL_SYSCFG_SetEXTISource\n
 543:Drivers/STM32L1xx_HAL_Driver/Inc/stm32l1xx_ll_system.h ****   *         SYSCFG_EXTICR2 EXTI0         LL_SYSCFG_SetEXTISource\n
 544:Drivers/STM32L1xx_HAL_Driver/Inc/stm32l1xx_ll_system.h ****   *         SYSCFG_EXTICR2 EXTI1         LL_SYSCFG_SetEXTISource\n
 545:Drivers/STM32L1xx_HAL_Driver/Inc/stm32l1xx_ll_system.h ****   *         SYSCFG_EXTICR2 EXTI2         LL_SYSCFG_SetEXTISource\n
 546:Drivers/STM32L1xx_HAL_Driver/Inc/stm32l1xx_ll_system.h ****   *         SYSCFG_EXTICR2 EXTI3         LL_SYSCFG_SetEXTISource\n
 547:Drivers/STM32L1xx_HAL_Driver/Inc/stm32l1xx_ll_system.h ****   *         SYSCFG_EXTICR2 EXTI4         LL_SYSCFG_SetEXTISource\n
 548:Drivers/STM32L1xx_HAL_Driver/Inc/stm32l1xx_ll_system.h ****   *         SYSCFG_EXTICR2 EXTI5         LL_SYSCFG_SetEXTISource\n
 549:Drivers/STM32L1xx_HAL_Driver/Inc/stm32l1xx_ll_system.h ****   *         SYSCFG_EXTICR2 EXTI6         LL_SYSCFG_SetEXTISource\n
 550:Drivers/STM32L1xx_HAL_Driver/Inc/stm32l1xx_ll_system.h ****   *         SYSCFG_EXTICR2 EXTI7         LL_SYSCFG_SetEXTISource\n
 551:Drivers/STM32L1xx_HAL_Driver/Inc/stm32l1xx_ll_system.h ****   *         SYSCFG_EXTICR2 EXTI8         LL_SYSCFG_SetEXTISource\n
 552:Drivers/STM32L1xx_HAL_Driver/Inc/stm32l1xx_ll_system.h ****   *         SYSCFG_EXTICR2 EXTI9         LL_SYSCFG_SetEXTISource\n
 553:Drivers/STM32L1xx_HAL_Driver/Inc/stm32l1xx_ll_system.h ****   *         SYSCFG_EXTICR2 EXTI10        LL_SYSCFG_SetEXTISource\n
 554:Drivers/STM32L1xx_HAL_Driver/Inc/stm32l1xx_ll_system.h ****   *         SYSCFG_EXTICR2 EXTI11        LL_SYSCFG_SetEXTISource\n
 555:Drivers/STM32L1xx_HAL_Driver/Inc/stm32l1xx_ll_system.h ****   *         SYSCFG_EXTICR2 EXTI12        LL_SYSCFG_SetEXTISource\n
 556:Drivers/STM32L1xx_HAL_Driver/Inc/stm32l1xx_ll_system.h ****   *         SYSCFG_EXTICR2 EXTI13        LL_SYSCFG_SetEXTISource\n
 557:Drivers/STM32L1xx_HAL_Driver/Inc/stm32l1xx_ll_system.h ****   *         SYSCFG_EXTICR2 EXTI14        LL_SYSCFG_SetEXTISource\n
 558:Drivers/STM32L1xx_HAL_Driver/Inc/stm32l1xx_ll_system.h ****   *         SYSCFG_EXTICR2 EXTI15        LL_SYSCFG_SetEXTISource\n
 559:Drivers/STM32L1xx_HAL_Driver/Inc/stm32l1xx_ll_system.h ****   *         SYSCFG_EXTICR3 EXTI0         LL_SYSCFG_SetEXTISource\n
 560:Drivers/STM32L1xx_HAL_Driver/Inc/stm32l1xx_ll_system.h ****   *         SYSCFG_EXTICR3 EXTI1         LL_SYSCFG_SetEXTISource\n
 561:Drivers/STM32L1xx_HAL_Driver/Inc/stm32l1xx_ll_system.h ****   *         SYSCFG_EXTICR3 EXTI2         LL_SYSCFG_SetEXTISource\n
 562:Drivers/STM32L1xx_HAL_Driver/Inc/stm32l1xx_ll_system.h ****   *         SYSCFG_EXTICR3 EXTI3         LL_SYSCFG_SetEXTISource\n
 563:Drivers/STM32L1xx_HAL_Driver/Inc/stm32l1xx_ll_system.h ****   *         SYSCFG_EXTICR3 EXTI4         LL_SYSCFG_SetEXTISource\n
 564:Drivers/STM32L1xx_HAL_Driver/Inc/stm32l1xx_ll_system.h ****   *         SYSCFG_EXTICR3 EXTI5         LL_SYSCFG_SetEXTISource\n
 565:Drivers/STM32L1xx_HAL_Driver/Inc/stm32l1xx_ll_system.h ****   *         SYSCFG_EXTICR3 EXTI6         LL_SYSCFG_SetEXTISource\n
 566:Drivers/STM32L1xx_HAL_Driver/Inc/stm32l1xx_ll_system.h ****   *         SYSCFG_EXTICR3 EXTI7         LL_SYSCFG_SetEXTISource\n
 567:Drivers/STM32L1xx_HAL_Driver/Inc/stm32l1xx_ll_system.h ****   *         SYSCFG_EXTICR3 EXTI8         LL_SYSCFG_SetEXTISource\n
 568:Drivers/STM32L1xx_HAL_Driver/Inc/stm32l1xx_ll_system.h ****   *         SYSCFG_EXTICR3 EXTI9         LL_SYSCFG_SetEXTISource\n
 569:Drivers/STM32L1xx_HAL_Driver/Inc/stm32l1xx_ll_system.h ****   *         SYSCFG_EXTICR3 EXTI10        LL_SYSCFG_SetEXTISource\n
 570:Drivers/STM32L1xx_HAL_Driver/Inc/stm32l1xx_ll_system.h ****   *         SYSCFG_EXTICR3 EXTI11        LL_SYSCFG_SetEXTISource\n
 571:Drivers/STM32L1xx_HAL_Driver/Inc/stm32l1xx_ll_system.h ****   *         SYSCFG_EXTICR3 EXTI12        LL_SYSCFG_SetEXTISource\n
 572:Drivers/STM32L1xx_HAL_Driver/Inc/stm32l1xx_ll_system.h ****   *         SYSCFG_EXTICR3 EXTI13        LL_SYSCFG_SetEXTISource\n
 573:Drivers/STM32L1xx_HAL_Driver/Inc/stm32l1xx_ll_system.h ****   *         SYSCFG_EXTICR3 EXTI14        LL_SYSCFG_SetEXTISource\n
 574:Drivers/STM32L1xx_HAL_Driver/Inc/stm32l1xx_ll_system.h ****   *         SYSCFG_EXTICR3 EXTI15        LL_SYSCFG_SetEXTISource\n
 575:Drivers/STM32L1xx_HAL_Driver/Inc/stm32l1xx_ll_system.h ****   *         SYSCFG_EXTICR4 EXTI0         LL_SYSCFG_SetEXTISource\n
 576:Drivers/STM32L1xx_HAL_Driver/Inc/stm32l1xx_ll_system.h ****   *         SYSCFG_EXTICR4 EXTI1         LL_SYSCFG_SetEXTISource\n
 577:Drivers/STM32L1xx_HAL_Driver/Inc/stm32l1xx_ll_system.h ****   *         SYSCFG_EXTICR4 EXTI2         LL_SYSCFG_SetEXTISource\n
ARM GAS  C:\Users\domen\AppData\Local\Temp\ccgakVxa.s 			page 39


 578:Drivers/STM32L1xx_HAL_Driver/Inc/stm32l1xx_ll_system.h ****   *         SYSCFG_EXTICR4 EXTI3         LL_SYSCFG_SetEXTISource\n
 579:Drivers/STM32L1xx_HAL_Driver/Inc/stm32l1xx_ll_system.h ****   *         SYSCFG_EXTICR4 EXTI4         LL_SYSCFG_SetEXTISource\n
 580:Drivers/STM32L1xx_HAL_Driver/Inc/stm32l1xx_ll_system.h ****   *         SYSCFG_EXTICR4 EXTI5         LL_SYSCFG_SetEXTISource\n
 581:Drivers/STM32L1xx_HAL_Driver/Inc/stm32l1xx_ll_system.h ****   *         SYSCFG_EXTICR4 EXTI6         LL_SYSCFG_SetEXTISource\n
 582:Drivers/STM32L1xx_HAL_Driver/Inc/stm32l1xx_ll_system.h ****   *         SYSCFG_EXTICR4 EXTI7         LL_SYSCFG_SetEXTISource\n
 583:Drivers/STM32L1xx_HAL_Driver/Inc/stm32l1xx_ll_system.h ****   *         SYSCFG_EXTICR4 EXTI8         LL_SYSCFG_SetEXTISource\n
 584:Drivers/STM32L1xx_HAL_Driver/Inc/stm32l1xx_ll_system.h ****   *         SYSCFG_EXTICR4 EXTI9         LL_SYSCFG_SetEXTISource\n
 585:Drivers/STM32L1xx_HAL_Driver/Inc/stm32l1xx_ll_system.h ****   *         SYSCFG_EXTICR4 EXTI10        LL_SYSCFG_SetEXTISource\n
 586:Drivers/STM32L1xx_HAL_Driver/Inc/stm32l1xx_ll_system.h ****   *         SYSCFG_EXTICR4 EXTI11        LL_SYSCFG_SetEXTISource\n
 587:Drivers/STM32L1xx_HAL_Driver/Inc/stm32l1xx_ll_system.h ****   *         SYSCFG_EXTICR4 EXTI12        LL_SYSCFG_SetEXTISource\n
 588:Drivers/STM32L1xx_HAL_Driver/Inc/stm32l1xx_ll_system.h ****   *         SYSCFG_EXTICR4 EXTI13        LL_SYSCFG_SetEXTISource\n
 589:Drivers/STM32L1xx_HAL_Driver/Inc/stm32l1xx_ll_system.h ****   *         SYSCFG_EXTICR4 EXTI14        LL_SYSCFG_SetEXTISource\n
 590:Drivers/STM32L1xx_HAL_Driver/Inc/stm32l1xx_ll_system.h ****   *         SYSCFG_EXTICR4 EXTI15        LL_SYSCFG_SetEXTISource
 591:Drivers/STM32L1xx_HAL_Driver/Inc/stm32l1xx_ll_system.h ****   * @param  Port This parameter can be one of the following values:
 592:Drivers/STM32L1xx_HAL_Driver/Inc/stm32l1xx_ll_system.h ****   *         @arg @ref LL_SYSCFG_EXTI_PORTA
 593:Drivers/STM32L1xx_HAL_Driver/Inc/stm32l1xx_ll_system.h ****   *         @arg @ref LL_SYSCFG_EXTI_PORTB
 594:Drivers/STM32L1xx_HAL_Driver/Inc/stm32l1xx_ll_system.h ****   *         @arg @ref LL_SYSCFG_EXTI_PORTC
 595:Drivers/STM32L1xx_HAL_Driver/Inc/stm32l1xx_ll_system.h ****   *         @arg @ref LL_SYSCFG_EXTI_PORTD
 596:Drivers/STM32L1xx_HAL_Driver/Inc/stm32l1xx_ll_system.h ****   *         @arg @ref LL_SYSCFG_EXTI_PORTE (*)
 597:Drivers/STM32L1xx_HAL_Driver/Inc/stm32l1xx_ll_system.h ****   *         @arg @ref LL_SYSCFG_EXTI_PORTF (*)
 598:Drivers/STM32L1xx_HAL_Driver/Inc/stm32l1xx_ll_system.h ****   *         @arg @ref LL_SYSCFG_EXTI_PORTG (*)
 599:Drivers/STM32L1xx_HAL_Driver/Inc/stm32l1xx_ll_system.h ****   *         @arg @ref LL_SYSCFG_EXTI_PORTH
 600:Drivers/STM32L1xx_HAL_Driver/Inc/stm32l1xx_ll_system.h ****   *
 601:Drivers/STM32L1xx_HAL_Driver/Inc/stm32l1xx_ll_system.h ****   *         (*) value not defined in all devices.
 602:Drivers/STM32L1xx_HAL_Driver/Inc/stm32l1xx_ll_system.h ****   * @param  Line This parameter can be one of the following values:
 603:Drivers/STM32L1xx_HAL_Driver/Inc/stm32l1xx_ll_system.h ****   *         @arg @ref LL_SYSCFG_EXTI_LINE0
 604:Drivers/STM32L1xx_HAL_Driver/Inc/stm32l1xx_ll_system.h ****   *         @arg @ref LL_SYSCFG_EXTI_LINE1
 605:Drivers/STM32L1xx_HAL_Driver/Inc/stm32l1xx_ll_system.h ****   *         @arg @ref LL_SYSCFG_EXTI_LINE2
 606:Drivers/STM32L1xx_HAL_Driver/Inc/stm32l1xx_ll_system.h ****   *         @arg @ref LL_SYSCFG_EXTI_LINE3
 607:Drivers/STM32L1xx_HAL_Driver/Inc/stm32l1xx_ll_system.h ****   *         @arg @ref LL_SYSCFG_EXTI_LINE4
 608:Drivers/STM32L1xx_HAL_Driver/Inc/stm32l1xx_ll_system.h ****   *         @arg @ref LL_SYSCFG_EXTI_LINE5
 609:Drivers/STM32L1xx_HAL_Driver/Inc/stm32l1xx_ll_system.h ****   *         @arg @ref LL_SYSCFG_EXTI_LINE6
 610:Drivers/STM32L1xx_HAL_Driver/Inc/stm32l1xx_ll_system.h ****   *         @arg @ref LL_SYSCFG_EXTI_LINE7
 611:Drivers/STM32L1xx_HAL_Driver/Inc/stm32l1xx_ll_system.h ****   *         @arg @ref LL_SYSCFG_EXTI_LINE8
 612:Drivers/STM32L1xx_HAL_Driver/Inc/stm32l1xx_ll_system.h ****   *         @arg @ref LL_SYSCFG_EXTI_LINE9
 613:Drivers/STM32L1xx_HAL_Driver/Inc/stm32l1xx_ll_system.h ****   *         @arg @ref LL_SYSCFG_EXTI_LINE10
 614:Drivers/STM32L1xx_HAL_Driver/Inc/stm32l1xx_ll_system.h ****   *         @arg @ref LL_SYSCFG_EXTI_LINE11
 615:Drivers/STM32L1xx_HAL_Driver/Inc/stm32l1xx_ll_system.h ****   *         @arg @ref LL_SYSCFG_EXTI_LINE12
 616:Drivers/STM32L1xx_HAL_Driver/Inc/stm32l1xx_ll_system.h ****   *         @arg @ref LL_SYSCFG_EXTI_LINE13
 617:Drivers/STM32L1xx_HAL_Driver/Inc/stm32l1xx_ll_system.h ****   *         @arg @ref LL_SYSCFG_EXTI_LINE14
 618:Drivers/STM32L1xx_HAL_Driver/Inc/stm32l1xx_ll_system.h ****   *         @arg @ref LL_SYSCFG_EXTI_LINE15
 619:Drivers/STM32L1xx_HAL_Driver/Inc/stm32l1xx_ll_system.h ****   * @retval None
 620:Drivers/STM32L1xx_HAL_Driver/Inc/stm32l1xx_ll_system.h ****   */
 621:Drivers/STM32L1xx_HAL_Driver/Inc/stm32l1xx_ll_system.h **** __STATIC_INLINE void LL_SYSCFG_SetEXTISource(uint32_t Port, uint32_t Line)
 321              		.loc 4 621 22 view .LVU129
 322              	.LBB57:
 622:Drivers/STM32L1xx_HAL_Driver/Inc/stm32l1xx_ll_system.h **** {
 623:Drivers/STM32L1xx_HAL_Driver/Inc/stm32l1xx_ll_system.h ****   MODIFY_REG(SYSCFG->EXTICR[Line & 0x3U], (Line >> 16), Port << POSITION_VAL((Line >> 16)));
 323              		.loc 4 623 3 view .LVU130
 324 0104 2B49     		ldr	r1, .L5+4
 325 0106 CA68     		ldr	r2, [r1, #12]
 326 0108 22F00F02 		bic	r2, r2, #15
 327              	.LVL14:
 328              	.LBB58:
 329              	.LBI58:
 330              		.file 5 "Drivers/CMSIS/Include/cmsis_gcc.h"
   1:Drivers/CMSIS/Include/cmsis_gcc.h **** /**************************************************************************//**
ARM GAS  C:\Users\domen\AppData\Local\Temp\ccgakVxa.s 			page 40


   2:Drivers/CMSIS/Include/cmsis_gcc.h ****  * @file     cmsis_gcc.h
   3:Drivers/CMSIS/Include/cmsis_gcc.h ****  * @brief    CMSIS compiler GCC header file
   4:Drivers/CMSIS/Include/cmsis_gcc.h ****  * @version  V5.0.4
   5:Drivers/CMSIS/Include/cmsis_gcc.h ****  * @date     09. April 2018
   6:Drivers/CMSIS/Include/cmsis_gcc.h ****  ******************************************************************************/
   7:Drivers/CMSIS/Include/cmsis_gcc.h **** /*
   8:Drivers/CMSIS/Include/cmsis_gcc.h ****  * Copyright (c) 2009-2018 Arm Limited. All rights reserved.
   9:Drivers/CMSIS/Include/cmsis_gcc.h ****  *
  10:Drivers/CMSIS/Include/cmsis_gcc.h ****  * SPDX-License-Identifier: Apache-2.0
  11:Drivers/CMSIS/Include/cmsis_gcc.h ****  *
  12:Drivers/CMSIS/Include/cmsis_gcc.h ****  * Licensed under the Apache License, Version 2.0 (the License); you may
  13:Drivers/CMSIS/Include/cmsis_gcc.h ****  * not use this file except in compliance with the License.
  14:Drivers/CMSIS/Include/cmsis_gcc.h ****  * You may obtain a copy of the License at
  15:Drivers/CMSIS/Include/cmsis_gcc.h ****  *
  16:Drivers/CMSIS/Include/cmsis_gcc.h ****  * www.apache.org/licenses/LICENSE-2.0
  17:Drivers/CMSIS/Include/cmsis_gcc.h ****  *
  18:Drivers/CMSIS/Include/cmsis_gcc.h ****  * Unless required by applicable law or agreed to in writing, software
  19:Drivers/CMSIS/Include/cmsis_gcc.h ****  * distributed under the License is distributed on an AS IS BASIS, WITHOUT
  20:Drivers/CMSIS/Include/cmsis_gcc.h ****  * WARRANTIES OR CONDITIONS OF ANY KIND, either express or implied.
  21:Drivers/CMSIS/Include/cmsis_gcc.h ****  * See the License for the specific language governing permissions and
  22:Drivers/CMSIS/Include/cmsis_gcc.h ****  * limitations under the License.
  23:Drivers/CMSIS/Include/cmsis_gcc.h ****  */
  24:Drivers/CMSIS/Include/cmsis_gcc.h **** 
  25:Drivers/CMSIS/Include/cmsis_gcc.h **** #ifndef __CMSIS_GCC_H
  26:Drivers/CMSIS/Include/cmsis_gcc.h **** #define __CMSIS_GCC_H
  27:Drivers/CMSIS/Include/cmsis_gcc.h **** 
  28:Drivers/CMSIS/Include/cmsis_gcc.h **** /* ignore some GCC warnings */
  29:Drivers/CMSIS/Include/cmsis_gcc.h **** #pragma GCC diagnostic push
  30:Drivers/CMSIS/Include/cmsis_gcc.h **** #pragma GCC diagnostic ignored "-Wsign-conversion"
  31:Drivers/CMSIS/Include/cmsis_gcc.h **** #pragma GCC diagnostic ignored "-Wconversion"
  32:Drivers/CMSIS/Include/cmsis_gcc.h **** #pragma GCC diagnostic ignored "-Wunused-parameter"
  33:Drivers/CMSIS/Include/cmsis_gcc.h **** 
  34:Drivers/CMSIS/Include/cmsis_gcc.h **** /* Fallback for __has_builtin */
  35:Drivers/CMSIS/Include/cmsis_gcc.h **** #ifndef __has_builtin
  36:Drivers/CMSIS/Include/cmsis_gcc.h ****   #define __has_builtin(x) (0)
  37:Drivers/CMSIS/Include/cmsis_gcc.h **** #endif
  38:Drivers/CMSIS/Include/cmsis_gcc.h **** 
  39:Drivers/CMSIS/Include/cmsis_gcc.h **** /* CMSIS compiler specific defines */
  40:Drivers/CMSIS/Include/cmsis_gcc.h **** #ifndef   __ASM
  41:Drivers/CMSIS/Include/cmsis_gcc.h ****   #define __ASM                                  __asm
  42:Drivers/CMSIS/Include/cmsis_gcc.h **** #endif
  43:Drivers/CMSIS/Include/cmsis_gcc.h **** #ifndef   __INLINE
  44:Drivers/CMSIS/Include/cmsis_gcc.h ****   #define __INLINE                               inline
  45:Drivers/CMSIS/Include/cmsis_gcc.h **** #endif
  46:Drivers/CMSIS/Include/cmsis_gcc.h **** #ifndef   __STATIC_INLINE
  47:Drivers/CMSIS/Include/cmsis_gcc.h ****   #define __STATIC_INLINE                        static inline
  48:Drivers/CMSIS/Include/cmsis_gcc.h **** #endif
  49:Drivers/CMSIS/Include/cmsis_gcc.h **** #ifndef   __STATIC_FORCEINLINE                 
  50:Drivers/CMSIS/Include/cmsis_gcc.h ****   #define __STATIC_FORCEINLINE                   __attribute__((always_inline)) static inline
  51:Drivers/CMSIS/Include/cmsis_gcc.h **** #endif                                           
  52:Drivers/CMSIS/Include/cmsis_gcc.h **** #ifndef   __NO_RETURN
  53:Drivers/CMSIS/Include/cmsis_gcc.h ****   #define __NO_RETURN                            __attribute__((__noreturn__))
  54:Drivers/CMSIS/Include/cmsis_gcc.h **** #endif
  55:Drivers/CMSIS/Include/cmsis_gcc.h **** #ifndef   __USED
  56:Drivers/CMSIS/Include/cmsis_gcc.h ****   #define __USED                                 __attribute__((used))
  57:Drivers/CMSIS/Include/cmsis_gcc.h **** #endif
  58:Drivers/CMSIS/Include/cmsis_gcc.h **** #ifndef   __WEAK
ARM GAS  C:\Users\domen\AppData\Local\Temp\ccgakVxa.s 			page 41


  59:Drivers/CMSIS/Include/cmsis_gcc.h ****   #define __WEAK                                 __attribute__((weak))
  60:Drivers/CMSIS/Include/cmsis_gcc.h **** #endif
  61:Drivers/CMSIS/Include/cmsis_gcc.h **** #ifndef   __PACKED
  62:Drivers/CMSIS/Include/cmsis_gcc.h ****   #define __PACKED                               __attribute__((packed, aligned(1)))
  63:Drivers/CMSIS/Include/cmsis_gcc.h **** #endif
  64:Drivers/CMSIS/Include/cmsis_gcc.h **** #ifndef   __PACKED_STRUCT
  65:Drivers/CMSIS/Include/cmsis_gcc.h ****   #define __PACKED_STRUCT                        struct __attribute__((packed, aligned(1)))
  66:Drivers/CMSIS/Include/cmsis_gcc.h **** #endif
  67:Drivers/CMSIS/Include/cmsis_gcc.h **** #ifndef   __PACKED_UNION
  68:Drivers/CMSIS/Include/cmsis_gcc.h ****   #define __PACKED_UNION                         union __attribute__((packed, aligned(1)))
  69:Drivers/CMSIS/Include/cmsis_gcc.h **** #endif
  70:Drivers/CMSIS/Include/cmsis_gcc.h **** #ifndef   __UNALIGNED_UINT32        /* deprecated */
  71:Drivers/CMSIS/Include/cmsis_gcc.h ****   #pragma GCC diagnostic push
  72:Drivers/CMSIS/Include/cmsis_gcc.h ****   #pragma GCC diagnostic ignored "-Wpacked"
  73:Drivers/CMSIS/Include/cmsis_gcc.h ****   #pragma GCC diagnostic ignored "-Wattributes"
  74:Drivers/CMSIS/Include/cmsis_gcc.h ****   struct __attribute__((packed)) T_UINT32 { uint32_t v; };
  75:Drivers/CMSIS/Include/cmsis_gcc.h ****   #pragma GCC diagnostic pop
  76:Drivers/CMSIS/Include/cmsis_gcc.h ****   #define __UNALIGNED_UINT32(x)                  (((struct T_UINT32 *)(x))->v)
  77:Drivers/CMSIS/Include/cmsis_gcc.h **** #endif
  78:Drivers/CMSIS/Include/cmsis_gcc.h **** #ifndef   __UNALIGNED_UINT16_WRITE
  79:Drivers/CMSIS/Include/cmsis_gcc.h ****   #pragma GCC diagnostic push
  80:Drivers/CMSIS/Include/cmsis_gcc.h ****   #pragma GCC diagnostic ignored "-Wpacked"
  81:Drivers/CMSIS/Include/cmsis_gcc.h ****   #pragma GCC diagnostic ignored "-Wattributes"
  82:Drivers/CMSIS/Include/cmsis_gcc.h ****   __PACKED_STRUCT T_UINT16_WRITE { uint16_t v; };
  83:Drivers/CMSIS/Include/cmsis_gcc.h ****   #pragma GCC diagnostic pop
  84:Drivers/CMSIS/Include/cmsis_gcc.h ****   #define __UNALIGNED_UINT16_WRITE(addr, val)    (void)((((struct T_UINT16_WRITE *)(void *)(addr))-
  85:Drivers/CMSIS/Include/cmsis_gcc.h **** #endif
  86:Drivers/CMSIS/Include/cmsis_gcc.h **** #ifndef   __UNALIGNED_UINT16_READ
  87:Drivers/CMSIS/Include/cmsis_gcc.h ****   #pragma GCC diagnostic push
  88:Drivers/CMSIS/Include/cmsis_gcc.h ****   #pragma GCC diagnostic ignored "-Wpacked"
  89:Drivers/CMSIS/Include/cmsis_gcc.h ****   #pragma GCC diagnostic ignored "-Wattributes"
  90:Drivers/CMSIS/Include/cmsis_gcc.h ****   __PACKED_STRUCT T_UINT16_READ { uint16_t v; };
  91:Drivers/CMSIS/Include/cmsis_gcc.h ****   #pragma GCC diagnostic pop
  92:Drivers/CMSIS/Include/cmsis_gcc.h ****   #define __UNALIGNED_UINT16_READ(addr)          (((const struct T_UINT16_READ *)(const void *)(add
  93:Drivers/CMSIS/Include/cmsis_gcc.h **** #endif
  94:Drivers/CMSIS/Include/cmsis_gcc.h **** #ifndef   __UNALIGNED_UINT32_WRITE
  95:Drivers/CMSIS/Include/cmsis_gcc.h ****   #pragma GCC diagnostic push
  96:Drivers/CMSIS/Include/cmsis_gcc.h ****   #pragma GCC diagnostic ignored "-Wpacked"
  97:Drivers/CMSIS/Include/cmsis_gcc.h ****   #pragma GCC diagnostic ignored "-Wattributes"
  98:Drivers/CMSIS/Include/cmsis_gcc.h ****   __PACKED_STRUCT T_UINT32_WRITE { uint32_t v; };
  99:Drivers/CMSIS/Include/cmsis_gcc.h ****   #pragma GCC diagnostic pop
 100:Drivers/CMSIS/Include/cmsis_gcc.h ****   #define __UNALIGNED_UINT32_WRITE(addr, val)    (void)((((struct T_UINT32_WRITE *)(void *)(addr))-
 101:Drivers/CMSIS/Include/cmsis_gcc.h **** #endif
 102:Drivers/CMSIS/Include/cmsis_gcc.h **** #ifndef   __UNALIGNED_UINT32_READ
 103:Drivers/CMSIS/Include/cmsis_gcc.h ****   #pragma GCC diagnostic push
 104:Drivers/CMSIS/Include/cmsis_gcc.h ****   #pragma GCC diagnostic ignored "-Wpacked"
 105:Drivers/CMSIS/Include/cmsis_gcc.h ****   #pragma GCC diagnostic ignored "-Wattributes"
 106:Drivers/CMSIS/Include/cmsis_gcc.h ****   __PACKED_STRUCT T_UINT32_READ { uint32_t v; };
 107:Drivers/CMSIS/Include/cmsis_gcc.h ****   #pragma GCC diagnostic pop
 108:Drivers/CMSIS/Include/cmsis_gcc.h ****   #define __UNALIGNED_UINT32_READ(addr)          (((const struct T_UINT32_READ *)(const void *)(add
 109:Drivers/CMSIS/Include/cmsis_gcc.h **** #endif
 110:Drivers/CMSIS/Include/cmsis_gcc.h **** #ifndef   __ALIGNED
 111:Drivers/CMSIS/Include/cmsis_gcc.h ****   #define __ALIGNED(x)                           __attribute__((aligned(x)))
 112:Drivers/CMSIS/Include/cmsis_gcc.h **** #endif
 113:Drivers/CMSIS/Include/cmsis_gcc.h **** #ifndef   __RESTRICT
 114:Drivers/CMSIS/Include/cmsis_gcc.h ****   #define __RESTRICT                             __restrict
 115:Drivers/CMSIS/Include/cmsis_gcc.h **** #endif
ARM GAS  C:\Users\domen\AppData\Local\Temp\ccgakVxa.s 			page 42


 116:Drivers/CMSIS/Include/cmsis_gcc.h **** 
 117:Drivers/CMSIS/Include/cmsis_gcc.h **** 
 118:Drivers/CMSIS/Include/cmsis_gcc.h **** /* ###########################  Core Function Access  ########################### */
 119:Drivers/CMSIS/Include/cmsis_gcc.h **** /** \ingroup  CMSIS_Core_FunctionInterface
 120:Drivers/CMSIS/Include/cmsis_gcc.h ****     \defgroup CMSIS_Core_RegAccFunctions CMSIS Core Register Access Functions
 121:Drivers/CMSIS/Include/cmsis_gcc.h ****   @{
 122:Drivers/CMSIS/Include/cmsis_gcc.h ****  */
 123:Drivers/CMSIS/Include/cmsis_gcc.h **** 
 124:Drivers/CMSIS/Include/cmsis_gcc.h **** /**
 125:Drivers/CMSIS/Include/cmsis_gcc.h ****   \brief   Enable IRQ Interrupts
 126:Drivers/CMSIS/Include/cmsis_gcc.h ****   \details Enables IRQ interrupts by clearing the I-bit in the CPSR.
 127:Drivers/CMSIS/Include/cmsis_gcc.h ****            Can only be executed in Privileged modes.
 128:Drivers/CMSIS/Include/cmsis_gcc.h ****  */
 129:Drivers/CMSIS/Include/cmsis_gcc.h **** __STATIC_FORCEINLINE void __enable_irq(void)
 130:Drivers/CMSIS/Include/cmsis_gcc.h **** {
 131:Drivers/CMSIS/Include/cmsis_gcc.h ****   __ASM volatile ("cpsie i" : : : "memory");
 132:Drivers/CMSIS/Include/cmsis_gcc.h **** }
 133:Drivers/CMSIS/Include/cmsis_gcc.h **** 
 134:Drivers/CMSIS/Include/cmsis_gcc.h **** 
 135:Drivers/CMSIS/Include/cmsis_gcc.h **** /**
 136:Drivers/CMSIS/Include/cmsis_gcc.h ****   \brief   Disable IRQ Interrupts
 137:Drivers/CMSIS/Include/cmsis_gcc.h ****   \details Disables IRQ interrupts by setting the I-bit in the CPSR.
 138:Drivers/CMSIS/Include/cmsis_gcc.h ****            Can only be executed in Privileged modes.
 139:Drivers/CMSIS/Include/cmsis_gcc.h ****  */
 140:Drivers/CMSIS/Include/cmsis_gcc.h **** __STATIC_FORCEINLINE void __disable_irq(void)
 141:Drivers/CMSIS/Include/cmsis_gcc.h **** {
 142:Drivers/CMSIS/Include/cmsis_gcc.h ****   __ASM volatile ("cpsid i" : : : "memory");
 143:Drivers/CMSIS/Include/cmsis_gcc.h **** }
 144:Drivers/CMSIS/Include/cmsis_gcc.h **** 
 145:Drivers/CMSIS/Include/cmsis_gcc.h **** 
 146:Drivers/CMSIS/Include/cmsis_gcc.h **** /**
 147:Drivers/CMSIS/Include/cmsis_gcc.h ****   \brief   Get Control Register
 148:Drivers/CMSIS/Include/cmsis_gcc.h ****   \details Returns the content of the Control Register.
 149:Drivers/CMSIS/Include/cmsis_gcc.h ****   \return               Control Register value
 150:Drivers/CMSIS/Include/cmsis_gcc.h ****  */
 151:Drivers/CMSIS/Include/cmsis_gcc.h **** __STATIC_FORCEINLINE uint32_t __get_CONTROL(void)
 152:Drivers/CMSIS/Include/cmsis_gcc.h **** {
 153:Drivers/CMSIS/Include/cmsis_gcc.h ****   uint32_t result;
 154:Drivers/CMSIS/Include/cmsis_gcc.h **** 
 155:Drivers/CMSIS/Include/cmsis_gcc.h ****   __ASM volatile ("MRS %0, control" : "=r" (result) );
 156:Drivers/CMSIS/Include/cmsis_gcc.h ****   return(result);
 157:Drivers/CMSIS/Include/cmsis_gcc.h **** }
 158:Drivers/CMSIS/Include/cmsis_gcc.h **** 
 159:Drivers/CMSIS/Include/cmsis_gcc.h **** 
 160:Drivers/CMSIS/Include/cmsis_gcc.h **** #if (defined (__ARM_FEATURE_CMSE ) && (__ARM_FEATURE_CMSE == 3))
 161:Drivers/CMSIS/Include/cmsis_gcc.h **** /**
 162:Drivers/CMSIS/Include/cmsis_gcc.h ****   \brief   Get Control Register (non-secure)
 163:Drivers/CMSIS/Include/cmsis_gcc.h ****   \details Returns the content of the non-secure Control Register when in secure mode.
 164:Drivers/CMSIS/Include/cmsis_gcc.h ****   \return               non-secure Control Register value
 165:Drivers/CMSIS/Include/cmsis_gcc.h ****  */
 166:Drivers/CMSIS/Include/cmsis_gcc.h **** __STATIC_FORCEINLINE uint32_t __TZ_get_CONTROL_NS(void)
 167:Drivers/CMSIS/Include/cmsis_gcc.h **** {
 168:Drivers/CMSIS/Include/cmsis_gcc.h ****   uint32_t result;
 169:Drivers/CMSIS/Include/cmsis_gcc.h **** 
 170:Drivers/CMSIS/Include/cmsis_gcc.h ****   __ASM volatile ("MRS %0, control_ns" : "=r" (result) );
 171:Drivers/CMSIS/Include/cmsis_gcc.h ****   return(result);
 172:Drivers/CMSIS/Include/cmsis_gcc.h **** }
ARM GAS  C:\Users\domen\AppData\Local\Temp\ccgakVxa.s 			page 43


 173:Drivers/CMSIS/Include/cmsis_gcc.h **** #endif
 174:Drivers/CMSIS/Include/cmsis_gcc.h **** 
 175:Drivers/CMSIS/Include/cmsis_gcc.h **** 
 176:Drivers/CMSIS/Include/cmsis_gcc.h **** /**
 177:Drivers/CMSIS/Include/cmsis_gcc.h ****   \brief   Set Control Register
 178:Drivers/CMSIS/Include/cmsis_gcc.h ****   \details Writes the given value to the Control Register.
 179:Drivers/CMSIS/Include/cmsis_gcc.h ****   \param [in]    control  Control Register value to set
 180:Drivers/CMSIS/Include/cmsis_gcc.h ****  */
 181:Drivers/CMSIS/Include/cmsis_gcc.h **** __STATIC_FORCEINLINE void __set_CONTROL(uint32_t control)
 182:Drivers/CMSIS/Include/cmsis_gcc.h **** {
 183:Drivers/CMSIS/Include/cmsis_gcc.h ****   __ASM volatile ("MSR control, %0" : : "r" (control) : "memory");
 184:Drivers/CMSIS/Include/cmsis_gcc.h **** }
 185:Drivers/CMSIS/Include/cmsis_gcc.h **** 
 186:Drivers/CMSIS/Include/cmsis_gcc.h **** 
 187:Drivers/CMSIS/Include/cmsis_gcc.h **** #if (defined (__ARM_FEATURE_CMSE ) && (__ARM_FEATURE_CMSE == 3))
 188:Drivers/CMSIS/Include/cmsis_gcc.h **** /**
 189:Drivers/CMSIS/Include/cmsis_gcc.h ****   \brief   Set Control Register (non-secure)
 190:Drivers/CMSIS/Include/cmsis_gcc.h ****   \details Writes the given value to the non-secure Control Register when in secure state.
 191:Drivers/CMSIS/Include/cmsis_gcc.h ****   \param [in]    control  Control Register value to set
 192:Drivers/CMSIS/Include/cmsis_gcc.h ****  */
 193:Drivers/CMSIS/Include/cmsis_gcc.h **** __STATIC_FORCEINLINE void __TZ_set_CONTROL_NS(uint32_t control)
 194:Drivers/CMSIS/Include/cmsis_gcc.h **** {
 195:Drivers/CMSIS/Include/cmsis_gcc.h ****   __ASM volatile ("MSR control_ns, %0" : : "r" (control) : "memory");
 196:Drivers/CMSIS/Include/cmsis_gcc.h **** }
 197:Drivers/CMSIS/Include/cmsis_gcc.h **** #endif
 198:Drivers/CMSIS/Include/cmsis_gcc.h **** 
 199:Drivers/CMSIS/Include/cmsis_gcc.h **** 
 200:Drivers/CMSIS/Include/cmsis_gcc.h **** /**
 201:Drivers/CMSIS/Include/cmsis_gcc.h ****   \brief   Get IPSR Register
 202:Drivers/CMSIS/Include/cmsis_gcc.h ****   \details Returns the content of the IPSR Register.
 203:Drivers/CMSIS/Include/cmsis_gcc.h ****   \return               IPSR Register value
 204:Drivers/CMSIS/Include/cmsis_gcc.h ****  */
 205:Drivers/CMSIS/Include/cmsis_gcc.h **** __STATIC_FORCEINLINE uint32_t __get_IPSR(void)
 206:Drivers/CMSIS/Include/cmsis_gcc.h **** {
 207:Drivers/CMSIS/Include/cmsis_gcc.h ****   uint32_t result;
 208:Drivers/CMSIS/Include/cmsis_gcc.h **** 
 209:Drivers/CMSIS/Include/cmsis_gcc.h ****   __ASM volatile ("MRS %0, ipsr" : "=r" (result) );
 210:Drivers/CMSIS/Include/cmsis_gcc.h ****   return(result);
 211:Drivers/CMSIS/Include/cmsis_gcc.h **** }
 212:Drivers/CMSIS/Include/cmsis_gcc.h **** 
 213:Drivers/CMSIS/Include/cmsis_gcc.h **** 
 214:Drivers/CMSIS/Include/cmsis_gcc.h **** /**
 215:Drivers/CMSIS/Include/cmsis_gcc.h ****   \brief   Get APSR Register
 216:Drivers/CMSIS/Include/cmsis_gcc.h ****   \details Returns the content of the APSR Register.
 217:Drivers/CMSIS/Include/cmsis_gcc.h ****   \return               APSR Register value
 218:Drivers/CMSIS/Include/cmsis_gcc.h ****  */
 219:Drivers/CMSIS/Include/cmsis_gcc.h **** __STATIC_FORCEINLINE uint32_t __get_APSR(void)
 220:Drivers/CMSIS/Include/cmsis_gcc.h **** {
 221:Drivers/CMSIS/Include/cmsis_gcc.h ****   uint32_t result;
 222:Drivers/CMSIS/Include/cmsis_gcc.h **** 
 223:Drivers/CMSIS/Include/cmsis_gcc.h ****   __ASM volatile ("MRS %0, apsr" : "=r" (result) );
 224:Drivers/CMSIS/Include/cmsis_gcc.h ****   return(result);
 225:Drivers/CMSIS/Include/cmsis_gcc.h **** }
 226:Drivers/CMSIS/Include/cmsis_gcc.h **** 
 227:Drivers/CMSIS/Include/cmsis_gcc.h **** 
 228:Drivers/CMSIS/Include/cmsis_gcc.h **** /**
 229:Drivers/CMSIS/Include/cmsis_gcc.h ****   \brief   Get xPSR Register
ARM GAS  C:\Users\domen\AppData\Local\Temp\ccgakVxa.s 			page 44


 230:Drivers/CMSIS/Include/cmsis_gcc.h ****   \details Returns the content of the xPSR Register.
 231:Drivers/CMSIS/Include/cmsis_gcc.h ****   \return               xPSR Register value
 232:Drivers/CMSIS/Include/cmsis_gcc.h ****  */
 233:Drivers/CMSIS/Include/cmsis_gcc.h **** __STATIC_FORCEINLINE uint32_t __get_xPSR(void)
 234:Drivers/CMSIS/Include/cmsis_gcc.h **** {
 235:Drivers/CMSIS/Include/cmsis_gcc.h ****   uint32_t result;
 236:Drivers/CMSIS/Include/cmsis_gcc.h **** 
 237:Drivers/CMSIS/Include/cmsis_gcc.h ****   __ASM volatile ("MRS %0, xpsr" : "=r" (result) );
 238:Drivers/CMSIS/Include/cmsis_gcc.h ****   return(result);
 239:Drivers/CMSIS/Include/cmsis_gcc.h **** }
 240:Drivers/CMSIS/Include/cmsis_gcc.h **** 
 241:Drivers/CMSIS/Include/cmsis_gcc.h **** 
 242:Drivers/CMSIS/Include/cmsis_gcc.h **** /**
 243:Drivers/CMSIS/Include/cmsis_gcc.h ****   \brief   Get Process Stack Pointer
 244:Drivers/CMSIS/Include/cmsis_gcc.h ****   \details Returns the current value of the Process Stack Pointer (PSP).
 245:Drivers/CMSIS/Include/cmsis_gcc.h ****   \return               PSP Register value
 246:Drivers/CMSIS/Include/cmsis_gcc.h ****  */
 247:Drivers/CMSIS/Include/cmsis_gcc.h **** __STATIC_FORCEINLINE uint32_t __get_PSP(void)
 248:Drivers/CMSIS/Include/cmsis_gcc.h **** {
 249:Drivers/CMSIS/Include/cmsis_gcc.h ****   uint32_t result;
 250:Drivers/CMSIS/Include/cmsis_gcc.h **** 
 251:Drivers/CMSIS/Include/cmsis_gcc.h ****   __ASM volatile ("MRS %0, psp"  : "=r" (result) );
 252:Drivers/CMSIS/Include/cmsis_gcc.h ****   return(result);
 253:Drivers/CMSIS/Include/cmsis_gcc.h **** }
 254:Drivers/CMSIS/Include/cmsis_gcc.h **** 
 255:Drivers/CMSIS/Include/cmsis_gcc.h **** 
 256:Drivers/CMSIS/Include/cmsis_gcc.h **** #if (defined (__ARM_FEATURE_CMSE ) && (__ARM_FEATURE_CMSE == 3))
 257:Drivers/CMSIS/Include/cmsis_gcc.h **** /**
 258:Drivers/CMSIS/Include/cmsis_gcc.h ****   \brief   Get Process Stack Pointer (non-secure)
 259:Drivers/CMSIS/Include/cmsis_gcc.h ****   \details Returns the current value of the non-secure Process Stack Pointer (PSP) when in secure s
 260:Drivers/CMSIS/Include/cmsis_gcc.h ****   \return               PSP Register value
 261:Drivers/CMSIS/Include/cmsis_gcc.h ****  */
 262:Drivers/CMSIS/Include/cmsis_gcc.h **** __STATIC_FORCEINLINE uint32_t __TZ_get_PSP_NS(void)
 263:Drivers/CMSIS/Include/cmsis_gcc.h **** {
 264:Drivers/CMSIS/Include/cmsis_gcc.h ****   uint32_t result;
 265:Drivers/CMSIS/Include/cmsis_gcc.h **** 
 266:Drivers/CMSIS/Include/cmsis_gcc.h ****   __ASM volatile ("MRS %0, psp_ns"  : "=r" (result) );
 267:Drivers/CMSIS/Include/cmsis_gcc.h ****   return(result);
 268:Drivers/CMSIS/Include/cmsis_gcc.h **** }
 269:Drivers/CMSIS/Include/cmsis_gcc.h **** #endif
 270:Drivers/CMSIS/Include/cmsis_gcc.h **** 
 271:Drivers/CMSIS/Include/cmsis_gcc.h **** 
 272:Drivers/CMSIS/Include/cmsis_gcc.h **** /**
 273:Drivers/CMSIS/Include/cmsis_gcc.h ****   \brief   Set Process Stack Pointer
 274:Drivers/CMSIS/Include/cmsis_gcc.h ****   \details Assigns the given value to the Process Stack Pointer (PSP).
 275:Drivers/CMSIS/Include/cmsis_gcc.h ****   \param [in]    topOfProcStack  Process Stack Pointer value to set
 276:Drivers/CMSIS/Include/cmsis_gcc.h ****  */
 277:Drivers/CMSIS/Include/cmsis_gcc.h **** __STATIC_FORCEINLINE void __set_PSP(uint32_t topOfProcStack)
 278:Drivers/CMSIS/Include/cmsis_gcc.h **** {
 279:Drivers/CMSIS/Include/cmsis_gcc.h ****   __ASM volatile ("MSR psp, %0" : : "r" (topOfProcStack) : );
 280:Drivers/CMSIS/Include/cmsis_gcc.h **** }
 281:Drivers/CMSIS/Include/cmsis_gcc.h **** 
 282:Drivers/CMSIS/Include/cmsis_gcc.h **** 
 283:Drivers/CMSIS/Include/cmsis_gcc.h **** #if (defined (__ARM_FEATURE_CMSE ) && (__ARM_FEATURE_CMSE == 3))
 284:Drivers/CMSIS/Include/cmsis_gcc.h **** /**
 285:Drivers/CMSIS/Include/cmsis_gcc.h ****   \brief   Set Process Stack Pointer (non-secure)
 286:Drivers/CMSIS/Include/cmsis_gcc.h ****   \details Assigns the given value to the non-secure Process Stack Pointer (PSP) when in secure sta
ARM GAS  C:\Users\domen\AppData\Local\Temp\ccgakVxa.s 			page 45


 287:Drivers/CMSIS/Include/cmsis_gcc.h ****   \param [in]    topOfProcStack  Process Stack Pointer value to set
 288:Drivers/CMSIS/Include/cmsis_gcc.h ****  */
 289:Drivers/CMSIS/Include/cmsis_gcc.h **** __STATIC_FORCEINLINE void __TZ_set_PSP_NS(uint32_t topOfProcStack)
 290:Drivers/CMSIS/Include/cmsis_gcc.h **** {
 291:Drivers/CMSIS/Include/cmsis_gcc.h ****   __ASM volatile ("MSR psp_ns, %0" : : "r" (topOfProcStack) : );
 292:Drivers/CMSIS/Include/cmsis_gcc.h **** }
 293:Drivers/CMSIS/Include/cmsis_gcc.h **** #endif
 294:Drivers/CMSIS/Include/cmsis_gcc.h **** 
 295:Drivers/CMSIS/Include/cmsis_gcc.h **** 
 296:Drivers/CMSIS/Include/cmsis_gcc.h **** /**
 297:Drivers/CMSIS/Include/cmsis_gcc.h ****   \brief   Get Main Stack Pointer
 298:Drivers/CMSIS/Include/cmsis_gcc.h ****   \details Returns the current value of the Main Stack Pointer (MSP).
 299:Drivers/CMSIS/Include/cmsis_gcc.h ****   \return               MSP Register value
 300:Drivers/CMSIS/Include/cmsis_gcc.h ****  */
 301:Drivers/CMSIS/Include/cmsis_gcc.h **** __STATIC_FORCEINLINE uint32_t __get_MSP(void)
 302:Drivers/CMSIS/Include/cmsis_gcc.h **** {
 303:Drivers/CMSIS/Include/cmsis_gcc.h ****   uint32_t result;
 304:Drivers/CMSIS/Include/cmsis_gcc.h **** 
 305:Drivers/CMSIS/Include/cmsis_gcc.h ****   __ASM volatile ("MRS %0, msp" : "=r" (result) );
 306:Drivers/CMSIS/Include/cmsis_gcc.h ****   return(result);
 307:Drivers/CMSIS/Include/cmsis_gcc.h **** }
 308:Drivers/CMSIS/Include/cmsis_gcc.h **** 
 309:Drivers/CMSIS/Include/cmsis_gcc.h **** 
 310:Drivers/CMSIS/Include/cmsis_gcc.h **** #if (defined (__ARM_FEATURE_CMSE ) && (__ARM_FEATURE_CMSE == 3))
 311:Drivers/CMSIS/Include/cmsis_gcc.h **** /**
 312:Drivers/CMSIS/Include/cmsis_gcc.h ****   \brief   Get Main Stack Pointer (non-secure)
 313:Drivers/CMSIS/Include/cmsis_gcc.h ****   \details Returns the current value of the non-secure Main Stack Pointer (MSP) when in secure stat
 314:Drivers/CMSIS/Include/cmsis_gcc.h ****   \return               MSP Register value
 315:Drivers/CMSIS/Include/cmsis_gcc.h ****  */
 316:Drivers/CMSIS/Include/cmsis_gcc.h **** __STATIC_FORCEINLINE uint32_t __TZ_get_MSP_NS(void)
 317:Drivers/CMSIS/Include/cmsis_gcc.h **** {
 318:Drivers/CMSIS/Include/cmsis_gcc.h ****   uint32_t result;
 319:Drivers/CMSIS/Include/cmsis_gcc.h **** 
 320:Drivers/CMSIS/Include/cmsis_gcc.h ****   __ASM volatile ("MRS %0, msp_ns" : "=r" (result) );
 321:Drivers/CMSIS/Include/cmsis_gcc.h ****   return(result);
 322:Drivers/CMSIS/Include/cmsis_gcc.h **** }
 323:Drivers/CMSIS/Include/cmsis_gcc.h **** #endif
 324:Drivers/CMSIS/Include/cmsis_gcc.h **** 
 325:Drivers/CMSIS/Include/cmsis_gcc.h **** 
 326:Drivers/CMSIS/Include/cmsis_gcc.h **** /**
 327:Drivers/CMSIS/Include/cmsis_gcc.h ****   \brief   Set Main Stack Pointer
 328:Drivers/CMSIS/Include/cmsis_gcc.h ****   \details Assigns the given value to the Main Stack Pointer (MSP).
 329:Drivers/CMSIS/Include/cmsis_gcc.h ****   \param [in]    topOfMainStack  Main Stack Pointer value to set
 330:Drivers/CMSIS/Include/cmsis_gcc.h ****  */
 331:Drivers/CMSIS/Include/cmsis_gcc.h **** __STATIC_FORCEINLINE void __set_MSP(uint32_t topOfMainStack)
 332:Drivers/CMSIS/Include/cmsis_gcc.h **** {
 333:Drivers/CMSIS/Include/cmsis_gcc.h ****   __ASM volatile ("MSR msp, %0" : : "r" (topOfMainStack) : );
 334:Drivers/CMSIS/Include/cmsis_gcc.h **** }
 335:Drivers/CMSIS/Include/cmsis_gcc.h **** 
 336:Drivers/CMSIS/Include/cmsis_gcc.h **** 
 337:Drivers/CMSIS/Include/cmsis_gcc.h **** #if (defined (__ARM_FEATURE_CMSE ) && (__ARM_FEATURE_CMSE == 3))
 338:Drivers/CMSIS/Include/cmsis_gcc.h **** /**
 339:Drivers/CMSIS/Include/cmsis_gcc.h ****   \brief   Set Main Stack Pointer (non-secure)
 340:Drivers/CMSIS/Include/cmsis_gcc.h ****   \details Assigns the given value to the non-secure Main Stack Pointer (MSP) when in secure state.
 341:Drivers/CMSIS/Include/cmsis_gcc.h ****   \param [in]    topOfMainStack  Main Stack Pointer value to set
 342:Drivers/CMSIS/Include/cmsis_gcc.h ****  */
 343:Drivers/CMSIS/Include/cmsis_gcc.h **** __STATIC_FORCEINLINE void __TZ_set_MSP_NS(uint32_t topOfMainStack)
ARM GAS  C:\Users\domen\AppData\Local\Temp\ccgakVxa.s 			page 46


 344:Drivers/CMSIS/Include/cmsis_gcc.h **** {
 345:Drivers/CMSIS/Include/cmsis_gcc.h ****   __ASM volatile ("MSR msp_ns, %0" : : "r" (topOfMainStack) : );
 346:Drivers/CMSIS/Include/cmsis_gcc.h **** }
 347:Drivers/CMSIS/Include/cmsis_gcc.h **** #endif
 348:Drivers/CMSIS/Include/cmsis_gcc.h **** 
 349:Drivers/CMSIS/Include/cmsis_gcc.h **** 
 350:Drivers/CMSIS/Include/cmsis_gcc.h **** #if (defined (__ARM_FEATURE_CMSE ) && (__ARM_FEATURE_CMSE == 3))
 351:Drivers/CMSIS/Include/cmsis_gcc.h **** /**
 352:Drivers/CMSIS/Include/cmsis_gcc.h ****   \brief   Get Stack Pointer (non-secure)
 353:Drivers/CMSIS/Include/cmsis_gcc.h ****   \details Returns the current value of the non-secure Stack Pointer (SP) when in secure state.
 354:Drivers/CMSIS/Include/cmsis_gcc.h ****   \return               SP Register value
 355:Drivers/CMSIS/Include/cmsis_gcc.h ****  */
 356:Drivers/CMSIS/Include/cmsis_gcc.h **** __STATIC_FORCEINLINE uint32_t __TZ_get_SP_NS(void)
 357:Drivers/CMSIS/Include/cmsis_gcc.h **** {
 358:Drivers/CMSIS/Include/cmsis_gcc.h ****   uint32_t result;
 359:Drivers/CMSIS/Include/cmsis_gcc.h **** 
 360:Drivers/CMSIS/Include/cmsis_gcc.h ****   __ASM volatile ("MRS %0, sp_ns" : "=r" (result) );
 361:Drivers/CMSIS/Include/cmsis_gcc.h ****   return(result);
 362:Drivers/CMSIS/Include/cmsis_gcc.h **** }
 363:Drivers/CMSIS/Include/cmsis_gcc.h **** 
 364:Drivers/CMSIS/Include/cmsis_gcc.h **** 
 365:Drivers/CMSIS/Include/cmsis_gcc.h **** /**
 366:Drivers/CMSIS/Include/cmsis_gcc.h ****   \brief   Set Stack Pointer (non-secure)
 367:Drivers/CMSIS/Include/cmsis_gcc.h ****   \details Assigns the given value to the non-secure Stack Pointer (SP) when in secure state.
 368:Drivers/CMSIS/Include/cmsis_gcc.h ****   \param [in]    topOfStack  Stack Pointer value to set
 369:Drivers/CMSIS/Include/cmsis_gcc.h ****  */
 370:Drivers/CMSIS/Include/cmsis_gcc.h **** __STATIC_FORCEINLINE void __TZ_set_SP_NS(uint32_t topOfStack)
 371:Drivers/CMSIS/Include/cmsis_gcc.h **** {
 372:Drivers/CMSIS/Include/cmsis_gcc.h ****   __ASM volatile ("MSR sp_ns, %0" : : "r" (topOfStack) : );
 373:Drivers/CMSIS/Include/cmsis_gcc.h **** }
 374:Drivers/CMSIS/Include/cmsis_gcc.h **** #endif
 375:Drivers/CMSIS/Include/cmsis_gcc.h **** 
 376:Drivers/CMSIS/Include/cmsis_gcc.h **** 
 377:Drivers/CMSIS/Include/cmsis_gcc.h **** /**
 378:Drivers/CMSIS/Include/cmsis_gcc.h ****   \brief   Get Priority Mask
 379:Drivers/CMSIS/Include/cmsis_gcc.h ****   \details Returns the current state of the priority mask bit from the Priority Mask Register.
 380:Drivers/CMSIS/Include/cmsis_gcc.h ****   \return               Priority Mask value
 381:Drivers/CMSIS/Include/cmsis_gcc.h ****  */
 382:Drivers/CMSIS/Include/cmsis_gcc.h **** __STATIC_FORCEINLINE uint32_t __get_PRIMASK(void)
 383:Drivers/CMSIS/Include/cmsis_gcc.h **** {
 384:Drivers/CMSIS/Include/cmsis_gcc.h ****   uint32_t result;
 385:Drivers/CMSIS/Include/cmsis_gcc.h **** 
 386:Drivers/CMSIS/Include/cmsis_gcc.h ****   __ASM volatile ("MRS %0, primask" : "=r" (result) :: "memory");
 387:Drivers/CMSIS/Include/cmsis_gcc.h ****   return(result);
 388:Drivers/CMSIS/Include/cmsis_gcc.h **** }
 389:Drivers/CMSIS/Include/cmsis_gcc.h **** 
 390:Drivers/CMSIS/Include/cmsis_gcc.h **** 
 391:Drivers/CMSIS/Include/cmsis_gcc.h **** #if (defined (__ARM_FEATURE_CMSE ) && (__ARM_FEATURE_CMSE == 3))
 392:Drivers/CMSIS/Include/cmsis_gcc.h **** /**
 393:Drivers/CMSIS/Include/cmsis_gcc.h ****   \brief   Get Priority Mask (non-secure)
 394:Drivers/CMSIS/Include/cmsis_gcc.h ****   \details Returns the current state of the non-secure priority mask bit from the Priority Mask Reg
 395:Drivers/CMSIS/Include/cmsis_gcc.h ****   \return               Priority Mask value
 396:Drivers/CMSIS/Include/cmsis_gcc.h ****  */
 397:Drivers/CMSIS/Include/cmsis_gcc.h **** __STATIC_FORCEINLINE uint32_t __TZ_get_PRIMASK_NS(void)
 398:Drivers/CMSIS/Include/cmsis_gcc.h **** {
 399:Drivers/CMSIS/Include/cmsis_gcc.h ****   uint32_t result;
 400:Drivers/CMSIS/Include/cmsis_gcc.h **** 
ARM GAS  C:\Users\domen\AppData\Local\Temp\ccgakVxa.s 			page 47


 401:Drivers/CMSIS/Include/cmsis_gcc.h ****   __ASM volatile ("MRS %0, primask_ns" : "=r" (result) :: "memory");
 402:Drivers/CMSIS/Include/cmsis_gcc.h ****   return(result);
 403:Drivers/CMSIS/Include/cmsis_gcc.h **** }
 404:Drivers/CMSIS/Include/cmsis_gcc.h **** #endif
 405:Drivers/CMSIS/Include/cmsis_gcc.h **** 
 406:Drivers/CMSIS/Include/cmsis_gcc.h **** 
 407:Drivers/CMSIS/Include/cmsis_gcc.h **** /**
 408:Drivers/CMSIS/Include/cmsis_gcc.h ****   \brief   Set Priority Mask
 409:Drivers/CMSIS/Include/cmsis_gcc.h ****   \details Assigns the given value to the Priority Mask Register.
 410:Drivers/CMSIS/Include/cmsis_gcc.h ****   \param [in]    priMask  Priority Mask
 411:Drivers/CMSIS/Include/cmsis_gcc.h ****  */
 412:Drivers/CMSIS/Include/cmsis_gcc.h **** __STATIC_FORCEINLINE void __set_PRIMASK(uint32_t priMask)
 413:Drivers/CMSIS/Include/cmsis_gcc.h **** {
 414:Drivers/CMSIS/Include/cmsis_gcc.h ****   __ASM volatile ("MSR primask, %0" : : "r" (priMask) : "memory");
 415:Drivers/CMSIS/Include/cmsis_gcc.h **** }
 416:Drivers/CMSIS/Include/cmsis_gcc.h **** 
 417:Drivers/CMSIS/Include/cmsis_gcc.h **** 
 418:Drivers/CMSIS/Include/cmsis_gcc.h **** #if (defined (__ARM_FEATURE_CMSE ) && (__ARM_FEATURE_CMSE == 3))
 419:Drivers/CMSIS/Include/cmsis_gcc.h **** /**
 420:Drivers/CMSIS/Include/cmsis_gcc.h ****   \brief   Set Priority Mask (non-secure)
 421:Drivers/CMSIS/Include/cmsis_gcc.h ****   \details Assigns the given value to the non-secure Priority Mask Register when in secure state.
 422:Drivers/CMSIS/Include/cmsis_gcc.h ****   \param [in]    priMask  Priority Mask
 423:Drivers/CMSIS/Include/cmsis_gcc.h ****  */
 424:Drivers/CMSIS/Include/cmsis_gcc.h **** __STATIC_FORCEINLINE void __TZ_set_PRIMASK_NS(uint32_t priMask)
 425:Drivers/CMSIS/Include/cmsis_gcc.h **** {
 426:Drivers/CMSIS/Include/cmsis_gcc.h ****   __ASM volatile ("MSR primask_ns, %0" : : "r" (priMask) : "memory");
 427:Drivers/CMSIS/Include/cmsis_gcc.h **** }
 428:Drivers/CMSIS/Include/cmsis_gcc.h **** #endif
 429:Drivers/CMSIS/Include/cmsis_gcc.h **** 
 430:Drivers/CMSIS/Include/cmsis_gcc.h **** 
 431:Drivers/CMSIS/Include/cmsis_gcc.h **** #if ((defined (__ARM_ARCH_7M__      ) && (__ARM_ARCH_7M__      == 1)) || \
 432:Drivers/CMSIS/Include/cmsis_gcc.h ****      (defined (__ARM_ARCH_7EM__     ) && (__ARM_ARCH_7EM__     == 1)) || \
 433:Drivers/CMSIS/Include/cmsis_gcc.h ****      (defined (__ARM_ARCH_8M_MAIN__ ) && (__ARM_ARCH_8M_MAIN__ == 1))    )
 434:Drivers/CMSIS/Include/cmsis_gcc.h **** /**
 435:Drivers/CMSIS/Include/cmsis_gcc.h ****   \brief   Enable FIQ
 436:Drivers/CMSIS/Include/cmsis_gcc.h ****   \details Enables FIQ interrupts by clearing the F-bit in the CPSR.
 437:Drivers/CMSIS/Include/cmsis_gcc.h ****            Can only be executed in Privileged modes.
 438:Drivers/CMSIS/Include/cmsis_gcc.h ****  */
 439:Drivers/CMSIS/Include/cmsis_gcc.h **** __STATIC_FORCEINLINE void __enable_fault_irq(void)
 440:Drivers/CMSIS/Include/cmsis_gcc.h **** {
 441:Drivers/CMSIS/Include/cmsis_gcc.h ****   __ASM volatile ("cpsie f" : : : "memory");
 442:Drivers/CMSIS/Include/cmsis_gcc.h **** }
 443:Drivers/CMSIS/Include/cmsis_gcc.h **** 
 444:Drivers/CMSIS/Include/cmsis_gcc.h **** 
 445:Drivers/CMSIS/Include/cmsis_gcc.h **** /**
 446:Drivers/CMSIS/Include/cmsis_gcc.h ****   \brief   Disable FIQ
 447:Drivers/CMSIS/Include/cmsis_gcc.h ****   \details Disables FIQ interrupts by setting the F-bit in the CPSR.
 448:Drivers/CMSIS/Include/cmsis_gcc.h ****            Can only be executed in Privileged modes.
 449:Drivers/CMSIS/Include/cmsis_gcc.h ****  */
 450:Drivers/CMSIS/Include/cmsis_gcc.h **** __STATIC_FORCEINLINE void __disable_fault_irq(void)
 451:Drivers/CMSIS/Include/cmsis_gcc.h **** {
 452:Drivers/CMSIS/Include/cmsis_gcc.h ****   __ASM volatile ("cpsid f" : : : "memory");
 453:Drivers/CMSIS/Include/cmsis_gcc.h **** }
 454:Drivers/CMSIS/Include/cmsis_gcc.h **** 
 455:Drivers/CMSIS/Include/cmsis_gcc.h **** 
 456:Drivers/CMSIS/Include/cmsis_gcc.h **** /**
 457:Drivers/CMSIS/Include/cmsis_gcc.h ****   \brief   Get Base Priority
ARM GAS  C:\Users\domen\AppData\Local\Temp\ccgakVxa.s 			page 48


 458:Drivers/CMSIS/Include/cmsis_gcc.h ****   \details Returns the current value of the Base Priority register.
 459:Drivers/CMSIS/Include/cmsis_gcc.h ****   \return               Base Priority register value
 460:Drivers/CMSIS/Include/cmsis_gcc.h ****  */
 461:Drivers/CMSIS/Include/cmsis_gcc.h **** __STATIC_FORCEINLINE uint32_t __get_BASEPRI(void)
 462:Drivers/CMSIS/Include/cmsis_gcc.h **** {
 463:Drivers/CMSIS/Include/cmsis_gcc.h ****   uint32_t result;
 464:Drivers/CMSIS/Include/cmsis_gcc.h **** 
 465:Drivers/CMSIS/Include/cmsis_gcc.h ****   __ASM volatile ("MRS %0, basepri" : "=r" (result) );
 466:Drivers/CMSIS/Include/cmsis_gcc.h ****   return(result);
 467:Drivers/CMSIS/Include/cmsis_gcc.h **** }
 468:Drivers/CMSIS/Include/cmsis_gcc.h **** 
 469:Drivers/CMSIS/Include/cmsis_gcc.h **** 
 470:Drivers/CMSIS/Include/cmsis_gcc.h **** #if (defined (__ARM_FEATURE_CMSE ) && (__ARM_FEATURE_CMSE == 3))
 471:Drivers/CMSIS/Include/cmsis_gcc.h **** /**
 472:Drivers/CMSIS/Include/cmsis_gcc.h ****   \brief   Get Base Priority (non-secure)
 473:Drivers/CMSIS/Include/cmsis_gcc.h ****   \details Returns the current value of the non-secure Base Priority register when in secure state.
 474:Drivers/CMSIS/Include/cmsis_gcc.h ****   \return               Base Priority register value
 475:Drivers/CMSIS/Include/cmsis_gcc.h ****  */
 476:Drivers/CMSIS/Include/cmsis_gcc.h **** __STATIC_FORCEINLINE uint32_t __TZ_get_BASEPRI_NS(void)
 477:Drivers/CMSIS/Include/cmsis_gcc.h **** {
 478:Drivers/CMSIS/Include/cmsis_gcc.h ****   uint32_t result;
