ARM GAS  C:\Users\domen\AppData\Local\Temp\ccqUJVhq.s 			page 1


   1              		.cpu cortex-m3
   2              		.eabi_attribute 20, 1
   3              		.eabi_attribute 21, 1
   4              		.eabi_attribute 23, 3
   5              		.eabi_attribute 24, 1
   6              		.eabi_attribute 25, 1
   7              		.eabi_attribute 26, 1
   8              		.eabi_attribute 30, 1
   9              		.eabi_attribute 34, 1
  10              		.eabi_attribute 18, 4
  11              		.file	"stm32l1xx_ll_dma.c"
  12              		.text
  13              	.Ltext0:
  14              		.cfi_sections	.debug_frame
  15              		.section	.text.LL_DMA_DeInit,"ax",%progbits
  16              		.align	1
  17              		.global	LL_DMA_DeInit
  18              		.arch armv7-m
  19              		.syntax unified
  20              		.thumb
  21              		.thumb_func
  22              		.fpu softvfp
  24              	LL_DMA_DeInit:
  25              	.LVL0:
  26              	.LFB187:
  27              		.file 1 "Drivers/STM32L1xx_HAL_Driver/Src/stm32l1xx_ll_dma.c"
   1:Drivers/STM32L1xx_HAL_Driver/Src/stm32l1xx_ll_dma.c **** /**
   2:Drivers/STM32L1xx_HAL_Driver/Src/stm32l1xx_ll_dma.c ****   ******************************************************************************
   3:Drivers/STM32L1xx_HAL_Driver/Src/stm32l1xx_ll_dma.c ****   * @file    stm32l1xx_ll_dma.c
   4:Drivers/STM32L1xx_HAL_Driver/Src/stm32l1xx_ll_dma.c ****   * @author  MCD Application Team
   5:Drivers/STM32L1xx_HAL_Driver/Src/stm32l1xx_ll_dma.c ****   * @brief   DMA LL module driver.
   6:Drivers/STM32L1xx_HAL_Driver/Src/stm32l1xx_ll_dma.c ****   ******************************************************************************
   7:Drivers/STM32L1xx_HAL_Driver/Src/stm32l1xx_ll_dma.c ****   * @attention
   8:Drivers/STM32L1xx_HAL_Driver/Src/stm32l1xx_ll_dma.c ****   *
   9:Drivers/STM32L1xx_HAL_Driver/Src/stm32l1xx_ll_dma.c ****   * <h2><center>&copy; Copyright (c) 2017 STMicroelectronics.
  10:Drivers/STM32L1xx_HAL_Driver/Src/stm32l1xx_ll_dma.c ****   * All rights reserved.</center></h2>
  11:Drivers/STM32L1xx_HAL_Driver/Src/stm32l1xx_ll_dma.c ****   *
  12:Drivers/STM32L1xx_HAL_Driver/Src/stm32l1xx_ll_dma.c ****   * This software component is licensed by ST under BSD 3-Clause license,
  13:Drivers/STM32L1xx_HAL_Driver/Src/stm32l1xx_ll_dma.c ****   * the "License"; You may not use this file except in compliance with the
  14:Drivers/STM32L1xx_HAL_Driver/Src/stm32l1xx_ll_dma.c ****   * License. You may obtain a copy of the License at:
  15:Drivers/STM32L1xx_HAL_Driver/Src/stm32l1xx_ll_dma.c ****   *                        opensource.org/licenses/BSD-3-Clause
  16:Drivers/STM32L1xx_HAL_Driver/Src/stm32l1xx_ll_dma.c ****   *
  17:Drivers/STM32L1xx_HAL_Driver/Src/stm32l1xx_ll_dma.c ****   ******************************************************************************
  18:Drivers/STM32L1xx_HAL_Driver/Src/stm32l1xx_ll_dma.c ****   */
  19:Drivers/STM32L1xx_HAL_Driver/Src/stm32l1xx_ll_dma.c **** #if defined(USE_FULL_LL_DRIVER)
  20:Drivers/STM32L1xx_HAL_Driver/Src/stm32l1xx_ll_dma.c **** 
  21:Drivers/STM32L1xx_HAL_Driver/Src/stm32l1xx_ll_dma.c **** /* Includes ------------------------------------------------------------------*/
  22:Drivers/STM32L1xx_HAL_Driver/Src/stm32l1xx_ll_dma.c **** #include "stm32l1xx_ll_dma.h"
  23:Drivers/STM32L1xx_HAL_Driver/Src/stm32l1xx_ll_dma.c **** #include "stm32l1xx_ll_bus.h"
  24:Drivers/STM32L1xx_HAL_Driver/Src/stm32l1xx_ll_dma.c **** #ifdef  USE_FULL_ASSERT
  25:Drivers/STM32L1xx_HAL_Driver/Src/stm32l1xx_ll_dma.c **** #include "stm32_assert.h"
  26:Drivers/STM32L1xx_HAL_Driver/Src/stm32l1xx_ll_dma.c **** #else
  27:Drivers/STM32L1xx_HAL_Driver/Src/stm32l1xx_ll_dma.c **** #define assert_param(expr) ((void)0U)
  28:Drivers/STM32L1xx_HAL_Driver/Src/stm32l1xx_ll_dma.c **** #endif
  29:Drivers/STM32L1xx_HAL_Driver/Src/stm32l1xx_ll_dma.c **** 
  30:Drivers/STM32L1xx_HAL_Driver/Src/stm32l1xx_ll_dma.c **** /** @addtogroup STM32L1xx_LL_Driver
  31:Drivers/STM32L1xx_HAL_Driver/Src/stm32l1xx_ll_dma.c ****   * @{
ARM GAS  C:\Users\domen\AppData\Local\Temp\ccqUJVhq.s 			page 2


  32:Drivers/STM32L1xx_HAL_Driver/Src/stm32l1xx_ll_dma.c ****   */
  33:Drivers/STM32L1xx_HAL_Driver/Src/stm32l1xx_ll_dma.c **** 
  34:Drivers/STM32L1xx_HAL_Driver/Src/stm32l1xx_ll_dma.c **** #if defined (DMA1) || defined (DMA2)
  35:Drivers/STM32L1xx_HAL_Driver/Src/stm32l1xx_ll_dma.c **** 
  36:Drivers/STM32L1xx_HAL_Driver/Src/stm32l1xx_ll_dma.c **** /** @defgroup DMA_LL DMA
  37:Drivers/STM32L1xx_HAL_Driver/Src/stm32l1xx_ll_dma.c ****   * @{
  38:Drivers/STM32L1xx_HAL_Driver/Src/stm32l1xx_ll_dma.c ****   */
  39:Drivers/STM32L1xx_HAL_Driver/Src/stm32l1xx_ll_dma.c **** 
  40:Drivers/STM32L1xx_HAL_Driver/Src/stm32l1xx_ll_dma.c **** /* Private types -------------------------------------------------------------*/
  41:Drivers/STM32L1xx_HAL_Driver/Src/stm32l1xx_ll_dma.c **** /* Private variables ---------------------------------------------------------*/
  42:Drivers/STM32L1xx_HAL_Driver/Src/stm32l1xx_ll_dma.c **** /* Private constants ---------------------------------------------------------*/
  43:Drivers/STM32L1xx_HAL_Driver/Src/stm32l1xx_ll_dma.c **** /* Private macros ------------------------------------------------------------*/
  44:Drivers/STM32L1xx_HAL_Driver/Src/stm32l1xx_ll_dma.c **** /** @addtogroup DMA_LL_Private_Macros
  45:Drivers/STM32L1xx_HAL_Driver/Src/stm32l1xx_ll_dma.c ****   * @{
  46:Drivers/STM32L1xx_HAL_Driver/Src/stm32l1xx_ll_dma.c ****   */
  47:Drivers/STM32L1xx_HAL_Driver/Src/stm32l1xx_ll_dma.c **** #define IS_LL_DMA_DIRECTION(__VALUE__)          (((__VALUE__) == LL_DMA_DIRECTION_PERIPH_TO_MEMORY)
  48:Drivers/STM32L1xx_HAL_Driver/Src/stm32l1xx_ll_dma.c ****                                                  ((__VALUE__) == LL_DMA_DIRECTION_MEMORY_TO_PERIPH)
  49:Drivers/STM32L1xx_HAL_Driver/Src/stm32l1xx_ll_dma.c ****                                                  ((__VALUE__) == LL_DMA_DIRECTION_MEMORY_TO_MEMORY)
  50:Drivers/STM32L1xx_HAL_Driver/Src/stm32l1xx_ll_dma.c **** 
  51:Drivers/STM32L1xx_HAL_Driver/Src/stm32l1xx_ll_dma.c **** #define IS_LL_DMA_MODE(__VALUE__)               (((__VALUE__) == LL_DMA_MODE_NORMAL) || \
  52:Drivers/STM32L1xx_HAL_Driver/Src/stm32l1xx_ll_dma.c ****                                                  ((__VALUE__) == LL_DMA_MODE_CIRCULAR))
  53:Drivers/STM32L1xx_HAL_Driver/Src/stm32l1xx_ll_dma.c **** 
  54:Drivers/STM32L1xx_HAL_Driver/Src/stm32l1xx_ll_dma.c **** #define IS_LL_DMA_PERIPHINCMODE(__VALUE__)      (((__VALUE__) == LL_DMA_PERIPH_INCREMENT) || \
  55:Drivers/STM32L1xx_HAL_Driver/Src/stm32l1xx_ll_dma.c ****                                                  ((__VALUE__) == LL_DMA_PERIPH_NOINCREMENT))
  56:Drivers/STM32L1xx_HAL_Driver/Src/stm32l1xx_ll_dma.c **** 
  57:Drivers/STM32L1xx_HAL_Driver/Src/stm32l1xx_ll_dma.c **** #define IS_LL_DMA_MEMORYINCMODE(__VALUE__)      (((__VALUE__) == LL_DMA_MEMORY_INCREMENT) || \
  58:Drivers/STM32L1xx_HAL_Driver/Src/stm32l1xx_ll_dma.c ****                                                  ((__VALUE__) == LL_DMA_MEMORY_NOINCREMENT))
  59:Drivers/STM32L1xx_HAL_Driver/Src/stm32l1xx_ll_dma.c **** 
  60:Drivers/STM32L1xx_HAL_Driver/Src/stm32l1xx_ll_dma.c **** #define IS_LL_DMA_PERIPHDATASIZE(__VALUE__)     (((__VALUE__) == LL_DMA_PDATAALIGN_BYTE)      || \
  61:Drivers/STM32L1xx_HAL_Driver/Src/stm32l1xx_ll_dma.c ****                                                  ((__VALUE__) == LL_DMA_PDATAALIGN_HALFWORD)  || \
  62:Drivers/STM32L1xx_HAL_Driver/Src/stm32l1xx_ll_dma.c ****                                                  ((__VALUE__) == LL_DMA_PDATAALIGN_WORD))
  63:Drivers/STM32L1xx_HAL_Driver/Src/stm32l1xx_ll_dma.c **** 
  64:Drivers/STM32L1xx_HAL_Driver/Src/stm32l1xx_ll_dma.c **** #define IS_LL_DMA_MEMORYDATASIZE(__VALUE__)     (((__VALUE__) == LL_DMA_MDATAALIGN_BYTE)      || \
  65:Drivers/STM32L1xx_HAL_Driver/Src/stm32l1xx_ll_dma.c ****                                                  ((__VALUE__) == LL_DMA_MDATAALIGN_HALFWORD)  || \
  66:Drivers/STM32L1xx_HAL_Driver/Src/stm32l1xx_ll_dma.c ****                                                  ((__VALUE__) == LL_DMA_MDATAALIGN_WORD))
  67:Drivers/STM32L1xx_HAL_Driver/Src/stm32l1xx_ll_dma.c **** 
  68:Drivers/STM32L1xx_HAL_Driver/Src/stm32l1xx_ll_dma.c **** #define IS_LL_DMA_NBDATA(__VALUE__)             ((__VALUE__)  <= 0x0000FFFFU)
  69:Drivers/STM32L1xx_HAL_Driver/Src/stm32l1xx_ll_dma.c **** 
  70:Drivers/STM32L1xx_HAL_Driver/Src/stm32l1xx_ll_dma.c **** 
  71:Drivers/STM32L1xx_HAL_Driver/Src/stm32l1xx_ll_dma.c **** #define IS_LL_DMA_PRIORITY(__VALUE__)           (((__VALUE__) == LL_DMA_PRIORITY_LOW)    || \
  72:Drivers/STM32L1xx_HAL_Driver/Src/stm32l1xx_ll_dma.c ****                                                  ((__VALUE__) == LL_DMA_PRIORITY_MEDIUM) || \
  73:Drivers/STM32L1xx_HAL_Driver/Src/stm32l1xx_ll_dma.c ****                                                  ((__VALUE__) == LL_DMA_PRIORITY_HIGH)   || \
  74:Drivers/STM32L1xx_HAL_Driver/Src/stm32l1xx_ll_dma.c ****                                                  ((__VALUE__) == LL_DMA_PRIORITY_VERYHIGH))
  75:Drivers/STM32L1xx_HAL_Driver/Src/stm32l1xx_ll_dma.c **** 
  76:Drivers/STM32L1xx_HAL_Driver/Src/stm32l1xx_ll_dma.c **** #if defined (DMA2)
  77:Drivers/STM32L1xx_HAL_Driver/Src/stm32l1xx_ll_dma.c **** #if defined (DMA2_Channel6) && defined (DMA2_Channel7)
  78:Drivers/STM32L1xx_HAL_Driver/Src/stm32l1xx_ll_dma.c **** #define IS_LL_DMA_ALL_CHANNEL_INSTANCE(INSTANCE, CHANNEL)  ((((INSTANCE) == DMA1) && \
  79:Drivers/STM32L1xx_HAL_Driver/Src/stm32l1xx_ll_dma.c ****                                                          (((CHANNEL) == LL_DMA_CHANNEL_1) || \
  80:Drivers/STM32L1xx_HAL_Driver/Src/stm32l1xx_ll_dma.c ****                                                           ((CHANNEL) == LL_DMA_CHANNEL_2) || \
  81:Drivers/STM32L1xx_HAL_Driver/Src/stm32l1xx_ll_dma.c ****                                                           ((CHANNEL) == LL_DMA_CHANNEL_3) || \
  82:Drivers/STM32L1xx_HAL_Driver/Src/stm32l1xx_ll_dma.c ****                                                           ((CHANNEL) == LL_DMA_CHANNEL_4) || \
  83:Drivers/STM32L1xx_HAL_Driver/Src/stm32l1xx_ll_dma.c ****                                                           ((CHANNEL) == LL_DMA_CHANNEL_5) || \
  84:Drivers/STM32L1xx_HAL_Driver/Src/stm32l1xx_ll_dma.c ****                                                           ((CHANNEL) == LL_DMA_CHANNEL_6) || \
  85:Drivers/STM32L1xx_HAL_Driver/Src/stm32l1xx_ll_dma.c ****                                                           ((CHANNEL) == LL_DMA_CHANNEL_7))) || \
  86:Drivers/STM32L1xx_HAL_Driver/Src/stm32l1xx_ll_dma.c ****                                                          (((INSTANCE) == DMA2) && \
  87:Drivers/STM32L1xx_HAL_Driver/Src/stm32l1xx_ll_dma.c ****                                                          (((CHANNEL) == LL_DMA_CHANNEL_1) || \
  88:Drivers/STM32L1xx_HAL_Driver/Src/stm32l1xx_ll_dma.c ****                                                           ((CHANNEL) == LL_DMA_CHANNEL_2) || \
ARM GAS  C:\Users\domen\AppData\Local\Temp\ccqUJVhq.s 			page 3


  89:Drivers/STM32L1xx_HAL_Driver/Src/stm32l1xx_ll_dma.c ****                                                           ((CHANNEL) == LL_DMA_CHANNEL_3) || \
  90:Drivers/STM32L1xx_HAL_Driver/Src/stm32l1xx_ll_dma.c ****                                                           ((CHANNEL) == LL_DMA_CHANNEL_4) || \
  91:Drivers/STM32L1xx_HAL_Driver/Src/stm32l1xx_ll_dma.c ****                                                           ((CHANNEL) == LL_DMA_CHANNEL_5) || \
  92:Drivers/STM32L1xx_HAL_Driver/Src/stm32l1xx_ll_dma.c ****                                                           ((CHANNEL) == LL_DMA_CHANNEL_6) || \
  93:Drivers/STM32L1xx_HAL_Driver/Src/stm32l1xx_ll_dma.c ****                                                           ((CHANNEL) == LL_DMA_CHANNEL_7))))
  94:Drivers/STM32L1xx_HAL_Driver/Src/stm32l1xx_ll_dma.c **** #else
  95:Drivers/STM32L1xx_HAL_Driver/Src/stm32l1xx_ll_dma.c **** #define IS_LL_DMA_ALL_CHANNEL_INSTANCE(INSTANCE, CHANNEL)  ((((INSTANCE) == DMA1) && \
  96:Drivers/STM32L1xx_HAL_Driver/Src/stm32l1xx_ll_dma.c ****                                                          (((CHANNEL) == LL_DMA_CHANNEL_1) || \
  97:Drivers/STM32L1xx_HAL_Driver/Src/stm32l1xx_ll_dma.c ****                                                           ((CHANNEL) == LL_DMA_CHANNEL_2) || \
  98:Drivers/STM32L1xx_HAL_Driver/Src/stm32l1xx_ll_dma.c ****                                                           ((CHANNEL) == LL_DMA_CHANNEL_3) || \
  99:Drivers/STM32L1xx_HAL_Driver/Src/stm32l1xx_ll_dma.c ****                                                           ((CHANNEL) == LL_DMA_CHANNEL_4) || \
 100:Drivers/STM32L1xx_HAL_Driver/Src/stm32l1xx_ll_dma.c ****                                                           ((CHANNEL) == LL_DMA_CHANNEL_5) || \
 101:Drivers/STM32L1xx_HAL_Driver/Src/stm32l1xx_ll_dma.c ****                                                           ((CHANNEL) == LL_DMA_CHANNEL_6) || \
 102:Drivers/STM32L1xx_HAL_Driver/Src/stm32l1xx_ll_dma.c ****                                                           ((CHANNEL) == LL_DMA_CHANNEL_7))) || \
 103:Drivers/STM32L1xx_HAL_Driver/Src/stm32l1xx_ll_dma.c ****                                                          (((INSTANCE) == DMA2) && \
 104:Drivers/STM32L1xx_HAL_Driver/Src/stm32l1xx_ll_dma.c ****                                                          (((CHANNEL) == LL_DMA_CHANNEL_1) || \
 105:Drivers/STM32L1xx_HAL_Driver/Src/stm32l1xx_ll_dma.c ****                                                           ((CHANNEL) == LL_DMA_CHANNEL_2) || \
 106:Drivers/STM32L1xx_HAL_Driver/Src/stm32l1xx_ll_dma.c ****                                                           ((CHANNEL) == LL_DMA_CHANNEL_3) || \
 107:Drivers/STM32L1xx_HAL_Driver/Src/stm32l1xx_ll_dma.c ****                                                           ((CHANNEL) == LL_DMA_CHANNEL_4) || \
 108:Drivers/STM32L1xx_HAL_Driver/Src/stm32l1xx_ll_dma.c ****                                                           ((CHANNEL) == LL_DMA_CHANNEL_5))))
 109:Drivers/STM32L1xx_HAL_Driver/Src/stm32l1xx_ll_dma.c **** #endif
 110:Drivers/STM32L1xx_HAL_Driver/Src/stm32l1xx_ll_dma.c **** #else
 111:Drivers/STM32L1xx_HAL_Driver/Src/stm32l1xx_ll_dma.c **** #define IS_LL_DMA_ALL_CHANNEL_INSTANCE(INSTANCE, CHANNEL)  ((((INSTANCE) == DMA1) && \
 112:Drivers/STM32L1xx_HAL_Driver/Src/stm32l1xx_ll_dma.c ****                                                             (((CHANNEL) == LL_DMA_CHANNEL_1)|| \
 113:Drivers/STM32L1xx_HAL_Driver/Src/stm32l1xx_ll_dma.c ****                                                             ((CHANNEL) == LL_DMA_CHANNEL_2) || \
 114:Drivers/STM32L1xx_HAL_Driver/Src/stm32l1xx_ll_dma.c ****                                                             ((CHANNEL) == LL_DMA_CHANNEL_3) || \
 115:Drivers/STM32L1xx_HAL_Driver/Src/stm32l1xx_ll_dma.c ****                                                             ((CHANNEL) == LL_DMA_CHANNEL_4) || \
 116:Drivers/STM32L1xx_HAL_Driver/Src/stm32l1xx_ll_dma.c ****                                                             ((CHANNEL) == LL_DMA_CHANNEL_5) || \
 117:Drivers/STM32L1xx_HAL_Driver/Src/stm32l1xx_ll_dma.c ****                                                             ((CHANNEL) == LL_DMA_CHANNEL_6) || \
 118:Drivers/STM32L1xx_HAL_Driver/Src/stm32l1xx_ll_dma.c ****                                                             ((CHANNEL) == LL_DMA_CHANNEL_7))))
 119:Drivers/STM32L1xx_HAL_Driver/Src/stm32l1xx_ll_dma.c **** #endif
 120:Drivers/STM32L1xx_HAL_Driver/Src/stm32l1xx_ll_dma.c **** /**
 121:Drivers/STM32L1xx_HAL_Driver/Src/stm32l1xx_ll_dma.c ****   * @}
 122:Drivers/STM32L1xx_HAL_Driver/Src/stm32l1xx_ll_dma.c ****   */
 123:Drivers/STM32L1xx_HAL_Driver/Src/stm32l1xx_ll_dma.c **** 
 124:Drivers/STM32L1xx_HAL_Driver/Src/stm32l1xx_ll_dma.c **** /* Private function prototypes -----------------------------------------------*/
 125:Drivers/STM32L1xx_HAL_Driver/Src/stm32l1xx_ll_dma.c **** 
 126:Drivers/STM32L1xx_HAL_Driver/Src/stm32l1xx_ll_dma.c **** /* Exported functions --------------------------------------------------------*/
 127:Drivers/STM32L1xx_HAL_Driver/Src/stm32l1xx_ll_dma.c **** /** @addtogroup DMA_LL_Exported_Functions
 128:Drivers/STM32L1xx_HAL_Driver/Src/stm32l1xx_ll_dma.c ****   * @{
 129:Drivers/STM32L1xx_HAL_Driver/Src/stm32l1xx_ll_dma.c ****   */
 130:Drivers/STM32L1xx_HAL_Driver/Src/stm32l1xx_ll_dma.c **** 
 131:Drivers/STM32L1xx_HAL_Driver/Src/stm32l1xx_ll_dma.c **** /** @addtogroup DMA_LL_EF_Init
 132:Drivers/STM32L1xx_HAL_Driver/Src/stm32l1xx_ll_dma.c ****   * @{
 133:Drivers/STM32L1xx_HAL_Driver/Src/stm32l1xx_ll_dma.c ****   */
 134:Drivers/STM32L1xx_HAL_Driver/Src/stm32l1xx_ll_dma.c **** 
 135:Drivers/STM32L1xx_HAL_Driver/Src/stm32l1xx_ll_dma.c **** /**
 136:Drivers/STM32L1xx_HAL_Driver/Src/stm32l1xx_ll_dma.c ****   * @brief  De-initialize the DMA registers to their default reset values.
 137:Drivers/STM32L1xx_HAL_Driver/Src/stm32l1xx_ll_dma.c ****   * @param  DMAx DMAx Instance
 138:Drivers/STM32L1xx_HAL_Driver/Src/stm32l1xx_ll_dma.c ****   * @param  Channel This parameter can be one of the following values:
 139:Drivers/STM32L1xx_HAL_Driver/Src/stm32l1xx_ll_dma.c ****   *         @arg @ref LL_DMA_CHANNEL_1
 140:Drivers/STM32L1xx_HAL_Driver/Src/stm32l1xx_ll_dma.c ****   *         @arg @ref LL_DMA_CHANNEL_2
 141:Drivers/STM32L1xx_HAL_Driver/Src/stm32l1xx_ll_dma.c ****   *         @arg @ref LL_DMA_CHANNEL_3
 142:Drivers/STM32L1xx_HAL_Driver/Src/stm32l1xx_ll_dma.c ****   *         @arg @ref LL_DMA_CHANNEL_4
 143:Drivers/STM32L1xx_HAL_Driver/Src/stm32l1xx_ll_dma.c ****   *         @arg @ref LL_DMA_CHANNEL_5
 144:Drivers/STM32L1xx_HAL_Driver/Src/stm32l1xx_ll_dma.c ****   *         @arg @ref LL_DMA_CHANNEL_6
 145:Drivers/STM32L1xx_HAL_Driver/Src/stm32l1xx_ll_dma.c ****   *         @arg @ref LL_DMA_CHANNEL_7
ARM GAS  C:\Users\domen\AppData\Local\Temp\ccqUJVhq.s 			page 4


 146:Drivers/STM32L1xx_HAL_Driver/Src/stm32l1xx_ll_dma.c ****   *         @arg @ref LL_DMA_CHANNEL_ALL
 147:Drivers/STM32L1xx_HAL_Driver/Src/stm32l1xx_ll_dma.c ****   * @retval An ErrorStatus enumeration value:
 148:Drivers/STM32L1xx_HAL_Driver/Src/stm32l1xx_ll_dma.c ****   *          - SUCCESS: DMA registers are de-initialized
 149:Drivers/STM32L1xx_HAL_Driver/Src/stm32l1xx_ll_dma.c ****   *          - ERROR: DMA registers are not de-initialized
 150:Drivers/STM32L1xx_HAL_Driver/Src/stm32l1xx_ll_dma.c ****   */
 151:Drivers/STM32L1xx_HAL_Driver/Src/stm32l1xx_ll_dma.c **** uint32_t LL_DMA_DeInit(DMA_TypeDef *DMAx, uint32_t Channel)
 152:Drivers/STM32L1xx_HAL_Driver/Src/stm32l1xx_ll_dma.c **** {
  28              		.loc 1 152 1 view -0
  29              		.cfi_startproc
  30              		@ args = 0, pretend = 0, frame = 0
  31              		@ frame_needed = 0, uses_anonymous_args = 0
  32              		.loc 1 152 1 is_stmt 0 view .LVU1
  33 0000 38B5     		push	{r3, r4, r5, lr}
  34              	.LCFI0:
  35              		.cfi_def_cfa_offset 16
  36              		.cfi_offset 3, -16
  37              		.cfi_offset 4, -12
  38              		.cfi_offset 5, -8
  39              		.cfi_offset 14, -4
  40 0002 0446     		mov	r4, r0
  41 0004 0D46     		mov	r5, r1
 153:Drivers/STM32L1xx_HAL_Driver/Src/stm32l1xx_ll_dma.c ****   DMA_Channel_TypeDef *tmp = (DMA_Channel_TypeDef *)DMA1_Channel1;
  42              		.loc 1 153 3 is_stmt 1 view .LVU2
  43              	.LVL1:
 154:Drivers/STM32L1xx_HAL_Driver/Src/stm32l1xx_ll_dma.c ****   ErrorStatus status = SUCCESS;
  44              		.loc 1 154 3 view .LVU3
 155:Drivers/STM32L1xx_HAL_Driver/Src/stm32l1xx_ll_dma.c **** 
 156:Drivers/STM32L1xx_HAL_Driver/Src/stm32l1xx_ll_dma.c ****   /* Check the DMA Instance DMAx and Channel parameters*/
 157:Drivers/STM32L1xx_HAL_Driver/Src/stm32l1xx_ll_dma.c ****   assert_param(IS_LL_DMA_ALL_CHANNEL_INSTANCE(DMAx, Channel) || (Channel == LL_DMA_CHANNEL_ALL));
  45              		.loc 1 157 3 view .LVU4
  46 0006 664B     		ldr	r3, .L64
  47 0008 9842     		cmp	r0, r3
  48 000a 44D0     		beq	.L40
  49              	.L2:
  50              		.loc 1 157 3 is_stmt 0 discriminator 3 view .LVU5
  51 000c 654B     		ldr	r3, .L64+4
  52 000e 9C42     		cmp	r4, r3
  53 0010 45D0     		beq	.L41
  54              	.L4:
  55              		.loc 1 157 3 discriminator 6 view .LVU6
  56 0012 15F5803F 		cmn	r5, #65536
  57 0016 46D1     		bne	.L42
  58              	.LVL2:
  59              	.L3:
 158:Drivers/STM32L1xx_HAL_Driver/Src/stm32l1xx_ll_dma.c **** 
 159:Drivers/STM32L1xx_HAL_Driver/Src/stm32l1xx_ll_dma.c ****   if (Channel == LL_DMA_CHANNEL_ALL)
  60              		.loc 1 159 3 is_stmt 1 view .LVU7
  61              		.loc 1 159 6 is_stmt 0 view .LVU8
  62 0018 15F5803F 		cmn	r5, #65536
  63 001c 48D0     		beq	.L43
 160:Drivers/STM32L1xx_HAL_Driver/Src/stm32l1xx_ll_dma.c ****   {
 161:Drivers/STM32L1xx_HAL_Driver/Src/stm32l1xx_ll_dma.c ****     if (DMAx == DMA1)
 162:Drivers/STM32L1xx_HAL_Driver/Src/stm32l1xx_ll_dma.c ****     {
 163:Drivers/STM32L1xx_HAL_Driver/Src/stm32l1xx_ll_dma.c ****       /* Force reset of DMA clock */
 164:Drivers/STM32L1xx_HAL_Driver/Src/stm32l1xx_ll_dma.c ****       LL_AHB1_GRP1_ForceReset(LL_AHB1_GRP1_PERIPH_DMA1);
 165:Drivers/STM32L1xx_HAL_Driver/Src/stm32l1xx_ll_dma.c **** 
 166:Drivers/STM32L1xx_HAL_Driver/Src/stm32l1xx_ll_dma.c ****       /* Release reset of DMA clock */
ARM GAS  C:\Users\domen\AppData\Local\Temp\ccqUJVhq.s 			page 5


 167:Drivers/STM32L1xx_HAL_Driver/Src/stm32l1xx_ll_dma.c ****       LL_AHB1_GRP1_ReleaseReset(LL_AHB1_GRP1_PERIPH_DMA1);
 168:Drivers/STM32L1xx_HAL_Driver/Src/stm32l1xx_ll_dma.c ****     }
 169:Drivers/STM32L1xx_HAL_Driver/Src/stm32l1xx_ll_dma.c **** #if defined(DMA2)
 170:Drivers/STM32L1xx_HAL_Driver/Src/stm32l1xx_ll_dma.c ****     else if (DMAx == DMA2)
 171:Drivers/STM32L1xx_HAL_Driver/Src/stm32l1xx_ll_dma.c ****     {
 172:Drivers/STM32L1xx_HAL_Driver/Src/stm32l1xx_ll_dma.c ****       /* Force reset of DMA clock */
 173:Drivers/STM32L1xx_HAL_Driver/Src/stm32l1xx_ll_dma.c ****       LL_AHB1_GRP1_ForceReset(LL_AHB1_GRP1_PERIPH_DMA2);
 174:Drivers/STM32L1xx_HAL_Driver/Src/stm32l1xx_ll_dma.c **** 
 175:Drivers/STM32L1xx_HAL_Driver/Src/stm32l1xx_ll_dma.c ****       /* Release reset of DMA clock */
 176:Drivers/STM32L1xx_HAL_Driver/Src/stm32l1xx_ll_dma.c ****       LL_AHB1_GRP1_ReleaseReset(LL_AHB1_GRP1_PERIPH_DMA2);
 177:Drivers/STM32L1xx_HAL_Driver/Src/stm32l1xx_ll_dma.c ****     }
 178:Drivers/STM32L1xx_HAL_Driver/Src/stm32l1xx_ll_dma.c **** #endif
 179:Drivers/STM32L1xx_HAL_Driver/Src/stm32l1xx_ll_dma.c ****     else
 180:Drivers/STM32L1xx_HAL_Driver/Src/stm32l1xx_ll_dma.c ****     {
 181:Drivers/STM32L1xx_HAL_Driver/Src/stm32l1xx_ll_dma.c ****       status = ERROR;
 182:Drivers/STM32L1xx_HAL_Driver/Src/stm32l1xx_ll_dma.c ****     }
 183:Drivers/STM32L1xx_HAL_Driver/Src/stm32l1xx_ll_dma.c ****   }
 184:Drivers/STM32L1xx_HAL_Driver/Src/stm32l1xx_ll_dma.c ****   else
 185:Drivers/STM32L1xx_HAL_Driver/Src/stm32l1xx_ll_dma.c ****   {
 186:Drivers/STM32L1xx_HAL_Driver/Src/stm32l1xx_ll_dma.c ****     tmp = (DMA_Channel_TypeDef *)(__LL_DMA_GET_CHANNEL_INSTANCE(DMAx, Channel));
  64              		.loc 1 186 5 is_stmt 1 view .LVU9
  65              		.loc 1 186 11 is_stmt 0 view .LVU10
  66 001e 604B     		ldr	r3, .L64
  67 0020 9C42     		cmp	r4, r3
  68 0022 65D0     		beq	.L44
  69              	.L8:
  70              		.loc 1 186 35 discriminator 3 view .LVU11
  71 0024 5F4B     		ldr	r3, .L64+4
  72 0026 9C42     		cmp	r4, r3
  73 0028 66D0     		beq	.L45
  74              	.L10:
  75              		.loc 1 186 35 discriminator 7 view .LVU12
  76 002a 5D4B     		ldr	r3, .L64
  77 002c 9C42     		cmp	r4, r3
  78 002e 67D0     		beq	.L46
  79              	.L11:
  80              		.loc 1 186 35 discriminator 11 view .LVU13
  81 0030 5C4B     		ldr	r3, .L64+4
  82 0032 9C42     		cmp	r4, r3
  83 0034 68D0     		beq	.L47
  84              	.L12:
  85              		.loc 1 186 35 discriminator 15 view .LVU14
  86 0036 5A4B     		ldr	r3, .L64
  87 0038 9C42     		cmp	r4, r3
  88 003a 69D0     		beq	.L48
  89              	.L13:
  90              		.loc 1 186 35 discriminator 19 view .LVU15
  91 003c 594B     		ldr	r3, .L64+4
  92 003e 9C42     		cmp	r4, r3
  93 0040 6AD0     		beq	.L49
  94              	.L14:
  95              		.loc 1 186 35 discriminator 23 view .LVU16
  96 0042 574B     		ldr	r3, .L64
  97 0044 9C42     		cmp	r4, r3
  98 0046 6BD0     		beq	.L50
  99              	.L15:
 100              		.loc 1 186 35 discriminator 27 view .LVU17
ARM GAS  C:\Users\domen\AppData\Local\Temp\ccqUJVhq.s 			page 6


 101 0048 564B     		ldr	r3, .L64+4
 102 004a 9C42     		cmp	r4, r3
 103 004c 6CD0     		beq	.L51
 104              	.L16:
 105              		.loc 1 186 35 discriminator 31 view .LVU18
 106 004e 544B     		ldr	r3, .L64
 107 0050 9C42     		cmp	r4, r3
 108 0052 6DD0     		beq	.L52
 109              	.L17:
 110              		.loc 1 186 35 discriminator 35 view .LVU19
 111 0054 534B     		ldr	r3, .L64+4
 112 0056 9C42     		cmp	r4, r3
 113 0058 6ED0     		beq	.L53
 114              	.L18:
 115              		.loc 1 186 35 discriminator 39 view .LVU20
 116 005a 514B     		ldr	r3, .L64
 117 005c 9C42     		cmp	r4, r3
 118 005e 6FD0     		beq	.L54
 119              		.loc 1 186 35 view .LVU21
 120 0060 514B     		ldr	r3, .L64+8
 121              	.L9:
 122              	.LVL3:
 187:Drivers/STM32L1xx_HAL_Driver/Src/stm32l1xx_ll_dma.c **** 
 188:Drivers/STM32L1xx_HAL_Driver/Src/stm32l1xx_ll_dma.c ****     /* Disable the selected DMAx_Channely */
 189:Drivers/STM32L1xx_HAL_Driver/Src/stm32l1xx_ll_dma.c ****     CLEAR_BIT(tmp->CCR, DMA_CCR_EN);
 123              		.loc 1 189 5 is_stmt 1 discriminator 66 view .LVU22
 124 0062 1A68     		ldr	r2, [r3]
 125 0064 22F00102 		bic	r2, r2, #1
 126 0068 1A60     		str	r2, [r3]
 190:Drivers/STM32L1xx_HAL_Driver/Src/stm32l1xx_ll_dma.c **** 
 191:Drivers/STM32L1xx_HAL_Driver/Src/stm32l1xx_ll_dma.c ****     /* Reset DMAx_Channely control register */
 192:Drivers/STM32L1xx_HAL_Driver/Src/stm32l1xx_ll_dma.c ****     LL_DMA_WriteReg(tmp, CCR, 0U);
 127              		.loc 1 192 5 discriminator 66 view .LVU23
 128 006a 0022     		movs	r2, #0
 129 006c 1A60     		str	r2, [r3]
 193:Drivers/STM32L1xx_HAL_Driver/Src/stm32l1xx_ll_dma.c **** 
 194:Drivers/STM32L1xx_HAL_Driver/Src/stm32l1xx_ll_dma.c ****     /* Reset DMAx_Channely remaining bytes register */
 195:Drivers/STM32L1xx_HAL_Driver/Src/stm32l1xx_ll_dma.c ****     LL_DMA_WriteReg(tmp, CNDTR, 0U);
 130              		.loc 1 195 5 discriminator 66 view .LVU24
 131 006e 5A60     		str	r2, [r3, #4]
 196:Drivers/STM32L1xx_HAL_Driver/Src/stm32l1xx_ll_dma.c **** 
 197:Drivers/STM32L1xx_HAL_Driver/Src/stm32l1xx_ll_dma.c ****     /* Reset DMAx_Channely peripheral address register */
 198:Drivers/STM32L1xx_HAL_Driver/Src/stm32l1xx_ll_dma.c ****     LL_DMA_WriteReg(tmp, CPAR, 0U);
 132              		.loc 1 198 5 discriminator 66 view .LVU25
 133 0070 9A60     		str	r2, [r3, #8]
 199:Drivers/STM32L1xx_HAL_Driver/Src/stm32l1xx_ll_dma.c **** 
 200:Drivers/STM32L1xx_HAL_Driver/Src/stm32l1xx_ll_dma.c ****     /* Reset DMAx_Channely memory address register */
 201:Drivers/STM32L1xx_HAL_Driver/Src/stm32l1xx_ll_dma.c ****     LL_DMA_WriteReg(tmp, CMAR, 0U);
 134              		.loc 1 201 5 discriminator 66 view .LVU26
 135 0072 DA60     		str	r2, [r3, #12]
 202:Drivers/STM32L1xx_HAL_Driver/Src/stm32l1xx_ll_dma.c **** 
 203:Drivers/STM32L1xx_HAL_Driver/Src/stm32l1xx_ll_dma.c **** 
 204:Drivers/STM32L1xx_HAL_Driver/Src/stm32l1xx_ll_dma.c ****     if (Channel == LL_DMA_CHANNEL_1)
 136              		.loc 1 204 5 discriminator 66 view .LVU27
 137              		.loc 1 204 8 is_stmt 0 discriminator 66 view .LVU28
 138 0074 012D     		cmp	r5, #1
 139 0076 69D0     		beq	.L55
ARM GAS  C:\Users\domen\AppData\Local\Temp\ccqUJVhq.s 			page 7


 205:Drivers/STM32L1xx_HAL_Driver/Src/stm32l1xx_ll_dma.c ****     {
 206:Drivers/STM32L1xx_HAL_Driver/Src/stm32l1xx_ll_dma.c ****       /* Reset interrupt pending bits for DMAx Channel1 */
 207:Drivers/STM32L1xx_HAL_Driver/Src/stm32l1xx_ll_dma.c ****       LL_DMA_ClearFlag_GI1(DMAx);
 208:Drivers/STM32L1xx_HAL_Driver/Src/stm32l1xx_ll_dma.c ****     }
 209:Drivers/STM32L1xx_HAL_Driver/Src/stm32l1xx_ll_dma.c ****     else if (Channel == LL_DMA_CHANNEL_2)
 140              		.loc 1 209 10 is_stmt 1 view .LVU29
 141              		.loc 1 209 13 is_stmt 0 view .LVU30
 142 0078 022D     		cmp	r5, #2
 143 007a 6DD0     		beq	.L56
 210:Drivers/STM32L1xx_HAL_Driver/Src/stm32l1xx_ll_dma.c ****     {
 211:Drivers/STM32L1xx_HAL_Driver/Src/stm32l1xx_ll_dma.c ****       /* Reset interrupt pending bits for DMAx Channel2 */
 212:Drivers/STM32L1xx_HAL_Driver/Src/stm32l1xx_ll_dma.c ****       LL_DMA_ClearFlag_GI2(DMAx);
 213:Drivers/STM32L1xx_HAL_Driver/Src/stm32l1xx_ll_dma.c ****     }
 214:Drivers/STM32L1xx_HAL_Driver/Src/stm32l1xx_ll_dma.c ****     else if (Channel == LL_DMA_CHANNEL_3)
 144              		.loc 1 214 10 is_stmt 1 view .LVU31
 145              		.loc 1 214 13 is_stmt 0 view .LVU32
 146 007c 032D     		cmp	r5, #3
 147 007e 71D0     		beq	.L57
 215:Drivers/STM32L1xx_HAL_Driver/Src/stm32l1xx_ll_dma.c ****     {
 216:Drivers/STM32L1xx_HAL_Driver/Src/stm32l1xx_ll_dma.c ****       /* Reset interrupt pending bits for DMAx Channel3 */
 217:Drivers/STM32L1xx_HAL_Driver/Src/stm32l1xx_ll_dma.c ****       LL_DMA_ClearFlag_GI3(DMAx);
 218:Drivers/STM32L1xx_HAL_Driver/Src/stm32l1xx_ll_dma.c ****     }
 219:Drivers/STM32L1xx_HAL_Driver/Src/stm32l1xx_ll_dma.c ****     else if (Channel == LL_DMA_CHANNEL_4)
 148              		.loc 1 219 10 is_stmt 1 view .LVU33
 149              		.loc 1 219 13 is_stmt 0 view .LVU34
 150 0080 042D     		cmp	r5, #4
 151 0082 75D0     		beq	.L58
 220:Drivers/STM32L1xx_HAL_Driver/Src/stm32l1xx_ll_dma.c ****     {
 221:Drivers/STM32L1xx_HAL_Driver/Src/stm32l1xx_ll_dma.c ****       /* Reset interrupt pending bits for DMAx Channel4 */
 222:Drivers/STM32L1xx_HAL_Driver/Src/stm32l1xx_ll_dma.c ****       LL_DMA_ClearFlag_GI4(DMAx);
 223:Drivers/STM32L1xx_HAL_Driver/Src/stm32l1xx_ll_dma.c ****     }
 224:Drivers/STM32L1xx_HAL_Driver/Src/stm32l1xx_ll_dma.c ****     else if (Channel == LL_DMA_CHANNEL_5)
 152              		.loc 1 224 10 is_stmt 1 view .LVU35
 153              		.loc 1 224 13 is_stmt 0 view .LVU36
 154 0084 052D     		cmp	r5, #5
 155 0086 79D0     		beq	.L59
 225:Drivers/STM32L1xx_HAL_Driver/Src/stm32l1xx_ll_dma.c ****     {
 226:Drivers/STM32L1xx_HAL_Driver/Src/stm32l1xx_ll_dma.c ****       /* Reset interrupt pending bits for DMAx Channel5 */
 227:Drivers/STM32L1xx_HAL_Driver/Src/stm32l1xx_ll_dma.c ****       LL_DMA_ClearFlag_GI5(DMAx);
 228:Drivers/STM32L1xx_HAL_Driver/Src/stm32l1xx_ll_dma.c ****     }
 229:Drivers/STM32L1xx_HAL_Driver/Src/stm32l1xx_ll_dma.c **** 
 230:Drivers/STM32L1xx_HAL_Driver/Src/stm32l1xx_ll_dma.c ****     else if (Channel == LL_DMA_CHANNEL_6)
 156              		.loc 1 230 10 is_stmt 1 view .LVU37
 157              		.loc 1 230 13 is_stmt 0 view .LVU38
 158 0088 062D     		cmp	r5, #6
 159 008a 7DD0     		beq	.L60
 231:Drivers/STM32L1xx_HAL_Driver/Src/stm32l1xx_ll_dma.c ****     {
 232:Drivers/STM32L1xx_HAL_Driver/Src/stm32l1xx_ll_dma.c ****       /* Reset interrupt pending bits for DMAx Channel6 */
 233:Drivers/STM32L1xx_HAL_Driver/Src/stm32l1xx_ll_dma.c ****       LL_DMA_ClearFlag_GI6(DMAx);
 234:Drivers/STM32L1xx_HAL_Driver/Src/stm32l1xx_ll_dma.c ****     }
 235:Drivers/STM32L1xx_HAL_Driver/Src/stm32l1xx_ll_dma.c ****     else if (Channel == LL_DMA_CHANNEL_7)
 160              		.loc 1 235 10 is_stmt 1 view .LVU39
 161              		.loc 1 235 13 is_stmt 0 view .LVU40
 162 008c 072D     		cmp	r5, #7
 163 008e 00F08180 		beq	.L61
 236:Drivers/STM32L1xx_HAL_Driver/Src/stm32l1xx_ll_dma.c ****     {
 237:Drivers/STM32L1xx_HAL_Driver/Src/stm32l1xx_ll_dma.c ****       /* Reset interrupt pending bits for DMAx Channel7 */
ARM GAS  C:\Users\domen\AppData\Local\Temp\ccqUJVhq.s 			page 8


 238:Drivers/STM32L1xx_HAL_Driver/Src/stm32l1xx_ll_dma.c ****       LL_DMA_ClearFlag_GI7(DMAx);
 239:Drivers/STM32L1xx_HAL_Driver/Src/stm32l1xx_ll_dma.c ****     }
 240:Drivers/STM32L1xx_HAL_Driver/Src/stm32l1xx_ll_dma.c ****     else
 241:Drivers/STM32L1xx_HAL_Driver/Src/stm32l1xx_ll_dma.c ****     {
 242:Drivers/STM32L1xx_HAL_Driver/Src/stm32l1xx_ll_dma.c ****       status = ERROR;
 164              		.loc 1 242 14 view .LVU41
 165 0092 0120     		movs	r0, #1
 166 0094 5FE0     		b	.L7
 167              	.LVL4:
 168              	.L40:
 157:Drivers/STM32L1xx_HAL_Driver/Src/stm32l1xx_ll_dma.c **** 
 169              		.loc 1 157 3 discriminator 2 view .LVU42
 170 0096 4B1E     		subs	r3, r1, #1
 171 0098 062B     		cmp	r3, #6
 172 009a BDD9     		bls	.L3
 173 009c B6E7     		b	.L2
 174              	.L41:
 157:Drivers/STM32L1xx_HAL_Driver/Src/stm32l1xx_ll_dma.c **** 
 175              		.loc 1 157 3 discriminator 5 view .LVU43
 176 009e 6B1E     		subs	r3, r5, #1
 177 00a0 042B     		cmp	r3, #4
 178 00a2 B9D9     		bls	.L3
 179 00a4 B5E7     		b	.L4
 180              	.L42:
 157:Drivers/STM32L1xx_HAL_Driver/Src/stm32l1xx_ll_dma.c **** 
 181              		.loc 1 157 3 discriminator 7 view .LVU44
 182 00a6 9D21     		movs	r1, #157
 183              	.LVL5:
 157:Drivers/STM32L1xx_HAL_Driver/Src/stm32l1xx_ll_dma.c **** 
 184              		.loc 1 157 3 discriminator 7 view .LVU45
 185 00a8 4048     		ldr	r0, .L64+12
 186              	.LVL6:
 157:Drivers/STM32L1xx_HAL_Driver/Src/stm32l1xx_ll_dma.c **** 
 187              		.loc 1 157 3 discriminator 7 view .LVU46
 188 00aa FFF7FEFF 		bl	assert_failed
 189              	.LVL7:
 190 00ae B3E7     		b	.L3
 191              	.L43:
 161:Drivers/STM32L1xx_HAL_Driver/Src/stm32l1xx_ll_dma.c ****     {
 192              		.loc 1 161 5 is_stmt 1 view .LVU47
 161:Drivers/STM32L1xx_HAL_Driver/Src/stm32l1xx_ll_dma.c ****     {
 193              		.loc 1 161 8 is_stmt 0 view .LVU48
 194 00b0 3B4B     		ldr	r3, .L64
 195 00b2 9C42     		cmp	r4, r3
 196 00b4 04D0     		beq	.L62
 170:Drivers/STM32L1xx_HAL_Driver/Src/stm32l1xx_ll_dma.c ****     {
 197              		.loc 1 170 10 is_stmt 1 view .LVU49
 170:Drivers/STM32L1xx_HAL_Driver/Src/stm32l1xx_ll_dma.c ****     {
 198              		.loc 1 170 13 is_stmt 0 view .LVU50
 199 00b6 3B4B     		ldr	r3, .L64+4
 200 00b8 9C42     		cmp	r4, r3
 201 00ba 0DD0     		beq	.L63
 181:Drivers/STM32L1xx_HAL_Driver/Src/stm32l1xx_ll_dma.c ****     }
 202              		.loc 1 181 14 view .LVU51
 203 00bc 0120     		movs	r0, #1
 204 00be 4AE0     		b	.L7
 205              	.L62:
ARM GAS  C:\Users\domen\AppData\Local\Temp\ccqUJVhq.s 			page 9


 164:Drivers/STM32L1xx_HAL_Driver/Src/stm32l1xx_ll_dma.c **** 
 206              		.loc 1 164 7 is_stmt 1 view .LVU52
 207              	.LVL8:
 208              	.LBB32:
 209              	.LBI32:
 210              		.file 2 "Drivers/STM32L1xx_HAL_Driver/Inc/stm32l1xx_ll_bus.h"
   1:Drivers/STM32L1xx_HAL_Driver/Inc/stm32l1xx_ll_bus.h **** /**
   2:Drivers/STM32L1xx_HAL_Driver/Inc/stm32l1xx_ll_bus.h ****   ******************************************************************************
   3:Drivers/STM32L1xx_HAL_Driver/Inc/stm32l1xx_ll_bus.h ****   * @file    stm32l1xx_ll_bus.h
   4:Drivers/STM32L1xx_HAL_Driver/Inc/stm32l1xx_ll_bus.h ****   * @author  MCD Application Team
   5:Drivers/STM32L1xx_HAL_Driver/Inc/stm32l1xx_ll_bus.h ****   * @brief   Header file of BUS LL module.
   6:Drivers/STM32L1xx_HAL_Driver/Inc/stm32l1xx_ll_bus.h **** 
   7:Drivers/STM32L1xx_HAL_Driver/Inc/stm32l1xx_ll_bus.h ****   @verbatim
   8:Drivers/STM32L1xx_HAL_Driver/Inc/stm32l1xx_ll_bus.h ****                       ##### RCC Limitations #####
   9:Drivers/STM32L1xx_HAL_Driver/Inc/stm32l1xx_ll_bus.h ****   ==============================================================================
  10:Drivers/STM32L1xx_HAL_Driver/Inc/stm32l1xx_ll_bus.h ****     [..]
  11:Drivers/STM32L1xx_HAL_Driver/Inc/stm32l1xx_ll_bus.h ****       A delay between an RCC peripheral clock enable and the effective peripheral
  12:Drivers/STM32L1xx_HAL_Driver/Inc/stm32l1xx_ll_bus.h ****       enabling should be taken into account in order to manage the peripheral read/write
  13:Drivers/STM32L1xx_HAL_Driver/Inc/stm32l1xx_ll_bus.h ****       from/to registers.
  14:Drivers/STM32L1xx_HAL_Driver/Inc/stm32l1xx_ll_bus.h ****       (+) This delay depends on the peripheral mapping.
  15:Drivers/STM32L1xx_HAL_Driver/Inc/stm32l1xx_ll_bus.h ****         (++) AHB & APB peripherals, 1 dummy read is necessary
  16:Drivers/STM32L1xx_HAL_Driver/Inc/stm32l1xx_ll_bus.h **** 
  17:Drivers/STM32L1xx_HAL_Driver/Inc/stm32l1xx_ll_bus.h ****     [..]
  18:Drivers/STM32L1xx_HAL_Driver/Inc/stm32l1xx_ll_bus.h ****       Workarounds:
  19:Drivers/STM32L1xx_HAL_Driver/Inc/stm32l1xx_ll_bus.h ****       (#) For AHB & APB peripherals, a dummy read to the peripheral register has been
  20:Drivers/STM32L1xx_HAL_Driver/Inc/stm32l1xx_ll_bus.h ****           inserted in each LL_{BUS}_GRP{x}_EnableClock() function.
  21:Drivers/STM32L1xx_HAL_Driver/Inc/stm32l1xx_ll_bus.h **** 
  22:Drivers/STM32L1xx_HAL_Driver/Inc/stm32l1xx_ll_bus.h ****   @endverbatim
  23:Drivers/STM32L1xx_HAL_Driver/Inc/stm32l1xx_ll_bus.h ****   ******************************************************************************
  24:Drivers/STM32L1xx_HAL_Driver/Inc/stm32l1xx_ll_bus.h ****   * @attention
  25:Drivers/STM32L1xx_HAL_Driver/Inc/stm32l1xx_ll_bus.h ****   *
  26:Drivers/STM32L1xx_HAL_Driver/Inc/stm32l1xx_ll_bus.h ****   * <h2><center>&copy; Copyright(c) 2017 STMicroelectronics.
  27:Drivers/STM32L1xx_HAL_Driver/Inc/stm32l1xx_ll_bus.h ****   * All rights reserved.</center></h2>
  28:Drivers/STM32L1xx_HAL_Driver/Inc/stm32l1xx_ll_bus.h ****   *
  29:Drivers/STM32L1xx_HAL_Driver/Inc/stm32l1xx_ll_bus.h ****   * This software component is licensed by ST under BSD 3-Clause license,
  30:Drivers/STM32L1xx_HAL_Driver/Inc/stm32l1xx_ll_bus.h ****   * the "License"; You may not use this file except in compliance with the
  31:Drivers/STM32L1xx_HAL_Driver/Inc/stm32l1xx_ll_bus.h ****   * License. You may obtain a copy of the License at:
  32:Drivers/STM32L1xx_HAL_Driver/Inc/stm32l1xx_ll_bus.h ****   *                        opensource.org/licenses/BSD-3-Clause
  33:Drivers/STM32L1xx_HAL_Driver/Inc/stm32l1xx_ll_bus.h ****   *
  34:Drivers/STM32L1xx_HAL_Driver/Inc/stm32l1xx_ll_bus.h ****   ******************************************************************************
  35:Drivers/STM32L1xx_HAL_Driver/Inc/stm32l1xx_ll_bus.h ****   */
  36:Drivers/STM32L1xx_HAL_Driver/Inc/stm32l1xx_ll_bus.h **** 
  37:Drivers/STM32L1xx_HAL_Driver/Inc/stm32l1xx_ll_bus.h **** /* Define to prevent recursive inclusion -------------------------------------*/
  38:Drivers/STM32L1xx_HAL_Driver/Inc/stm32l1xx_ll_bus.h **** #ifndef __STM32L1xx_LL_BUS_H
  39:Drivers/STM32L1xx_HAL_Driver/Inc/stm32l1xx_ll_bus.h **** #define __STM32L1xx_LL_BUS_H
  40:Drivers/STM32L1xx_HAL_Driver/Inc/stm32l1xx_ll_bus.h **** 
  41:Drivers/STM32L1xx_HAL_Driver/Inc/stm32l1xx_ll_bus.h **** #ifdef __cplusplus
  42:Drivers/STM32L1xx_HAL_Driver/Inc/stm32l1xx_ll_bus.h **** extern "C" {
  43:Drivers/STM32L1xx_HAL_Driver/Inc/stm32l1xx_ll_bus.h **** #endif
  44:Drivers/STM32L1xx_HAL_Driver/Inc/stm32l1xx_ll_bus.h **** 
  45:Drivers/STM32L1xx_HAL_Driver/Inc/stm32l1xx_ll_bus.h **** /* Includes ------------------------------------------------------------------*/
  46:Drivers/STM32L1xx_HAL_Driver/Inc/stm32l1xx_ll_bus.h **** #include "stm32l1xx.h"
  47:Drivers/STM32L1xx_HAL_Driver/Inc/stm32l1xx_ll_bus.h **** 
  48:Drivers/STM32L1xx_HAL_Driver/Inc/stm32l1xx_ll_bus.h **** /** @addtogroup STM32L1xx_LL_Driver
  49:Drivers/STM32L1xx_HAL_Driver/Inc/stm32l1xx_ll_bus.h ****   * @{
  50:Drivers/STM32L1xx_HAL_Driver/Inc/stm32l1xx_ll_bus.h ****   */
  51:Drivers/STM32L1xx_HAL_Driver/Inc/stm32l1xx_ll_bus.h **** 
ARM GAS  C:\Users\domen\AppData\Local\Temp\ccqUJVhq.s 			page 10


  52:Drivers/STM32L1xx_HAL_Driver/Inc/stm32l1xx_ll_bus.h **** #if defined(RCC)
  53:Drivers/STM32L1xx_HAL_Driver/Inc/stm32l1xx_ll_bus.h **** 
  54:Drivers/STM32L1xx_HAL_Driver/Inc/stm32l1xx_ll_bus.h **** /** @defgroup BUS_LL BUS
  55:Drivers/STM32L1xx_HAL_Driver/Inc/stm32l1xx_ll_bus.h ****   * @{
  56:Drivers/STM32L1xx_HAL_Driver/Inc/stm32l1xx_ll_bus.h ****   */
  57:Drivers/STM32L1xx_HAL_Driver/Inc/stm32l1xx_ll_bus.h **** 
  58:Drivers/STM32L1xx_HAL_Driver/Inc/stm32l1xx_ll_bus.h **** /* Private types -------------------------------------------------------------*/
  59:Drivers/STM32L1xx_HAL_Driver/Inc/stm32l1xx_ll_bus.h **** /* Private variables ---------------------------------------------------------*/
  60:Drivers/STM32L1xx_HAL_Driver/Inc/stm32l1xx_ll_bus.h **** 
  61:Drivers/STM32L1xx_HAL_Driver/Inc/stm32l1xx_ll_bus.h **** /* Private constants ---------------------------------------------------------*/
  62:Drivers/STM32L1xx_HAL_Driver/Inc/stm32l1xx_ll_bus.h **** 
  63:Drivers/STM32L1xx_HAL_Driver/Inc/stm32l1xx_ll_bus.h **** /* Private macros ------------------------------------------------------------*/
  64:Drivers/STM32L1xx_HAL_Driver/Inc/stm32l1xx_ll_bus.h **** 
  65:Drivers/STM32L1xx_HAL_Driver/Inc/stm32l1xx_ll_bus.h **** /* Exported types ------------------------------------------------------------*/
  66:Drivers/STM32L1xx_HAL_Driver/Inc/stm32l1xx_ll_bus.h **** /* Exported constants --------------------------------------------------------*/
  67:Drivers/STM32L1xx_HAL_Driver/Inc/stm32l1xx_ll_bus.h **** /** @defgroup BUS_LL_Exported_Constants BUS Exported Constants
  68:Drivers/STM32L1xx_HAL_Driver/Inc/stm32l1xx_ll_bus.h ****   * @{
  69:Drivers/STM32L1xx_HAL_Driver/Inc/stm32l1xx_ll_bus.h ****   */
  70:Drivers/STM32L1xx_HAL_Driver/Inc/stm32l1xx_ll_bus.h **** 
  71:Drivers/STM32L1xx_HAL_Driver/Inc/stm32l1xx_ll_bus.h **** /** @defgroup BUS_LL_EC_AHB1_GRP1_PERIPH  AHB1 GRP1 PERIPH
  72:Drivers/STM32L1xx_HAL_Driver/Inc/stm32l1xx_ll_bus.h ****   * @{
  73:Drivers/STM32L1xx_HAL_Driver/Inc/stm32l1xx_ll_bus.h ****   */
  74:Drivers/STM32L1xx_HAL_Driver/Inc/stm32l1xx_ll_bus.h **** #define LL_AHB1_GRP1_PERIPH_ALL            0xFFFFFFFFU
  75:Drivers/STM32L1xx_HAL_Driver/Inc/stm32l1xx_ll_bus.h **** #define LL_AHB1_GRP1_PERIPH_GPIOA          RCC_AHBENR_GPIOAEN
  76:Drivers/STM32L1xx_HAL_Driver/Inc/stm32l1xx_ll_bus.h **** #define LL_AHB1_GRP1_PERIPH_GPIOB          RCC_AHBENR_GPIOBEN
  77:Drivers/STM32L1xx_HAL_Driver/Inc/stm32l1xx_ll_bus.h **** #define LL_AHB1_GRP1_PERIPH_GPIOC          RCC_AHBENR_GPIOCEN
  78:Drivers/STM32L1xx_HAL_Driver/Inc/stm32l1xx_ll_bus.h **** #define LL_AHB1_GRP1_PERIPH_GPIOD          RCC_AHBENR_GPIODEN
  79:Drivers/STM32L1xx_HAL_Driver/Inc/stm32l1xx_ll_bus.h **** #if defined(GPIOE)
  80:Drivers/STM32L1xx_HAL_Driver/Inc/stm32l1xx_ll_bus.h **** #define LL_AHB1_GRP1_PERIPH_GPIOE          RCC_AHBENR_GPIOEEN
  81:Drivers/STM32L1xx_HAL_Driver/Inc/stm32l1xx_ll_bus.h **** #endif/*GPIOE*/
  82:Drivers/STM32L1xx_HAL_Driver/Inc/stm32l1xx_ll_bus.h **** #define LL_AHB1_GRP1_PERIPH_GPIOH          RCC_AHBENR_GPIOHEN
  83:Drivers/STM32L1xx_HAL_Driver/Inc/stm32l1xx_ll_bus.h **** #if defined(GPIOF)
  84:Drivers/STM32L1xx_HAL_Driver/Inc/stm32l1xx_ll_bus.h **** #define LL_AHB1_GRP1_PERIPH_GPIOF          RCC_AHBENR_GPIOFEN
  85:Drivers/STM32L1xx_HAL_Driver/Inc/stm32l1xx_ll_bus.h **** #endif/*GPIOF*/
  86:Drivers/STM32L1xx_HAL_Driver/Inc/stm32l1xx_ll_bus.h **** #if defined(GPIOG)
  87:Drivers/STM32L1xx_HAL_Driver/Inc/stm32l1xx_ll_bus.h **** #define LL_AHB1_GRP1_PERIPH_GPIOG          RCC_AHBENR_GPIOGEN
  88:Drivers/STM32L1xx_HAL_Driver/Inc/stm32l1xx_ll_bus.h **** #endif/*GPIOG*/
  89:Drivers/STM32L1xx_HAL_Driver/Inc/stm32l1xx_ll_bus.h **** #define LL_AHB1_GRP1_PERIPH_SRAM           RCC_AHBLPENR_SRAMLPEN
  90:Drivers/STM32L1xx_HAL_Driver/Inc/stm32l1xx_ll_bus.h **** #define LL_AHB1_GRP1_PERIPH_CRC            RCC_AHBENR_CRCEN
  91:Drivers/STM32L1xx_HAL_Driver/Inc/stm32l1xx_ll_bus.h **** #define LL_AHB1_GRP1_PERIPH_FLASH          RCC_AHBENR_FLITFEN
  92:Drivers/STM32L1xx_HAL_Driver/Inc/stm32l1xx_ll_bus.h **** #define LL_AHB1_GRP1_PERIPH_DMA1           RCC_AHBENR_DMA1EN
  93:Drivers/STM32L1xx_HAL_Driver/Inc/stm32l1xx_ll_bus.h **** #if defined(DMA2)
  94:Drivers/STM32L1xx_HAL_Driver/Inc/stm32l1xx_ll_bus.h **** #define LL_AHB1_GRP1_PERIPH_DMA2           RCC_AHBENR_DMA2EN
  95:Drivers/STM32L1xx_HAL_Driver/Inc/stm32l1xx_ll_bus.h **** #endif/*DMA2*/
  96:Drivers/STM32L1xx_HAL_Driver/Inc/stm32l1xx_ll_bus.h **** #if defined(AES)
  97:Drivers/STM32L1xx_HAL_Driver/Inc/stm32l1xx_ll_bus.h **** #define LL_AHB1_GRP1_PERIPH_CRYP           RCC_AHBENR_AESEN
  98:Drivers/STM32L1xx_HAL_Driver/Inc/stm32l1xx_ll_bus.h **** #endif/*AES*/
  99:Drivers/STM32L1xx_HAL_Driver/Inc/stm32l1xx_ll_bus.h **** #if defined(FSMC_Bank1)
 100:Drivers/STM32L1xx_HAL_Driver/Inc/stm32l1xx_ll_bus.h **** #define LL_AHB1_GRP1_PERIPH_FSMC           RCC_AHBENR_FSMCEN
 101:Drivers/STM32L1xx_HAL_Driver/Inc/stm32l1xx_ll_bus.h **** #endif/*FSMC_Bank1*/
 102:Drivers/STM32L1xx_HAL_Driver/Inc/stm32l1xx_ll_bus.h **** /**
 103:Drivers/STM32L1xx_HAL_Driver/Inc/stm32l1xx_ll_bus.h ****   * @}
 104:Drivers/STM32L1xx_HAL_Driver/Inc/stm32l1xx_ll_bus.h ****   */
 105:Drivers/STM32L1xx_HAL_Driver/Inc/stm32l1xx_ll_bus.h **** 
 106:Drivers/STM32L1xx_HAL_Driver/Inc/stm32l1xx_ll_bus.h **** /** @defgroup BUS_LL_EC_APB1_GRP1_PERIPH  APB1 GRP1 PERIPH
 107:Drivers/STM32L1xx_HAL_Driver/Inc/stm32l1xx_ll_bus.h ****   * @{
 108:Drivers/STM32L1xx_HAL_Driver/Inc/stm32l1xx_ll_bus.h ****   */
ARM GAS  C:\Users\domen\AppData\Local\Temp\ccqUJVhq.s 			page 11


 109:Drivers/STM32L1xx_HAL_Driver/Inc/stm32l1xx_ll_bus.h **** #define LL_APB1_GRP1_PERIPH_ALL            0xFFFFFFFFU
 110:Drivers/STM32L1xx_HAL_Driver/Inc/stm32l1xx_ll_bus.h **** #define LL_APB1_GRP1_PERIPH_TIM2           RCC_APB1ENR_TIM2EN
 111:Drivers/STM32L1xx_HAL_Driver/Inc/stm32l1xx_ll_bus.h **** #define LL_APB1_GRP1_PERIPH_TIM3           RCC_APB1ENR_TIM3EN
 112:Drivers/STM32L1xx_HAL_Driver/Inc/stm32l1xx_ll_bus.h **** #define LL_APB1_GRP1_PERIPH_TIM4           RCC_APB1ENR_TIM4EN
 113:Drivers/STM32L1xx_HAL_Driver/Inc/stm32l1xx_ll_bus.h **** #if defined(TIM5)
 114:Drivers/STM32L1xx_HAL_Driver/Inc/stm32l1xx_ll_bus.h **** #define LL_APB1_GRP1_PERIPH_TIM5           RCC_APB1ENR_TIM5EN
 115:Drivers/STM32L1xx_HAL_Driver/Inc/stm32l1xx_ll_bus.h **** #endif /*TIM5*/
 116:Drivers/STM32L1xx_HAL_Driver/Inc/stm32l1xx_ll_bus.h **** #define LL_APB1_GRP1_PERIPH_TIM6           RCC_APB1ENR_TIM6EN
 117:Drivers/STM32L1xx_HAL_Driver/Inc/stm32l1xx_ll_bus.h **** #define LL_APB1_GRP1_PERIPH_TIM7           RCC_APB1ENR_TIM7EN
 118:Drivers/STM32L1xx_HAL_Driver/Inc/stm32l1xx_ll_bus.h **** #if defined(LCD)
 119:Drivers/STM32L1xx_HAL_Driver/Inc/stm32l1xx_ll_bus.h **** #define LL_APB1_GRP1_PERIPH_LCD            RCC_APB1ENR_LCDEN
 120:Drivers/STM32L1xx_HAL_Driver/Inc/stm32l1xx_ll_bus.h **** #endif /*LCD*/
 121:Drivers/STM32L1xx_HAL_Driver/Inc/stm32l1xx_ll_bus.h **** #define LL_APB1_GRP1_PERIPH_WWDG           RCC_APB1ENR_WWDGEN
 122:Drivers/STM32L1xx_HAL_Driver/Inc/stm32l1xx_ll_bus.h **** #define LL_APB1_GRP1_PERIPH_SPI2           RCC_APB1ENR_SPI2EN
 123:Drivers/STM32L1xx_HAL_Driver/Inc/stm32l1xx_ll_bus.h **** #if defined(SPI3)
 124:Drivers/STM32L1xx_HAL_Driver/Inc/stm32l1xx_ll_bus.h **** #define LL_APB1_GRP1_PERIPH_SPI3           RCC_APB1ENR_SPI3EN
 125:Drivers/STM32L1xx_HAL_Driver/Inc/stm32l1xx_ll_bus.h **** #endif /*SPI3*/
 126:Drivers/STM32L1xx_HAL_Driver/Inc/stm32l1xx_ll_bus.h **** #define LL_APB1_GRP1_PERIPH_USART2         RCC_APB1ENR_USART2EN
 127:Drivers/STM32L1xx_HAL_Driver/Inc/stm32l1xx_ll_bus.h **** #define LL_APB1_GRP1_PERIPH_USART3         RCC_APB1ENR_USART3EN
 128:Drivers/STM32L1xx_HAL_Driver/Inc/stm32l1xx_ll_bus.h **** #if defined(UART4)
 129:Drivers/STM32L1xx_HAL_Driver/Inc/stm32l1xx_ll_bus.h **** #define LL_APB1_GRP1_PERIPH_UART4          RCC_APB1ENR_UART4EN
 130:Drivers/STM32L1xx_HAL_Driver/Inc/stm32l1xx_ll_bus.h **** #endif /*UART4*/
 131:Drivers/STM32L1xx_HAL_Driver/Inc/stm32l1xx_ll_bus.h **** #if defined(UART5)
 132:Drivers/STM32L1xx_HAL_Driver/Inc/stm32l1xx_ll_bus.h **** #define LL_APB1_GRP1_PERIPH_UART5          RCC_APB1ENR_UART5EN
 133:Drivers/STM32L1xx_HAL_Driver/Inc/stm32l1xx_ll_bus.h **** #endif /*UART5*/
 134:Drivers/STM32L1xx_HAL_Driver/Inc/stm32l1xx_ll_bus.h **** #define LL_APB1_GRP1_PERIPH_I2C1           RCC_APB1ENR_I2C1EN
 135:Drivers/STM32L1xx_HAL_Driver/Inc/stm32l1xx_ll_bus.h **** #define LL_APB1_GRP1_PERIPH_I2C2           RCC_APB1ENR_I2C2EN
 136:Drivers/STM32L1xx_HAL_Driver/Inc/stm32l1xx_ll_bus.h **** #define LL_APB1_GRP1_PERIPH_USB            RCC_APB1ENR_USBEN
 137:Drivers/STM32L1xx_HAL_Driver/Inc/stm32l1xx_ll_bus.h **** #define LL_APB1_GRP1_PERIPH_PWR            RCC_APB1ENR_PWREN
 138:Drivers/STM32L1xx_HAL_Driver/Inc/stm32l1xx_ll_bus.h **** #define LL_APB1_GRP1_PERIPH_DAC1           RCC_APB1ENR_DACEN
 139:Drivers/STM32L1xx_HAL_Driver/Inc/stm32l1xx_ll_bus.h **** #define LL_APB1_GRP1_PERIPH_COMP           RCC_APB1ENR_COMPEN
 140:Drivers/STM32L1xx_HAL_Driver/Inc/stm32l1xx_ll_bus.h **** #if defined(OPAMP)
 141:Drivers/STM32L1xx_HAL_Driver/Inc/stm32l1xx_ll_bus.h **** /* Note: Peripherals COMP and OPAMP share the same clock domain */
 142:Drivers/STM32L1xx_HAL_Driver/Inc/stm32l1xx_ll_bus.h **** #define LL_APB1_GRP1_PERIPH_OPAMP          LL_APB1_GRP1_PERIPH_COMP
 143:Drivers/STM32L1xx_HAL_Driver/Inc/stm32l1xx_ll_bus.h **** #endif
 144:Drivers/STM32L1xx_HAL_Driver/Inc/stm32l1xx_ll_bus.h **** /**
 145:Drivers/STM32L1xx_HAL_Driver/Inc/stm32l1xx_ll_bus.h ****   * @}
 146:Drivers/STM32L1xx_HAL_Driver/Inc/stm32l1xx_ll_bus.h ****   */
 147:Drivers/STM32L1xx_HAL_Driver/Inc/stm32l1xx_ll_bus.h **** 
 148:Drivers/STM32L1xx_HAL_Driver/Inc/stm32l1xx_ll_bus.h **** /** @defgroup BUS_LL_EC_APB2_GRP1_PERIPH  APB2 GRP1 PERIPH
 149:Drivers/STM32L1xx_HAL_Driver/Inc/stm32l1xx_ll_bus.h ****   * @{
 150:Drivers/STM32L1xx_HAL_Driver/Inc/stm32l1xx_ll_bus.h ****   */
 151:Drivers/STM32L1xx_HAL_Driver/Inc/stm32l1xx_ll_bus.h **** #define LL_APB2_GRP1_PERIPH_ALL            0xFFFFFFFFU
 152:Drivers/STM32L1xx_HAL_Driver/Inc/stm32l1xx_ll_bus.h **** #define LL_APB2_GRP1_PERIPH_SYSCFG         RCC_APB2ENR_SYSCFGEN
 153:Drivers/STM32L1xx_HAL_Driver/Inc/stm32l1xx_ll_bus.h **** #define LL_APB2_GRP1_PERIPH_TIM9           RCC_APB2ENR_TIM9EN
 154:Drivers/STM32L1xx_HAL_Driver/Inc/stm32l1xx_ll_bus.h **** #define LL_APB2_GRP1_PERIPH_TIM10          RCC_APB2ENR_TIM10EN
 155:Drivers/STM32L1xx_HAL_Driver/Inc/stm32l1xx_ll_bus.h **** #define LL_APB2_GRP1_PERIPH_TIM11          RCC_APB2ENR_TIM11EN
 156:Drivers/STM32L1xx_HAL_Driver/Inc/stm32l1xx_ll_bus.h **** #define LL_APB2_GRP1_PERIPH_ADC1           RCC_APB2ENR_ADC1EN
 157:Drivers/STM32L1xx_HAL_Driver/Inc/stm32l1xx_ll_bus.h **** #if defined(SDIO)
 158:Drivers/STM32L1xx_HAL_Driver/Inc/stm32l1xx_ll_bus.h **** #define LL_APB2_GRP1_PERIPH_SDIO           RCC_APB2ENR_SDIOEN
 159:Drivers/STM32L1xx_HAL_Driver/Inc/stm32l1xx_ll_bus.h **** #endif /*SDIO*/
 160:Drivers/STM32L1xx_HAL_Driver/Inc/stm32l1xx_ll_bus.h **** #define LL_APB2_GRP1_PERIPH_SPI1           RCC_APB2ENR_SPI1EN
 161:Drivers/STM32L1xx_HAL_Driver/Inc/stm32l1xx_ll_bus.h **** #define LL_APB2_GRP1_PERIPH_USART1         RCC_APB2ENR_USART1EN
 162:Drivers/STM32L1xx_HAL_Driver/Inc/stm32l1xx_ll_bus.h **** /**
 163:Drivers/STM32L1xx_HAL_Driver/Inc/stm32l1xx_ll_bus.h ****   * @}
 164:Drivers/STM32L1xx_HAL_Driver/Inc/stm32l1xx_ll_bus.h ****   */
 165:Drivers/STM32L1xx_HAL_Driver/Inc/stm32l1xx_ll_bus.h **** 
ARM GAS  C:\Users\domen\AppData\Local\Temp\ccqUJVhq.s 			page 12


 166:Drivers/STM32L1xx_HAL_Driver/Inc/stm32l1xx_ll_bus.h **** /**
 167:Drivers/STM32L1xx_HAL_Driver/Inc/stm32l1xx_ll_bus.h ****   * @}
 168:Drivers/STM32L1xx_HAL_Driver/Inc/stm32l1xx_ll_bus.h ****   */
 169:Drivers/STM32L1xx_HAL_Driver/Inc/stm32l1xx_ll_bus.h **** 
 170:Drivers/STM32L1xx_HAL_Driver/Inc/stm32l1xx_ll_bus.h **** /* Exported macro ------------------------------------------------------------*/
 171:Drivers/STM32L1xx_HAL_Driver/Inc/stm32l1xx_ll_bus.h **** 
 172:Drivers/STM32L1xx_HAL_Driver/Inc/stm32l1xx_ll_bus.h **** /* Exported functions --------------------------------------------------------*/
 173:Drivers/STM32L1xx_HAL_Driver/Inc/stm32l1xx_ll_bus.h **** /** @defgroup BUS_LL_Exported_Functions BUS Exported Functions
 174:Drivers/STM32L1xx_HAL_Driver/Inc/stm32l1xx_ll_bus.h ****   * @{
 175:Drivers/STM32L1xx_HAL_Driver/Inc/stm32l1xx_ll_bus.h ****   */
 176:Drivers/STM32L1xx_HAL_Driver/Inc/stm32l1xx_ll_bus.h **** 
 177:Drivers/STM32L1xx_HAL_Driver/Inc/stm32l1xx_ll_bus.h **** /** @defgroup BUS_LL_EF_AHB1 AHB1
 178:Drivers/STM32L1xx_HAL_Driver/Inc/stm32l1xx_ll_bus.h ****   * @{
 179:Drivers/STM32L1xx_HAL_Driver/Inc/stm32l1xx_ll_bus.h ****   */
 180:Drivers/STM32L1xx_HAL_Driver/Inc/stm32l1xx_ll_bus.h **** 
 181:Drivers/STM32L1xx_HAL_Driver/Inc/stm32l1xx_ll_bus.h **** /**
 182:Drivers/STM32L1xx_HAL_Driver/Inc/stm32l1xx_ll_bus.h ****   * @brief  Enable AHB1 peripherals clock.
 183:Drivers/STM32L1xx_HAL_Driver/Inc/stm32l1xx_ll_bus.h ****   * @rmtoll AHBENR       GPIOAEN       LL_AHB1_GRP1_EnableClock\n
 184:Drivers/STM32L1xx_HAL_Driver/Inc/stm32l1xx_ll_bus.h ****   *         AHBENR       GPIOBEN       LL_AHB1_GRP1_EnableClock\n
 185:Drivers/STM32L1xx_HAL_Driver/Inc/stm32l1xx_ll_bus.h ****   *         AHBENR       GPIOCEN       LL_AHB1_GRP1_EnableClock\n
 186:Drivers/STM32L1xx_HAL_Driver/Inc/stm32l1xx_ll_bus.h ****   *         AHBENR       GPIODEN       LL_AHB1_GRP1_EnableClock\n
 187:Drivers/STM32L1xx_HAL_Driver/Inc/stm32l1xx_ll_bus.h ****   *         AHBENR       GPIOEEN       LL_AHB1_GRP1_EnableClock\n
 188:Drivers/STM32L1xx_HAL_Driver/Inc/stm32l1xx_ll_bus.h ****   *         AHBENR       GPIOHEN       LL_AHB1_GRP1_EnableClock\n
 189:Drivers/STM32L1xx_HAL_Driver/Inc/stm32l1xx_ll_bus.h ****   *         AHBENR       GPIOFEN       LL_AHB1_GRP1_EnableClock\n
 190:Drivers/STM32L1xx_HAL_Driver/Inc/stm32l1xx_ll_bus.h ****   *         AHBENR       GPIOGEN       LL_AHB1_GRP1_EnableClock\n
 191:Drivers/STM32L1xx_HAL_Driver/Inc/stm32l1xx_ll_bus.h ****   *         AHBENR       CRCEN         LL_AHB1_GRP1_EnableClock\n
 192:Drivers/STM32L1xx_HAL_Driver/Inc/stm32l1xx_ll_bus.h ****   *         AHBENR       FLITFEN       LL_AHB1_GRP1_EnableClock\n
 193:Drivers/STM32L1xx_HAL_Driver/Inc/stm32l1xx_ll_bus.h ****   *         AHBENR       DMA1EN        LL_AHB1_GRP1_EnableClock\n
 194:Drivers/STM32L1xx_HAL_Driver/Inc/stm32l1xx_ll_bus.h ****   *         AHBENR       DMA2EN        LL_AHB1_GRP1_EnableClock\n
 195:Drivers/STM32L1xx_HAL_Driver/Inc/stm32l1xx_ll_bus.h ****   *         AHBENR       AESEN         LL_AHB1_GRP1_EnableClock\n
 196:Drivers/STM32L1xx_HAL_Driver/Inc/stm32l1xx_ll_bus.h ****   *         AHBENR       FSMCEN        LL_AHB1_GRP1_EnableClock
 197:Drivers/STM32L1xx_HAL_Driver/Inc/stm32l1xx_ll_bus.h ****   * @param  Periphs This parameter can be a combination of the following values:
 198:Drivers/STM32L1xx_HAL_Driver/Inc/stm32l1xx_ll_bus.h ****   *         @arg @ref LL_AHB1_GRP1_PERIPH_GPIOA
 199:Drivers/STM32L1xx_HAL_Driver/Inc/stm32l1xx_ll_bus.h ****   *         @arg @ref LL_AHB1_GRP1_PERIPH_GPIOB
 200:Drivers/STM32L1xx_HAL_Driver/Inc/stm32l1xx_ll_bus.h ****   *         @arg @ref LL_AHB1_GRP1_PERIPH_GPIOC
 201:Drivers/STM32L1xx_HAL_Driver/Inc/stm32l1xx_ll_bus.h ****   *         @arg @ref LL_AHB1_GRP1_PERIPH_GPIOD
 202:Drivers/STM32L1xx_HAL_Driver/Inc/stm32l1xx_ll_bus.h ****   *         @arg @ref LL_AHB1_GRP1_PERIPH_GPIOE (*)
 203:Drivers/STM32L1xx_HAL_Driver/Inc/stm32l1xx_ll_bus.h ****   *         @arg @ref LL_AHB1_GRP1_PERIPH_GPIOH
 204:Drivers/STM32L1xx_HAL_Driver/Inc/stm32l1xx_ll_bus.h ****   *         @arg @ref LL_AHB1_GRP1_PERIPH_GPIOF (*)
 205:Drivers/STM32L1xx_HAL_Driver/Inc/stm32l1xx_ll_bus.h ****   *         @arg @ref LL_AHB1_GRP1_PERIPH_GPIOG (*)
 206:Drivers/STM32L1xx_HAL_Driver/Inc/stm32l1xx_ll_bus.h ****   *         @arg @ref LL_AHB1_GRP1_PERIPH_CRC
 207:Drivers/STM32L1xx_HAL_Driver/Inc/stm32l1xx_ll_bus.h ****   *         @arg @ref LL_AHB1_GRP1_PERIPH_FLASH
 208:Drivers/STM32L1xx_HAL_Driver/Inc/stm32l1xx_ll_bus.h ****   *         @arg @ref LL_AHB1_GRP1_PERIPH_DMA1
 209:Drivers/STM32L1xx_HAL_Driver/Inc/stm32l1xx_ll_bus.h ****   *         @arg @ref LL_AHB1_GRP1_PERIPH_DMA2 (*)
 210:Drivers/STM32L1xx_HAL_Driver/Inc/stm32l1xx_ll_bus.h ****   *         @arg @ref LL_AHB1_GRP1_PERIPH_CRYP (*)
 211:Drivers/STM32L1xx_HAL_Driver/Inc/stm32l1xx_ll_bus.h ****   *         @arg @ref LL_AHB1_GRP1_PERIPH_FSMC (*)
 212:Drivers/STM32L1xx_HAL_Driver/Inc/stm32l1xx_ll_bus.h ****   *
 213:Drivers/STM32L1xx_HAL_Driver/Inc/stm32l1xx_ll_bus.h ****   *         (*) value not defined in all devices.
 214:Drivers/STM32L1xx_HAL_Driver/Inc/stm32l1xx_ll_bus.h ****   * @retval None
 215:Drivers/STM32L1xx_HAL_Driver/Inc/stm32l1xx_ll_bus.h **** */
 216:Drivers/STM32L1xx_HAL_Driver/Inc/stm32l1xx_ll_bus.h **** __STATIC_INLINE void LL_AHB1_GRP1_EnableClock(uint32_t Periphs)
 217:Drivers/STM32L1xx_HAL_Driver/Inc/stm32l1xx_ll_bus.h **** {
 218:Drivers/STM32L1xx_HAL_Driver/Inc/stm32l1xx_ll_bus.h ****   __IO uint32_t tmpreg;
 219:Drivers/STM32L1xx_HAL_Driver/Inc/stm32l1xx_ll_bus.h ****   SET_BIT(RCC->AHBENR, Periphs);
 220:Drivers/STM32L1xx_HAL_Driver/Inc/stm32l1xx_ll_bus.h ****   /* Delay after an RCC peripheral clock enabling */
 221:Drivers/STM32L1xx_HAL_Driver/Inc/stm32l1xx_ll_bus.h ****   tmpreg = READ_BIT(RCC->AHBENR, Periphs);
 222:Drivers/STM32L1xx_HAL_Driver/Inc/stm32l1xx_ll_bus.h ****   (void)tmpreg;
ARM GAS  C:\Users\domen\AppData\Local\Temp\ccqUJVhq.s 			page 13


 223:Drivers/STM32L1xx_HAL_Driver/Inc/stm32l1xx_ll_bus.h **** }
 224:Drivers/STM32L1xx_HAL_Driver/Inc/stm32l1xx_ll_bus.h **** 
 225:Drivers/STM32L1xx_HAL_Driver/Inc/stm32l1xx_ll_bus.h **** /**
 226:Drivers/STM32L1xx_HAL_Driver/Inc/stm32l1xx_ll_bus.h ****   * @brief  Check if AHB1 peripheral clock is enabled or not
 227:Drivers/STM32L1xx_HAL_Driver/Inc/stm32l1xx_ll_bus.h ****   * @rmtoll AHBENR       GPIOAEN       LL_AHB1_GRP1_IsEnabledClock\n
 228:Drivers/STM32L1xx_HAL_Driver/Inc/stm32l1xx_ll_bus.h ****   *         AHBENR       GPIOBEN       LL_AHB1_GRP1_IsEnabledClock\n
 229:Drivers/STM32L1xx_HAL_Driver/Inc/stm32l1xx_ll_bus.h ****   *         AHBENR       GPIOCEN       LL_AHB1_GRP1_IsEnabledClock\n
 230:Drivers/STM32L1xx_HAL_Driver/Inc/stm32l1xx_ll_bus.h ****   *         AHBENR       GPIODEN       LL_AHB1_GRP1_IsEnabledClock\n
 231:Drivers/STM32L1xx_HAL_Driver/Inc/stm32l1xx_ll_bus.h ****   *         AHBENR       GPIOEEN       LL_AHB1_GRP1_IsEnabledClock\n
 232:Drivers/STM32L1xx_HAL_Driver/Inc/stm32l1xx_ll_bus.h ****   *         AHBENR       GPIOHEN       LL_AHB1_GRP1_IsEnabledClock\n
 233:Drivers/STM32L1xx_HAL_Driver/Inc/stm32l1xx_ll_bus.h ****   *         AHBENR       GPIOFEN       LL_AHB1_GRP1_IsEnabledClock\n
 234:Drivers/STM32L1xx_HAL_Driver/Inc/stm32l1xx_ll_bus.h ****   *         AHBENR       GPIOGEN       LL_AHB1_GRP1_IsEnabledClock\n
 235:Drivers/STM32L1xx_HAL_Driver/Inc/stm32l1xx_ll_bus.h ****   *         AHBENR       CRCEN         LL_AHB1_GRP1_IsEnabledClock\n
 236:Drivers/STM32L1xx_HAL_Driver/Inc/stm32l1xx_ll_bus.h ****   *         AHBENR       FLITFEN       LL_AHB1_GRP1_IsEnabledClock\n
 237:Drivers/STM32L1xx_HAL_Driver/Inc/stm32l1xx_ll_bus.h ****   *         AHBENR       DMA1EN        LL_AHB1_GRP1_IsEnabledClock\n
 238:Drivers/STM32L1xx_HAL_Driver/Inc/stm32l1xx_ll_bus.h ****   *         AHBENR       DMA2EN        LL_AHB1_GRP1_IsEnabledClock\n
 239:Drivers/STM32L1xx_HAL_Driver/Inc/stm32l1xx_ll_bus.h ****   *         AHBENR       AESEN         LL_AHB1_GRP1_IsEnabledClock\n
 240:Drivers/STM32L1xx_HAL_Driver/Inc/stm32l1xx_ll_bus.h ****   *         AHBENR       FSMCEN        LL_AHB1_GRP1_IsEnabledClock
 241:Drivers/STM32L1xx_HAL_Driver/Inc/stm32l1xx_ll_bus.h ****   * @param  Periphs This parameter can be a combination of the following values:
 242:Drivers/STM32L1xx_HAL_Driver/Inc/stm32l1xx_ll_bus.h ****   *         @arg @ref LL_AHB1_GRP1_PERIPH_GPIOA
 243:Drivers/STM32L1xx_HAL_Driver/Inc/stm32l1xx_ll_bus.h ****   *         @arg @ref LL_AHB1_GRP1_PERIPH_GPIOB
 244:Drivers/STM32L1xx_HAL_Driver/Inc/stm32l1xx_ll_bus.h ****   *         @arg @ref LL_AHB1_GRP1_PERIPH_GPIOC
 245:Drivers/STM32L1xx_HAL_Driver/Inc/stm32l1xx_ll_bus.h ****   *         @arg @ref LL_AHB1_GRP1_PERIPH_GPIOD
 246:Drivers/STM32L1xx_HAL_Driver/Inc/stm32l1xx_ll_bus.h ****   *         @arg @ref LL_AHB1_GRP1_PERIPH_GPIOE (*)
 247:Drivers/STM32L1xx_HAL_Driver/Inc/stm32l1xx_ll_bus.h ****   *         @arg @ref LL_AHB1_GRP1_PERIPH_GPIOH
 248:Drivers/STM32L1xx_HAL_Driver/Inc/stm32l1xx_ll_bus.h ****   *         @arg @ref LL_AHB1_GRP1_PERIPH_GPIOF (*)
 249:Drivers/STM32L1xx_HAL_Driver/Inc/stm32l1xx_ll_bus.h ****   *         @arg @ref LL_AHB1_GRP1_PERIPH_GPIOG (*)
 250:Drivers/STM32L1xx_HAL_Driver/Inc/stm32l1xx_ll_bus.h ****   *         @arg @ref LL_AHB1_GRP1_PERIPH_CRC
 251:Drivers/STM32L1xx_HAL_Driver/Inc/stm32l1xx_ll_bus.h ****   *         @arg @ref LL_AHB1_GRP1_PERIPH_FLASH
 252:Drivers/STM32L1xx_HAL_Driver/Inc/stm32l1xx_ll_bus.h ****   *         @arg @ref LL_AHB1_GRP1_PERIPH_DMA1
 253:Drivers/STM32L1xx_HAL_Driver/Inc/stm32l1xx_ll_bus.h ****   *         @arg @ref LL_AHB1_GRP1_PERIPH_DMA2 (*)
 254:Drivers/STM32L1xx_HAL_Driver/Inc/stm32l1xx_ll_bus.h ****   *         @arg @ref LL_AHB1_GRP1_PERIPH_CRYP (*)
 255:Drivers/STM32L1xx_HAL_Driver/Inc/stm32l1xx_ll_bus.h ****   *         @arg @ref LL_AHB1_GRP1_PERIPH_FSMC (*)
 256:Drivers/STM32L1xx_HAL_Driver/Inc/stm32l1xx_ll_bus.h ****   *
 257:Drivers/STM32L1xx_HAL_Driver/Inc/stm32l1xx_ll_bus.h ****   *         (*) value not defined in all devices.
 258:Drivers/STM32L1xx_HAL_Driver/Inc/stm32l1xx_ll_bus.h ****   * @retval State of Periphs (1 or 0).
 259:Drivers/STM32L1xx_HAL_Driver/Inc/stm32l1xx_ll_bus.h **** */
 260:Drivers/STM32L1xx_HAL_Driver/Inc/stm32l1xx_ll_bus.h **** __STATIC_INLINE uint32_t LL_AHB1_GRP1_IsEnabledClock(uint32_t Periphs)
 261:Drivers/STM32L1xx_HAL_Driver/Inc/stm32l1xx_ll_bus.h **** {
 262:Drivers/STM32L1xx_HAL_Driver/Inc/stm32l1xx_ll_bus.h ****   return ((READ_BIT(RCC->AHBENR, Periphs) == (Periphs)) ? 1UL : 0UL);
 263:Drivers/STM32L1xx_HAL_Driver/Inc/stm32l1xx_ll_bus.h **** }
 264:Drivers/STM32L1xx_HAL_Driver/Inc/stm32l1xx_ll_bus.h **** 
 265:Drivers/STM32L1xx_HAL_Driver/Inc/stm32l1xx_ll_bus.h **** /**
 266:Drivers/STM32L1xx_HAL_Driver/Inc/stm32l1xx_ll_bus.h ****   * @brief  Disable AHB1 peripherals clock.
 267:Drivers/STM32L1xx_HAL_Driver/Inc/stm32l1xx_ll_bus.h ****   * @rmtoll AHBENR       GPIOAEN       LL_AHB1_GRP1_DisableClock\n
 268:Drivers/STM32L1xx_HAL_Driver/Inc/stm32l1xx_ll_bus.h ****   *         AHBENR       GPIOBEN       LL_AHB1_GRP1_DisableClock\n
 269:Drivers/STM32L1xx_HAL_Driver/Inc/stm32l1xx_ll_bus.h ****   *         AHBENR       GPIOCEN       LL_AHB1_GRP1_DisableClock\n
 270:Drivers/STM32L1xx_HAL_Driver/Inc/stm32l1xx_ll_bus.h ****   *         AHBENR       GPIODEN       LL_AHB1_GRP1_DisableClock\n
 271:Drivers/STM32L1xx_HAL_Driver/Inc/stm32l1xx_ll_bus.h ****   *         AHBENR       GPIOEEN       LL_AHB1_GRP1_DisableClock\n
 272:Drivers/STM32L1xx_HAL_Driver/Inc/stm32l1xx_ll_bus.h ****   *         AHBENR       GPIOHEN       LL_AHB1_GRP1_DisableClock\n
 273:Drivers/STM32L1xx_HAL_Driver/Inc/stm32l1xx_ll_bus.h ****   *         AHBENR       GPIOFEN       LL_AHB1_GRP1_DisableClock\n
 274:Drivers/STM32L1xx_HAL_Driver/Inc/stm32l1xx_ll_bus.h ****   *         AHBENR       GPIOGEN       LL_AHB1_GRP1_DisableClock\n
 275:Drivers/STM32L1xx_HAL_Driver/Inc/stm32l1xx_ll_bus.h ****   *         AHBENR       CRCEN         LL_AHB1_GRP1_DisableClock\n
 276:Drivers/STM32L1xx_HAL_Driver/Inc/stm32l1xx_ll_bus.h ****   *         AHBENR       FLITFEN       LL_AHB1_GRP1_DisableClock\n
 277:Drivers/STM32L1xx_HAL_Driver/Inc/stm32l1xx_ll_bus.h ****   *         AHBENR       DMA1EN        LL_AHB1_GRP1_DisableClock\n
 278:Drivers/STM32L1xx_HAL_Driver/Inc/stm32l1xx_ll_bus.h ****   *         AHBENR       DMA2EN        LL_AHB1_GRP1_DisableClock\n
 279:Drivers/STM32L1xx_HAL_Driver/Inc/stm32l1xx_ll_bus.h ****   *         AHBENR       AESEN         LL_AHB1_GRP1_DisableClock\n
ARM GAS  C:\Users\domen\AppData\Local\Temp\ccqUJVhq.s 			page 14


 280:Drivers/STM32L1xx_HAL_Driver/Inc/stm32l1xx_ll_bus.h ****   *         AHBENR       FSMCEN        LL_AHB1_GRP1_DisableClock
 281:Drivers/STM32L1xx_HAL_Driver/Inc/stm32l1xx_ll_bus.h ****   * @param  Periphs This parameter can be a combination of the following values:
 282:Drivers/STM32L1xx_HAL_Driver/Inc/stm32l1xx_ll_bus.h ****   *         @arg @ref LL_AHB1_GRP1_PERIPH_GPIOA
 283:Drivers/STM32L1xx_HAL_Driver/Inc/stm32l1xx_ll_bus.h ****   *         @arg @ref LL_AHB1_GRP1_PERIPH_GPIOB
 284:Drivers/STM32L1xx_HAL_Driver/Inc/stm32l1xx_ll_bus.h ****   *         @arg @ref LL_AHB1_GRP1_PERIPH_GPIOC
 285:Drivers/STM32L1xx_HAL_Driver/Inc/stm32l1xx_ll_bus.h ****   *         @arg @ref LL_AHB1_GRP1_PERIPH_GPIOD
 286:Drivers/STM32L1xx_HAL_Driver/Inc/stm32l1xx_ll_bus.h ****   *         @arg @ref LL_AHB1_GRP1_PERIPH_GPIOE (*)
 287:Drivers/STM32L1xx_HAL_Driver/Inc/stm32l1xx_ll_bus.h ****   *         @arg @ref LL_AHB1_GRP1_PERIPH_GPIOH
 288:Drivers/STM32L1xx_HAL_Driver/Inc/stm32l1xx_ll_bus.h ****   *         @arg @ref LL_AHB1_GRP1_PERIPH_GPIOF (*)
 289:Drivers/STM32L1xx_HAL_Driver/Inc/stm32l1xx_ll_bus.h ****   *         @arg @ref LL_AHB1_GRP1_PERIPH_GPIOG (*)
 290:Drivers/STM32L1xx_HAL_Driver/Inc/stm32l1xx_ll_bus.h ****   *         @arg @ref LL_AHB1_GRP1_PERIPH_CRC
 291:Drivers/STM32L1xx_HAL_Driver/Inc/stm32l1xx_ll_bus.h ****   *         @arg @ref LL_AHB1_GRP1_PERIPH_FLASH
 292:Drivers/STM32L1xx_HAL_Driver/Inc/stm32l1xx_ll_bus.h ****   *         @arg @ref LL_AHB1_GRP1_PERIPH_DMA1
 293:Drivers/STM32L1xx_HAL_Driver/Inc/stm32l1xx_ll_bus.h ****   *         @arg @ref LL_AHB1_GRP1_PERIPH_DMA2 (*)
 294:Drivers/STM32L1xx_HAL_Driver/Inc/stm32l1xx_ll_bus.h ****   *         @arg @ref LL_AHB1_GRP1_PERIPH_CRYP (*)
 295:Drivers/STM32L1xx_HAL_Driver/Inc/stm32l1xx_ll_bus.h ****   *         @arg @ref LL_AHB1_GRP1_PERIPH_FSMC (*)
 296:Drivers/STM32L1xx_HAL_Driver/Inc/stm32l1xx_ll_bus.h ****   *
 297:Drivers/STM32L1xx_HAL_Driver/Inc/stm32l1xx_ll_bus.h ****   *         (*) value not defined in all devices.
 298:Drivers/STM32L1xx_HAL_Driver/Inc/stm32l1xx_ll_bus.h ****   * @retval None
 299:Drivers/STM32L1xx_HAL_Driver/Inc/stm32l1xx_ll_bus.h **** */
 300:Drivers/STM32L1xx_HAL_Driver/Inc/stm32l1xx_ll_bus.h **** __STATIC_INLINE void LL_AHB1_GRP1_DisableClock(uint32_t Periphs)
 301:Drivers/STM32L1xx_HAL_Driver/Inc/stm32l1xx_ll_bus.h **** {
 302:Drivers/STM32L1xx_HAL_Driver/Inc/stm32l1xx_ll_bus.h ****   CLEAR_BIT(RCC->AHBENR, Periphs);
 303:Drivers/STM32L1xx_HAL_Driver/Inc/stm32l1xx_ll_bus.h **** }
 304:Drivers/STM32L1xx_HAL_Driver/Inc/stm32l1xx_ll_bus.h **** 
 305:Drivers/STM32L1xx_HAL_Driver/Inc/stm32l1xx_ll_bus.h **** /**
 306:Drivers/STM32L1xx_HAL_Driver/Inc/stm32l1xx_ll_bus.h ****   * @brief  Force AHB1 peripherals reset.
 307:Drivers/STM32L1xx_HAL_Driver/Inc/stm32l1xx_ll_bus.h ****   * @rmtoll AHBRSTR      GPIOARST      LL_AHB1_GRP1_ForceReset\n
 308:Drivers/STM32L1xx_HAL_Driver/Inc/stm32l1xx_ll_bus.h ****   *         AHBRSTR      GPIOBRST      LL_AHB1_GRP1_ForceReset\n
 309:Drivers/STM32L1xx_HAL_Driver/Inc/stm32l1xx_ll_bus.h ****   *         AHBRSTR      GPIOCRST      LL_AHB1_GRP1_ForceReset\n
 310:Drivers/STM32L1xx_HAL_Driver/Inc/stm32l1xx_ll_bus.h ****   *         AHBRSTR      GPIODRST      LL_AHB1_GRP1_ForceReset\n
 311:Drivers/STM32L1xx_HAL_Driver/Inc/stm32l1xx_ll_bus.h ****   *         AHBRSTR      GPIOERST      LL_AHB1_GRP1_ForceReset\n
 312:Drivers/STM32L1xx_HAL_Driver/Inc/stm32l1xx_ll_bus.h ****   *         AHBRSTR      GPIOHRST      LL_AHB1_GRP1_ForceReset\n
 313:Drivers/STM32L1xx_HAL_Driver/Inc/stm32l1xx_ll_bus.h ****   *         AHBRSTR      GPIOFRST      LL_AHB1_GRP1_ForceReset\n
 314:Drivers/STM32L1xx_HAL_Driver/Inc/stm32l1xx_ll_bus.h ****   *         AHBRSTR      GPIOGRST      LL_AHB1_GRP1_ForceReset\n
 315:Drivers/STM32L1xx_HAL_Driver/Inc/stm32l1xx_ll_bus.h ****   *         AHBRSTR      CRCRST        LL_AHB1_GRP1_ForceReset\n
 316:Drivers/STM32L1xx_HAL_Driver/Inc/stm32l1xx_ll_bus.h ****   *         AHBRSTR      FLITFRST      LL_AHB1_GRP1_ForceReset\n
 317:Drivers/STM32L1xx_HAL_Driver/Inc/stm32l1xx_ll_bus.h ****   *         AHBRSTR      DMA1RST       LL_AHB1_GRP1_ForceReset\n
 318:Drivers/STM32L1xx_HAL_Driver/Inc/stm32l1xx_ll_bus.h ****   *         AHBRSTR      DMA2RST       LL_AHB1_GRP1_ForceReset\n
 319:Drivers/STM32L1xx_HAL_Driver/Inc/stm32l1xx_ll_bus.h ****   *         AHBRSTR      AESRST        LL_AHB1_GRP1_ForceReset\n
 320:Drivers/STM32L1xx_HAL_Driver/Inc/stm32l1xx_ll_bus.h ****   *         AHBRSTR      FSMCRST       LL_AHB1_GRP1_ForceReset
 321:Drivers/STM32L1xx_HAL_Driver/Inc/stm32l1xx_ll_bus.h ****   * @param  Periphs This parameter can be a combination of the following values:
 322:Drivers/STM32L1xx_HAL_Driver/Inc/stm32l1xx_ll_bus.h ****   *         @arg @ref LL_AHB1_GRP1_PERIPH_ALL
 323:Drivers/STM32L1xx_HAL_Driver/Inc/stm32l1xx_ll_bus.h ****   *         @arg @ref LL_AHB1_GRP1_PERIPH_GPIOA
 324:Drivers/STM32L1xx_HAL_Driver/Inc/stm32l1xx_ll_bus.h ****   *         @arg @ref LL_AHB1_GRP1_PERIPH_GPIOB
 325:Drivers/STM32L1xx_HAL_Driver/Inc/stm32l1xx_ll_bus.h ****   *         @arg @ref LL_AHB1_GRP1_PERIPH_GPIOC
 326:Drivers/STM32L1xx_HAL_Driver/Inc/stm32l1xx_ll_bus.h ****   *         @arg @ref LL_AHB1_GRP1_PERIPH_GPIOD
 327:Drivers/STM32L1xx_HAL_Driver/Inc/stm32l1xx_ll_bus.h ****   *         @arg @ref LL_AHB1_GRP1_PERIPH_GPIOE (*)
 328:Drivers/STM32L1xx_HAL_Driver/Inc/stm32l1xx_ll_bus.h ****   *         @arg @ref LL_AHB1_GRP1_PERIPH_GPIOH
 329:Drivers/STM32L1xx_HAL_Driver/Inc/stm32l1xx_ll_bus.h ****   *         @arg @ref LL_AHB1_GRP1_PERIPH_GPIOF (*)
 330:Drivers/STM32L1xx_HAL_Driver/Inc/stm32l1xx_ll_bus.h ****   *         @arg @ref LL_AHB1_GRP1_PERIPH_GPIOG (*)
 331:Drivers/STM32L1xx_HAL_Driver/Inc/stm32l1xx_ll_bus.h ****   *         @arg @ref LL_AHB1_GRP1_PERIPH_CRC
 332:Drivers/STM32L1xx_HAL_Driver/Inc/stm32l1xx_ll_bus.h ****   *         @arg @ref LL_AHB1_GRP1_PERIPH_FLASH
 333:Drivers/STM32L1xx_HAL_Driver/Inc/stm32l1xx_ll_bus.h ****   *         @arg @ref LL_AHB1_GRP1_PERIPH_DMA1
 334:Drivers/STM32L1xx_HAL_Driver/Inc/stm32l1xx_ll_bus.h ****   *         @arg @ref LL_AHB1_GRP1_PERIPH_DMA2 (*)
 335:Drivers/STM32L1xx_HAL_Driver/Inc/stm32l1xx_ll_bus.h ****   *         @arg @ref LL_AHB1_GRP1_PERIPH_CRYP (*)
 336:Drivers/STM32L1xx_HAL_Driver/Inc/stm32l1xx_ll_bus.h ****   *         @arg @ref LL_AHB1_GRP1_PERIPH_FSMC (*)
ARM GAS  C:\Users\domen\AppData\Local\Temp\ccqUJVhq.s 			page 15


 337:Drivers/STM32L1xx_HAL_Driver/Inc/stm32l1xx_ll_bus.h ****   *
 338:Drivers/STM32L1xx_HAL_Driver/Inc/stm32l1xx_ll_bus.h ****   *         (*) value not defined in all devices.
 339:Drivers/STM32L1xx_HAL_Driver/Inc/stm32l1xx_ll_bus.h ****   * @retval None
 340:Drivers/STM32L1xx_HAL_Driver/Inc/stm32l1xx_ll_bus.h **** */
 341:Drivers/STM32L1xx_HAL_Driver/Inc/stm32l1xx_ll_bus.h **** __STATIC_INLINE void LL_AHB1_GRP1_ForceReset(uint32_t Periphs)
 211              		.loc 2 341 22 view .LVU53
 212              	.LBB33:
 342:Drivers/STM32L1xx_HAL_Driver/Inc/stm32l1xx_ll_bus.h **** {
 343:Drivers/STM32L1xx_HAL_Driver/Inc/stm32l1xx_ll_bus.h ****   SET_BIT(RCC->AHBRSTR, Periphs);
 213              		.loc 2 343 3 view .LVU54
 214 00c0 A3F52053 		sub	r3, r3, #10240
 215 00c4 1A69     		ldr	r2, [r3, #16]
 216 00c6 42F08072 		orr	r2, r2, #16777216
 217 00ca 1A61     		str	r2, [r3, #16]
 218              	.LVL9:
 219              		.loc 2 343 3 is_stmt 0 view .LVU55
 220              	.LBE33:
 221              	.LBE32:
 167:Drivers/STM32L1xx_HAL_Driver/Src/stm32l1xx_ll_dma.c ****     }
 222              		.loc 1 167 7 is_stmt 1 view .LVU56
 223              	.LBB34:
 224              	.LBI34:
 344:Drivers/STM32L1xx_HAL_Driver/Inc/stm32l1xx_ll_bus.h **** }
 345:Drivers/STM32L1xx_HAL_Driver/Inc/stm32l1xx_ll_bus.h **** 
 346:Drivers/STM32L1xx_HAL_Driver/Inc/stm32l1xx_ll_bus.h **** /**
 347:Drivers/STM32L1xx_HAL_Driver/Inc/stm32l1xx_ll_bus.h ****   * @brief  Release AHB1 peripherals reset.
 348:Drivers/STM32L1xx_HAL_Driver/Inc/stm32l1xx_ll_bus.h ****   * @rmtoll AHBRSTR      GPIOARST      LL_AHB1_GRP1_ReleaseReset\n
 349:Drivers/STM32L1xx_HAL_Driver/Inc/stm32l1xx_ll_bus.h ****   *         AHBRSTR      GPIOBRST      LL_AHB1_GRP1_ReleaseReset\n
 350:Drivers/STM32L1xx_HAL_Driver/Inc/stm32l1xx_ll_bus.h ****   *         AHBRSTR      GPIOCRST      LL_AHB1_GRP1_ReleaseReset\n
 351:Drivers/STM32L1xx_HAL_Driver/Inc/stm32l1xx_ll_bus.h ****   *         AHBRSTR      GPIODRST      LL_AHB1_GRP1_ReleaseReset\n
 352:Drivers/STM32L1xx_HAL_Driver/Inc/stm32l1xx_ll_bus.h ****   *         AHBRSTR      GPIOERST      LL_AHB1_GRP1_ReleaseReset\n
 353:Drivers/STM32L1xx_HAL_Driver/Inc/stm32l1xx_ll_bus.h ****   *         AHBRSTR      GPIOHRST      LL_AHB1_GRP1_ReleaseReset\n
 354:Drivers/STM32L1xx_HAL_Driver/Inc/stm32l1xx_ll_bus.h ****   *         AHBRSTR      GPIOFRST      LL_AHB1_GRP1_ReleaseReset\n
 355:Drivers/STM32L1xx_HAL_Driver/Inc/stm32l1xx_ll_bus.h ****   *         AHBRSTR      GPIOGRST      LL_AHB1_GRP1_ReleaseReset\n
 356:Drivers/STM32L1xx_HAL_Driver/Inc/stm32l1xx_ll_bus.h ****   *         AHBRSTR      CRCRST        LL_AHB1_GRP1_ReleaseReset\n
 357:Drivers/STM32L1xx_HAL_Driver/Inc/stm32l1xx_ll_bus.h ****   *         AHBRSTR      FLITFRST      LL_AHB1_GRP1_ReleaseReset\n
 358:Drivers/STM32L1xx_HAL_Driver/Inc/stm32l1xx_ll_bus.h ****   *         AHBRSTR      DMA1RST       LL_AHB1_GRP1_ReleaseReset\n
 359:Drivers/STM32L1xx_HAL_Driver/Inc/stm32l1xx_ll_bus.h ****   *         AHBRSTR      DMA2RST       LL_AHB1_GRP1_ReleaseReset\n
 360:Drivers/STM32L1xx_HAL_Driver/Inc/stm32l1xx_ll_bus.h ****   *         AHBRSTR      AESRST        LL_AHB1_GRP1_ReleaseReset\n
 361:Drivers/STM32L1xx_HAL_Driver/Inc/stm32l1xx_ll_bus.h ****   *         AHBRSTR      FSMCRST       LL_AHB1_GRP1_ReleaseReset
 362:Drivers/STM32L1xx_HAL_Driver/Inc/stm32l1xx_ll_bus.h ****   * @param  Periphs This parameter can be a combination of the following values:
 363:Drivers/STM32L1xx_HAL_Driver/Inc/stm32l1xx_ll_bus.h ****   *         @arg @ref LL_AHB1_GRP1_PERIPH_ALL
 364:Drivers/STM32L1xx_HAL_Driver/Inc/stm32l1xx_ll_bus.h ****   *         @arg @ref LL_AHB1_GRP1_PERIPH_GPIOA
 365:Drivers/STM32L1xx_HAL_Driver/Inc/stm32l1xx_ll_bus.h ****   *         @arg @ref LL_AHB1_GRP1_PERIPH_GPIOB
 366:Drivers/STM32L1xx_HAL_Driver/Inc/stm32l1xx_ll_bus.h ****   *         @arg @ref LL_AHB1_GRP1_PERIPH_GPIOC
 367:Drivers/STM32L1xx_HAL_Driver/Inc/stm32l1xx_ll_bus.h ****   *         @arg @ref LL_AHB1_GRP1_PERIPH_GPIOD
 368:Drivers/STM32L1xx_HAL_Driver/Inc/stm32l1xx_ll_bus.h ****   *         @arg @ref LL_AHB1_GRP1_PERIPH_GPIOE (*)
 369:Drivers/STM32L1xx_HAL_Driver/Inc/stm32l1xx_ll_bus.h ****   *         @arg @ref LL_AHB1_GRP1_PERIPH_GPIOH
 370:Drivers/STM32L1xx_HAL_Driver/Inc/stm32l1xx_ll_bus.h ****   *         @arg @ref LL_AHB1_GRP1_PERIPH_GPIOF (*)
 371:Drivers/STM32L1xx_HAL_Driver/Inc/stm32l1xx_ll_bus.h ****   *         @arg @ref LL_AHB1_GRP1_PERIPH_GPIOG (*)
 372:Drivers/STM32L1xx_HAL_Driver/Inc/stm32l1xx_ll_bus.h ****   *         @arg @ref LL_AHB1_GRP1_PERIPH_CRC
 373:Drivers/STM32L1xx_HAL_Driver/Inc/stm32l1xx_ll_bus.h ****   *         @arg @ref LL_AHB1_GRP1_PERIPH_FLASH
 374:Drivers/STM32L1xx_HAL_Driver/Inc/stm32l1xx_ll_bus.h ****   *         @arg @ref LL_AHB1_GRP1_PERIPH_DMA1
 375:Drivers/STM32L1xx_HAL_Driver/Inc/stm32l1xx_ll_bus.h ****   *         @arg @ref LL_AHB1_GRP1_PERIPH_DMA2 (*)
 376:Drivers/STM32L1xx_HAL_Driver/Inc/stm32l1xx_ll_bus.h ****   *         @arg @ref LL_AHB1_GRP1_PERIPH_CRYP (*)
 377:Drivers/STM32L1xx_HAL_Driver/Inc/stm32l1xx_ll_bus.h ****   *         @arg @ref LL_AHB1_GRP1_PERIPH_FSMC (*)
 378:Drivers/STM32L1xx_HAL_Driver/Inc/stm32l1xx_ll_bus.h ****   *
ARM GAS  C:\Users\domen\AppData\Local\Temp\ccqUJVhq.s 			page 16


 379:Drivers/STM32L1xx_HAL_Driver/Inc/stm32l1xx_ll_bus.h ****   *         (*) value not defined in all devices.
 380:Drivers/STM32L1xx_HAL_Driver/Inc/stm32l1xx_ll_bus.h ****   * @retval None
 381:Drivers/STM32L1xx_HAL_Driver/Inc/stm32l1xx_ll_bus.h **** */
 382:Drivers/STM32L1xx_HAL_Driver/Inc/stm32l1xx_ll_bus.h **** __STATIC_INLINE void LL_AHB1_GRP1_ReleaseReset(uint32_t Periphs)
 225              		.loc 2 382 22 view .LVU57
 226              	.LBB35:
 383:Drivers/STM32L1xx_HAL_Driver/Inc/stm32l1xx_ll_bus.h **** {
 384:Drivers/STM32L1xx_HAL_Driver/Inc/stm32l1xx_ll_bus.h ****   CLEAR_BIT(RCC->AHBRSTR, Periphs);
 227              		.loc 2 384 3 view .LVU58
 228 00cc 1A69     		ldr	r2, [r3, #16]
 229 00ce 22F08072 		bic	r2, r2, #16777216
 230 00d2 1A61     		str	r2, [r3, #16]
 231              	.LBE35:
 232              	.LBE34:
 154:Drivers/STM32L1xx_HAL_Driver/Src/stm32l1xx_ll_dma.c **** 
 233              		.loc 1 154 15 is_stmt 0 view .LVU59
 234 00d4 0020     		movs	r0, #0
 235 00d6 3EE0     		b	.L7
 236              	.LVL10:
 237              	.L63:
 173:Drivers/STM32L1xx_HAL_Driver/Src/stm32l1xx_ll_dma.c **** 
 238              		.loc 1 173 7 is_stmt 1 view .LVU60
 239              	.LBB36:
 240              	.LBI36:
 341:Drivers/STM32L1xx_HAL_Driver/Inc/stm32l1xx_ll_bus.h **** {
 241              		.loc 2 341 22 view .LVU61
 242              	.LBB37:
 343:Drivers/STM32L1xx_HAL_Driver/Inc/stm32l1xx_ll_bus.h **** }
 243              		.loc 2 343 3 view .LVU62
 244 00d8 A3F53053 		sub	r3, r3, #11264
 245 00dc 1A69     		ldr	r2, [r3, #16]
 246 00de 42F00072 		orr	r2, r2, #33554432
 247 00e2 1A61     		str	r2, [r3, #16]
 248              	.LVL11:
 343:Drivers/STM32L1xx_HAL_Driver/Inc/stm32l1xx_ll_bus.h **** }
 249              		.loc 2 343 3 is_stmt 0 view .LVU63
 250              	.LBE37:
 251              	.LBE36:
 176:Drivers/STM32L1xx_HAL_Driver/Src/stm32l1xx_ll_dma.c ****     }
 252              		.loc 1 176 7 is_stmt 1 view .LVU64
 253              	.LBB38:
 254              	.LBI38:
 382:Drivers/STM32L1xx_HAL_Driver/Inc/stm32l1xx_ll_bus.h **** {
 255              		.loc 2 382 22 view .LVU65
 256              	.LBB39:
 257              		.loc 2 384 3 view .LVU66
 258 00e4 1A69     		ldr	r2, [r3, #16]
 259 00e6 22F00072 		bic	r2, r2, #33554432
 260 00ea 1A61     		str	r2, [r3, #16]
 261              	.LBE39:
 262              	.LBE38:
 154:Drivers/STM32L1xx_HAL_Driver/Src/stm32l1xx_ll_dma.c **** 
 263              		.loc 1 154 15 is_stmt 0 view .LVU67
 264 00ec 0020     		movs	r0, #0
 265 00ee 32E0     		b	.L7
 266              	.LVL12:
 267              	.L44:
ARM GAS  C:\Users\domen\AppData\Local\Temp\ccqUJVhq.s 			page 17


 186:Drivers/STM32L1xx_HAL_Driver/Src/stm32l1xx_ll_dma.c **** 
 268              		.loc 1 186 35 discriminator 2 view .LVU68
 269 00f0 012D     		cmp	r5, #1
 270 00f2 97D1     		bne	.L8
 186:Drivers/STM32L1xx_HAL_Driver/Src/stm32l1xx_ll_dma.c **** 
 271              		.loc 1 186 11 view .LVU69
 272 00f4 2E4B     		ldr	r3, .L64+16
 273 00f6 B4E7     		b	.L9
 274              	.L45:
 186:Drivers/STM32L1xx_HAL_Driver/Src/stm32l1xx_ll_dma.c **** 
 275              		.loc 1 186 35 discriminator 6 view .LVU70
 276 00f8 012D     		cmp	r5, #1
 277 00fa 96D1     		bne	.L10
 186:Drivers/STM32L1xx_HAL_Driver/Src/stm32l1xx_ll_dma.c **** 
 278              		.loc 1 186 35 view .LVU71
 279 00fc 2D4B     		ldr	r3, .L64+20
 280 00fe B0E7     		b	.L9
 281              	.L46:
 186:Drivers/STM32L1xx_HAL_Driver/Src/stm32l1xx_ll_dma.c **** 
 282              		.loc 1 186 35 discriminator 10 view .LVU72
 283 0100 022D     		cmp	r5, #2
 284 0102 95D1     		bne	.L11
 186:Drivers/STM32L1xx_HAL_Driver/Src/stm32l1xx_ll_dma.c **** 
 285              		.loc 1 186 35 view .LVU73
 286 0104 2C4B     		ldr	r3, .L64+24
 287 0106 ACE7     		b	.L9
 288              	.L47:
 186:Drivers/STM32L1xx_HAL_Driver/Src/stm32l1xx_ll_dma.c **** 
 289              		.loc 1 186 35 discriminator 14 view .LVU74
 290 0108 022D     		cmp	r5, #2
 291 010a 94D1     		bne	.L12
 186:Drivers/STM32L1xx_HAL_Driver/Src/stm32l1xx_ll_dma.c **** 
 292              		.loc 1 186 35 view .LVU75
 293 010c 2B4B     		ldr	r3, .L64+28
 294 010e A8E7     		b	.L9
 295              	.L48:
 186:Drivers/STM32L1xx_HAL_Driver/Src/stm32l1xx_ll_dma.c **** 
 296              		.loc 1 186 35 discriminator 18 view .LVU76
 297 0110 032D     		cmp	r5, #3
 298 0112 93D1     		bne	.L13
 186:Drivers/STM32L1xx_HAL_Driver/Src/stm32l1xx_ll_dma.c **** 
 299              		.loc 1 186 35 view .LVU77
 300 0114 2A4B     		ldr	r3, .L64+32
 301 0116 A4E7     		b	.L9
 302              	.L49:
 186:Drivers/STM32L1xx_HAL_Driver/Src/stm32l1xx_ll_dma.c **** 
 303              		.loc 1 186 35 discriminator 22 view .LVU78
 304 0118 032D     		cmp	r5, #3
 305 011a 92D1     		bne	.L14
 186:Drivers/STM32L1xx_HAL_Driver/Src/stm32l1xx_ll_dma.c **** 
 306              		.loc 1 186 35 view .LVU79
 307 011c 294B     		ldr	r3, .L64+36
 308 011e A0E7     		b	.L9
 309              	.L50:
 186:Drivers/STM32L1xx_HAL_Driver/Src/stm32l1xx_ll_dma.c **** 
 310              		.loc 1 186 35 discriminator 26 view .LVU80
 311 0120 042D     		cmp	r5, #4
ARM GAS  C:\Users\domen\AppData\Local\Temp\ccqUJVhq.s 			page 18


 312 0122 91D1     		bne	.L15
 186:Drivers/STM32L1xx_HAL_Driver/Src/stm32l1xx_ll_dma.c **** 
 313              		.loc 1 186 35 view .LVU81
 314 0124 284B     		ldr	r3, .L64+40
 315 0126 9CE7     		b	.L9
 316              	.L51:
 186:Drivers/STM32L1xx_HAL_Driver/Src/stm32l1xx_ll_dma.c **** 
 317              		.loc 1 186 35 discriminator 30 view .LVU82
 318 0128 042D     		cmp	r5, #4
 319 012a 90D1     		bne	.L16
 186:Drivers/STM32L1xx_HAL_Driver/Src/stm32l1xx_ll_dma.c **** 
 320              		.loc 1 186 35 view .LVU83
 321 012c 274B     		ldr	r3, .L64+44
 322 012e 98E7     		b	.L9
 323              	.L52:
 186:Drivers/STM32L1xx_HAL_Driver/Src/stm32l1xx_ll_dma.c **** 
 324              		.loc 1 186 35 discriminator 34 view .LVU84
 325 0130 052D     		cmp	r5, #5
 326 0132 8FD1     		bne	.L17
 186:Drivers/STM32L1xx_HAL_Driver/Src/stm32l1xx_ll_dma.c **** 
 327              		.loc 1 186 35 view .LVU85
 328 0134 264B     		ldr	r3, .L64+48
 329 0136 94E7     		b	.L9
 330              	.L53:
 186:Drivers/STM32L1xx_HAL_Driver/Src/stm32l1xx_ll_dma.c **** 
 331              		.loc 1 186 35 discriminator 38 view .LVU86
 332 0138 052D     		cmp	r5, #5
 333 013a 8ED1     		bne	.L18
 186:Drivers/STM32L1xx_HAL_Driver/Src/stm32l1xx_ll_dma.c **** 
 334              		.loc 1 186 35 view .LVU87
 335 013c 254B     		ldr	r3, .L64+52
 336 013e 90E7     		b	.L9
 337              	.L54:
 186:Drivers/STM32L1xx_HAL_Driver/Src/stm32l1xx_ll_dma.c **** 
 338              		.loc 1 186 35 discriminator 41 view .LVU88
 339 0140 062D     		cmp	r5, #6
 340 0142 01D0     		beq	.L37
 186:Drivers/STM32L1xx_HAL_Driver/Src/stm32l1xx_ll_dma.c **** 
 341              		.loc 1 186 35 view .LVU89
 342 0144 8033     		adds	r3, r3, #128
 343 0146 8CE7     		b	.L9
 344              	.L37:
 345 0148 234B     		ldr	r3, .L64+56
 346 014a 8AE7     		b	.L9
 347              	.LVL13:
 348              	.L55:
 207:Drivers/STM32L1xx_HAL_Driver/Src/stm32l1xx_ll_dma.c ****     }
 349              		.loc 1 207 7 is_stmt 1 view .LVU90
 350              	.LBB40:
 351              	.LBI40:
 352              		.file 3 "Drivers/STM32L1xx_HAL_Driver/Inc/stm32l1xx_ll_dma.h"
   1:Drivers/STM32L1xx_HAL_Driver/Inc/stm32l1xx_ll_dma.h **** /**
   2:Drivers/STM32L1xx_HAL_Driver/Inc/stm32l1xx_ll_dma.h ****   ******************************************************************************
   3:Drivers/STM32L1xx_HAL_Driver/Inc/stm32l1xx_ll_dma.h ****   * @file    stm32l1xx_ll_dma.h
   4:Drivers/STM32L1xx_HAL_Driver/Inc/stm32l1xx_ll_dma.h ****   * @author  MCD Application Team
   5:Drivers/STM32L1xx_HAL_Driver/Inc/stm32l1xx_ll_dma.h ****   * @brief   Header file of DMA LL module.
   6:Drivers/STM32L1xx_HAL_Driver/Inc/stm32l1xx_ll_dma.h ****   ******************************************************************************
ARM GAS  C:\Users\domen\AppData\Local\Temp\ccqUJVhq.s 			page 19


   7:Drivers/STM32L1xx_HAL_Driver/Inc/stm32l1xx_ll_dma.h ****   * @attention
   8:Drivers/STM32L1xx_HAL_Driver/Inc/stm32l1xx_ll_dma.h ****   *
   9:Drivers/STM32L1xx_HAL_Driver/Inc/stm32l1xx_ll_dma.h ****   * <h2><center>&copy; Copyright (c) 2017 STMicroelectronics.
  10:Drivers/STM32L1xx_HAL_Driver/Inc/stm32l1xx_ll_dma.h ****   * All rights reserved.</center></h2>
  11:Drivers/STM32L1xx_HAL_Driver/Inc/stm32l1xx_ll_dma.h ****   *
  12:Drivers/STM32L1xx_HAL_Driver/Inc/stm32l1xx_ll_dma.h ****   * This software component is licensed by ST under BSD 3-Clause license,
  13:Drivers/STM32L1xx_HAL_Driver/Inc/stm32l1xx_ll_dma.h ****   * the "License"; You may not use this file except in compliance with the
  14:Drivers/STM32L1xx_HAL_Driver/Inc/stm32l1xx_ll_dma.h ****   * License. You may obtain a copy of the License at:
  15:Drivers/STM32L1xx_HAL_Driver/Inc/stm32l1xx_ll_dma.h ****   *                        opensource.org/licenses/BSD-3-Clause
  16:Drivers/STM32L1xx_HAL_Driver/Inc/stm32l1xx_ll_dma.h ****   *
  17:Drivers/STM32L1xx_HAL_Driver/Inc/stm32l1xx_ll_dma.h ****   ******************************************************************************
  18:Drivers/STM32L1xx_HAL_Driver/Inc/stm32l1xx_ll_dma.h ****   */
  19:Drivers/STM32L1xx_HAL_Driver/Inc/stm32l1xx_ll_dma.h **** 
  20:Drivers/STM32L1xx_HAL_Driver/Inc/stm32l1xx_ll_dma.h **** /* Define to prevent recursive inclusion -------------------------------------*/
  21:Drivers/STM32L1xx_HAL_Driver/Inc/stm32l1xx_ll_dma.h **** #ifndef __STM32L1xx_LL_DMA_H
  22:Drivers/STM32L1xx_HAL_Driver/Inc/stm32l1xx_ll_dma.h **** #define __STM32L1xx_LL_DMA_H
  23:Drivers/STM32L1xx_HAL_Driver/Inc/stm32l1xx_ll_dma.h **** 
  24:Drivers/STM32L1xx_HAL_Driver/Inc/stm32l1xx_ll_dma.h **** #ifdef __cplusplus
  25:Drivers/STM32L1xx_HAL_Driver/Inc/stm32l1xx_ll_dma.h **** extern "C" {
  26:Drivers/STM32L1xx_HAL_Driver/Inc/stm32l1xx_ll_dma.h **** #endif
  27:Drivers/STM32L1xx_HAL_Driver/Inc/stm32l1xx_ll_dma.h **** 
  28:Drivers/STM32L1xx_HAL_Driver/Inc/stm32l1xx_ll_dma.h **** /* Includes ------------------------------------------------------------------*/
  29:Drivers/STM32L1xx_HAL_Driver/Inc/stm32l1xx_ll_dma.h **** #include "stm32l1xx.h"
  30:Drivers/STM32L1xx_HAL_Driver/Inc/stm32l1xx_ll_dma.h **** 
  31:Drivers/STM32L1xx_HAL_Driver/Inc/stm32l1xx_ll_dma.h **** /** @addtogroup STM32L1xx_LL_Driver
  32:Drivers/STM32L1xx_HAL_Driver/Inc/stm32l1xx_ll_dma.h ****   * @{
  33:Drivers/STM32L1xx_HAL_Driver/Inc/stm32l1xx_ll_dma.h ****   */
  34:Drivers/STM32L1xx_HAL_Driver/Inc/stm32l1xx_ll_dma.h **** 
  35:Drivers/STM32L1xx_HAL_Driver/Inc/stm32l1xx_ll_dma.h **** #if defined (DMA1) || defined (DMA2)
  36:Drivers/STM32L1xx_HAL_Driver/Inc/stm32l1xx_ll_dma.h **** 
  37:Drivers/STM32L1xx_HAL_Driver/Inc/stm32l1xx_ll_dma.h **** /** @defgroup DMA_LL DMA
  38:Drivers/STM32L1xx_HAL_Driver/Inc/stm32l1xx_ll_dma.h ****   * @{
  39:Drivers/STM32L1xx_HAL_Driver/Inc/stm32l1xx_ll_dma.h ****   */
  40:Drivers/STM32L1xx_HAL_Driver/Inc/stm32l1xx_ll_dma.h **** 
  41:Drivers/STM32L1xx_HAL_Driver/Inc/stm32l1xx_ll_dma.h **** /* Private types -------------------------------------------------------------*/
  42:Drivers/STM32L1xx_HAL_Driver/Inc/stm32l1xx_ll_dma.h **** /* Private variables ---------------------------------------------------------*/
  43:Drivers/STM32L1xx_HAL_Driver/Inc/stm32l1xx_ll_dma.h **** /** @defgroup DMA_LL_Private_Variables DMA Private Variables
  44:Drivers/STM32L1xx_HAL_Driver/Inc/stm32l1xx_ll_dma.h ****   * @{
  45:Drivers/STM32L1xx_HAL_Driver/Inc/stm32l1xx_ll_dma.h ****   */
  46:Drivers/STM32L1xx_HAL_Driver/Inc/stm32l1xx_ll_dma.h **** /* Array used to get the DMA channel register offset versus channel index LL_DMA_CHANNEL_x */
  47:Drivers/STM32L1xx_HAL_Driver/Inc/stm32l1xx_ll_dma.h **** static const uint8_t CHANNEL_OFFSET_TAB[] =
  48:Drivers/STM32L1xx_HAL_Driver/Inc/stm32l1xx_ll_dma.h **** {
  49:Drivers/STM32L1xx_HAL_Driver/Inc/stm32l1xx_ll_dma.h ****   (uint8_t)(DMA1_Channel1_BASE - DMA1_BASE),
  50:Drivers/STM32L1xx_HAL_Driver/Inc/stm32l1xx_ll_dma.h ****   (uint8_t)(DMA1_Channel2_BASE - DMA1_BASE),
  51:Drivers/STM32L1xx_HAL_Driver/Inc/stm32l1xx_ll_dma.h ****   (uint8_t)(DMA1_Channel3_BASE - DMA1_BASE),
  52:Drivers/STM32L1xx_HAL_Driver/Inc/stm32l1xx_ll_dma.h ****   (uint8_t)(DMA1_Channel4_BASE - DMA1_BASE),
  53:Drivers/STM32L1xx_HAL_Driver/Inc/stm32l1xx_ll_dma.h ****   (uint8_t)(DMA1_Channel5_BASE - DMA1_BASE),
  54:Drivers/STM32L1xx_HAL_Driver/Inc/stm32l1xx_ll_dma.h ****   (uint8_t)(DMA1_Channel6_BASE - DMA1_BASE),
  55:Drivers/STM32L1xx_HAL_Driver/Inc/stm32l1xx_ll_dma.h ****   (uint8_t)(DMA1_Channel7_BASE - DMA1_BASE)
  56:Drivers/STM32L1xx_HAL_Driver/Inc/stm32l1xx_ll_dma.h **** };
  57:Drivers/STM32L1xx_HAL_Driver/Inc/stm32l1xx_ll_dma.h **** /**
  58:Drivers/STM32L1xx_HAL_Driver/Inc/stm32l1xx_ll_dma.h ****   * @}
  59:Drivers/STM32L1xx_HAL_Driver/Inc/stm32l1xx_ll_dma.h ****   */
  60:Drivers/STM32L1xx_HAL_Driver/Inc/stm32l1xx_ll_dma.h **** 
  61:Drivers/STM32L1xx_HAL_Driver/Inc/stm32l1xx_ll_dma.h **** /* Private constants ---------------------------------------------------------*/
  62:Drivers/STM32L1xx_HAL_Driver/Inc/stm32l1xx_ll_dma.h **** 
  63:Drivers/STM32L1xx_HAL_Driver/Inc/stm32l1xx_ll_dma.h **** /* Private macros ------------------------------------------------------------*/
ARM GAS  C:\Users\domen\AppData\Local\Temp\ccqUJVhq.s 			page 20


  64:Drivers/STM32L1xx_HAL_Driver/Inc/stm32l1xx_ll_dma.h **** #if defined(USE_FULL_LL_DRIVER)
  65:Drivers/STM32L1xx_HAL_Driver/Inc/stm32l1xx_ll_dma.h **** /** @defgroup DMA_LL_Private_Macros DMA Private Macros
  66:Drivers/STM32L1xx_HAL_Driver/Inc/stm32l1xx_ll_dma.h ****   * @{
  67:Drivers/STM32L1xx_HAL_Driver/Inc/stm32l1xx_ll_dma.h ****   */
  68:Drivers/STM32L1xx_HAL_Driver/Inc/stm32l1xx_ll_dma.h **** /**
  69:Drivers/STM32L1xx_HAL_Driver/Inc/stm32l1xx_ll_dma.h ****   * @}
  70:Drivers/STM32L1xx_HAL_Driver/Inc/stm32l1xx_ll_dma.h ****   */
  71:Drivers/STM32L1xx_HAL_Driver/Inc/stm32l1xx_ll_dma.h **** #endif /*USE_FULL_LL_DRIVER*/
  72:Drivers/STM32L1xx_HAL_Driver/Inc/stm32l1xx_ll_dma.h **** 
  73:Drivers/STM32L1xx_HAL_Driver/Inc/stm32l1xx_ll_dma.h **** /* Exported types ------------------------------------------------------------*/
  74:Drivers/STM32L1xx_HAL_Driver/Inc/stm32l1xx_ll_dma.h **** #if defined(USE_FULL_LL_DRIVER)
  75:Drivers/STM32L1xx_HAL_Driver/Inc/stm32l1xx_ll_dma.h **** /** @defgroup DMA_LL_ES_INIT DMA Exported Init structure
  76:Drivers/STM32L1xx_HAL_Driver/Inc/stm32l1xx_ll_dma.h ****   * @{
  77:Drivers/STM32L1xx_HAL_Driver/Inc/stm32l1xx_ll_dma.h ****   */
  78:Drivers/STM32L1xx_HAL_Driver/Inc/stm32l1xx_ll_dma.h **** typedef struct
  79:Drivers/STM32L1xx_HAL_Driver/Inc/stm32l1xx_ll_dma.h **** {
  80:Drivers/STM32L1xx_HAL_Driver/Inc/stm32l1xx_ll_dma.h ****   uint32_t PeriphOrM2MSrcAddress;  /*!< Specifies the peripheral base address for DMA transfer
  81:Drivers/STM32L1xx_HAL_Driver/Inc/stm32l1xx_ll_dma.h ****                                         or as Source base address in case of memory to memory trans
  82:Drivers/STM32L1xx_HAL_Driver/Inc/stm32l1xx_ll_dma.h **** 
  83:Drivers/STM32L1xx_HAL_Driver/Inc/stm32l1xx_ll_dma.h ****                                         This parameter must be a value between Min_Data = 0 and Max
  84:Drivers/STM32L1xx_HAL_Driver/Inc/stm32l1xx_ll_dma.h **** 
  85:Drivers/STM32L1xx_HAL_Driver/Inc/stm32l1xx_ll_dma.h ****   uint32_t MemoryOrM2MDstAddress;  /*!< Specifies the memory base address for DMA transfer
  86:Drivers/STM32L1xx_HAL_Driver/Inc/stm32l1xx_ll_dma.h ****                                         or as Destination base address in case of memory to memory 
  87:Drivers/STM32L1xx_HAL_Driver/Inc/stm32l1xx_ll_dma.h **** 
  88:Drivers/STM32L1xx_HAL_Driver/Inc/stm32l1xx_ll_dma.h ****                                         This parameter must be a value between Min_Data = 0 and Max
  89:Drivers/STM32L1xx_HAL_Driver/Inc/stm32l1xx_ll_dma.h **** 
  90:Drivers/STM32L1xx_HAL_Driver/Inc/stm32l1xx_ll_dma.h ****   uint32_t Direction;              /*!< Specifies if the data will be transferred from memory to pe
  91:Drivers/STM32L1xx_HAL_Driver/Inc/stm32l1xx_ll_dma.h ****                                         from memory to memory or from peripheral to memory.
  92:Drivers/STM32L1xx_HAL_Driver/Inc/stm32l1xx_ll_dma.h ****                                         This parameter can be a value of @ref DMA_LL_EC_DIRECTION
  93:Drivers/STM32L1xx_HAL_Driver/Inc/stm32l1xx_ll_dma.h **** 
  94:Drivers/STM32L1xx_HAL_Driver/Inc/stm32l1xx_ll_dma.h ****                                         This feature can be modified afterwards using unitary funct
  95:Drivers/STM32L1xx_HAL_Driver/Inc/stm32l1xx_ll_dma.h **** 
  96:Drivers/STM32L1xx_HAL_Driver/Inc/stm32l1xx_ll_dma.h ****   uint32_t Mode;                   /*!< Specifies the normal or circular operation mode.
  97:Drivers/STM32L1xx_HAL_Driver/Inc/stm32l1xx_ll_dma.h ****                                         This parameter can be a value of @ref DMA_LL_EC_MODE
  98:Drivers/STM32L1xx_HAL_Driver/Inc/stm32l1xx_ll_dma.h ****                                         @note: The circular buffer mode cannot be used if the memor
  99:Drivers/STM32L1xx_HAL_Driver/Inc/stm32l1xx_ll_dma.h ****                                                data transfer direction is configured on the selecte
 100:Drivers/STM32L1xx_HAL_Driver/Inc/stm32l1xx_ll_dma.h **** 
 101:Drivers/STM32L1xx_HAL_Driver/Inc/stm32l1xx_ll_dma.h ****                                         This feature can be modified afterwards using unitary funct
 102:Drivers/STM32L1xx_HAL_Driver/Inc/stm32l1xx_ll_dma.h **** 
 103:Drivers/STM32L1xx_HAL_Driver/Inc/stm32l1xx_ll_dma.h ****   uint32_t PeriphOrM2MSrcIncMode;  /*!< Specifies whether the Peripheral address or Source address 
 104:Drivers/STM32L1xx_HAL_Driver/Inc/stm32l1xx_ll_dma.h ****                                         is incremented or not.
 105:Drivers/STM32L1xx_HAL_Driver/Inc/stm32l1xx_ll_dma.h ****                                         This parameter can be a value of @ref DMA_LL_EC_PERIPH
 106:Drivers/STM32L1xx_HAL_Driver/Inc/stm32l1xx_ll_dma.h **** 
 107:Drivers/STM32L1xx_HAL_Driver/Inc/stm32l1xx_ll_dma.h ****                                         This feature can be modified afterwards using unitary funct
 108:Drivers/STM32L1xx_HAL_Driver/Inc/stm32l1xx_ll_dma.h **** 
 109:Drivers/STM32L1xx_HAL_Driver/Inc/stm32l1xx_ll_dma.h ****   uint32_t MemoryOrM2MDstIncMode;  /*!< Specifies whether the Memory address or Destination address
 110:Drivers/STM32L1xx_HAL_Driver/Inc/stm32l1xx_ll_dma.h ****                                         is incremented or not.
 111:Drivers/STM32L1xx_HAL_Driver/Inc/stm32l1xx_ll_dma.h ****                                         This parameter can be a value of @ref DMA_LL_EC_MEMORY
 112:Drivers/STM32L1xx_HAL_Driver/Inc/stm32l1xx_ll_dma.h **** 
 113:Drivers/STM32L1xx_HAL_Driver/Inc/stm32l1xx_ll_dma.h ****                                         This feature can be modified afterwards using unitary funct
 114:Drivers/STM32L1xx_HAL_Driver/Inc/stm32l1xx_ll_dma.h **** 
 115:Drivers/STM32L1xx_HAL_Driver/Inc/stm32l1xx_ll_dma.h ****   uint32_t PeriphOrM2MSrcDataSize; /*!< Specifies the Peripheral data size alignment or Source data
 116:Drivers/STM32L1xx_HAL_Driver/Inc/stm32l1xx_ll_dma.h ****                                         in case of memory to memory transfer direction.
 117:Drivers/STM32L1xx_HAL_Driver/Inc/stm32l1xx_ll_dma.h ****                                         This parameter can be a value of @ref DMA_LL_EC_PDATAALIGN
 118:Drivers/STM32L1xx_HAL_Driver/Inc/stm32l1xx_ll_dma.h **** 
 119:Drivers/STM32L1xx_HAL_Driver/Inc/stm32l1xx_ll_dma.h ****                                         This feature can be modified afterwards using unitary funct
 120:Drivers/STM32L1xx_HAL_Driver/Inc/stm32l1xx_ll_dma.h **** 
ARM GAS  C:\Users\domen\AppData\Local\Temp\ccqUJVhq.s 			page 21


 121:Drivers/STM32L1xx_HAL_Driver/Inc/stm32l1xx_ll_dma.h ****   uint32_t MemoryOrM2MDstDataSize; /*!< Specifies the Memory data size alignment or Destination dat
 122:Drivers/STM32L1xx_HAL_Driver/Inc/stm32l1xx_ll_dma.h ****                                         in case of memory to memory transfer direction.
 123:Drivers/STM32L1xx_HAL_Driver/Inc/stm32l1xx_ll_dma.h ****                                         This parameter can be a value of @ref DMA_LL_EC_MDATAALIGN
 124:Drivers/STM32L1xx_HAL_Driver/Inc/stm32l1xx_ll_dma.h **** 
 125:Drivers/STM32L1xx_HAL_Driver/Inc/stm32l1xx_ll_dma.h ****                                         This feature can be modified afterwards using unitary funct
 126:Drivers/STM32L1xx_HAL_Driver/Inc/stm32l1xx_ll_dma.h **** 
 127:Drivers/STM32L1xx_HAL_Driver/Inc/stm32l1xx_ll_dma.h ****   uint32_t NbData;                 /*!< Specifies the number of data to transfer, in data unit.
 128:Drivers/STM32L1xx_HAL_Driver/Inc/stm32l1xx_ll_dma.h ****                                         The data unit is equal to the source buffer configuration s
 129:Drivers/STM32L1xx_HAL_Driver/Inc/stm32l1xx_ll_dma.h ****                                         or MemorySize parameters depending in the transfer directio
 130:Drivers/STM32L1xx_HAL_Driver/Inc/stm32l1xx_ll_dma.h ****                                         This parameter must be a value between Min_Data = 0 and Max
 131:Drivers/STM32L1xx_HAL_Driver/Inc/stm32l1xx_ll_dma.h **** 
 132:Drivers/STM32L1xx_HAL_Driver/Inc/stm32l1xx_ll_dma.h ****                                         This feature can be modified afterwards using unitary funct
 133:Drivers/STM32L1xx_HAL_Driver/Inc/stm32l1xx_ll_dma.h **** 
 134:Drivers/STM32L1xx_HAL_Driver/Inc/stm32l1xx_ll_dma.h ****   uint32_t Priority;               /*!< Specifies the channel priority level.
 135:Drivers/STM32L1xx_HAL_Driver/Inc/stm32l1xx_ll_dma.h ****                                         This parameter can be a value of @ref DMA_LL_EC_PRIORITY
 136:Drivers/STM32L1xx_HAL_Driver/Inc/stm32l1xx_ll_dma.h **** 
 137:Drivers/STM32L1xx_HAL_Driver/Inc/stm32l1xx_ll_dma.h ****                                         This feature can be modified afterwards using unitary funct
 138:Drivers/STM32L1xx_HAL_Driver/Inc/stm32l1xx_ll_dma.h **** 
 139:Drivers/STM32L1xx_HAL_Driver/Inc/stm32l1xx_ll_dma.h **** } LL_DMA_InitTypeDef;
 140:Drivers/STM32L1xx_HAL_Driver/Inc/stm32l1xx_ll_dma.h **** /**
 141:Drivers/STM32L1xx_HAL_Driver/Inc/stm32l1xx_ll_dma.h ****   * @}
 142:Drivers/STM32L1xx_HAL_Driver/Inc/stm32l1xx_ll_dma.h ****   */
 143:Drivers/STM32L1xx_HAL_Driver/Inc/stm32l1xx_ll_dma.h **** #endif /*USE_FULL_LL_DRIVER*/
 144:Drivers/STM32L1xx_HAL_Driver/Inc/stm32l1xx_ll_dma.h **** 
 145:Drivers/STM32L1xx_HAL_Driver/Inc/stm32l1xx_ll_dma.h **** /* Exported constants --------------------------------------------------------*/
 146:Drivers/STM32L1xx_HAL_Driver/Inc/stm32l1xx_ll_dma.h **** /** @defgroup DMA_LL_Exported_Constants DMA Exported Constants
 147:Drivers/STM32L1xx_HAL_Driver/Inc/stm32l1xx_ll_dma.h ****   * @{
 148:Drivers/STM32L1xx_HAL_Driver/Inc/stm32l1xx_ll_dma.h ****   */
 149:Drivers/STM32L1xx_HAL_Driver/Inc/stm32l1xx_ll_dma.h **** /** @defgroup DMA_LL_EC_CLEAR_FLAG Clear Flags Defines
 150:Drivers/STM32L1xx_HAL_Driver/Inc/stm32l1xx_ll_dma.h ****   * @brief    Flags defines which can be used with LL_DMA_WriteReg function
 151:Drivers/STM32L1xx_HAL_Driver/Inc/stm32l1xx_ll_dma.h ****   * @{
 152:Drivers/STM32L1xx_HAL_Driver/Inc/stm32l1xx_ll_dma.h ****   */
 153:Drivers/STM32L1xx_HAL_Driver/Inc/stm32l1xx_ll_dma.h **** #define LL_DMA_IFCR_CGIF1                 DMA_IFCR_CGIF1        /*!< Channel 1 global flag         
 154:Drivers/STM32L1xx_HAL_Driver/Inc/stm32l1xx_ll_dma.h **** #define LL_DMA_IFCR_CTCIF1                DMA_IFCR_CTCIF1       /*!< Channel 1 transfer complete fl
 155:Drivers/STM32L1xx_HAL_Driver/Inc/stm32l1xx_ll_dma.h **** #define LL_DMA_IFCR_CHTIF1                DMA_IFCR_CHTIF1       /*!< Channel 1 half transfer flag  
 156:Drivers/STM32L1xx_HAL_Driver/Inc/stm32l1xx_ll_dma.h **** #define LL_DMA_IFCR_CTEIF1                DMA_IFCR_CTEIF1       /*!< Channel 1 transfer error flag 
 157:Drivers/STM32L1xx_HAL_Driver/Inc/stm32l1xx_ll_dma.h **** #define LL_DMA_IFCR_CGIF2                 DMA_IFCR_CGIF2        /*!< Channel 2 global flag         
 158:Drivers/STM32L1xx_HAL_Driver/Inc/stm32l1xx_ll_dma.h **** #define LL_DMA_IFCR_CTCIF2                DMA_IFCR_CTCIF2       /*!< Channel 2 transfer complete fl
 159:Drivers/STM32L1xx_HAL_Driver/Inc/stm32l1xx_ll_dma.h **** #define LL_DMA_IFCR_CHTIF2                DMA_IFCR_CHTIF2       /*!< Channel 2 half transfer flag  
 160:Drivers/STM32L1xx_HAL_Driver/Inc/stm32l1xx_ll_dma.h **** #define LL_DMA_IFCR_CTEIF2                DMA_IFCR_CTEIF2       /*!< Channel 2 transfer error flag 
 161:Drivers/STM32L1xx_HAL_Driver/Inc/stm32l1xx_ll_dma.h **** #define LL_DMA_IFCR_CGIF3                 DMA_IFCR_CGIF3        /*!< Channel 3 global flag         
 162:Drivers/STM32L1xx_HAL_Driver/Inc/stm32l1xx_ll_dma.h **** #define LL_DMA_IFCR_CTCIF3                DMA_IFCR_CTCIF3       /*!< Channel 3 transfer complete fl
 163:Drivers/STM32L1xx_HAL_Driver/Inc/stm32l1xx_ll_dma.h **** #define LL_DMA_IFCR_CHTIF3                DMA_IFCR_CHTIF3       /*!< Channel 3 half transfer flag  
 164:Drivers/STM32L1xx_HAL_Driver/Inc/stm32l1xx_ll_dma.h **** #define LL_DMA_IFCR_CTEIF3                DMA_IFCR_CTEIF3       /*!< Channel 3 transfer error flag 
 165:Drivers/STM32L1xx_HAL_Driver/Inc/stm32l1xx_ll_dma.h **** #define LL_DMA_IFCR_CGIF4                 DMA_IFCR_CGIF4        /*!< Channel 4 global flag         
 166:Drivers/STM32L1xx_HAL_Driver/Inc/stm32l1xx_ll_dma.h **** #define LL_DMA_IFCR_CTCIF4                DMA_IFCR_CTCIF4       /*!< Channel 4 transfer complete fl
 167:Drivers/STM32L1xx_HAL_Driver/Inc/stm32l1xx_ll_dma.h **** #define LL_DMA_IFCR_CHTIF4                DMA_IFCR_CHTIF4       /*!< Channel 4 half transfer flag  
 168:Drivers/STM32L1xx_HAL_Driver/Inc/stm32l1xx_ll_dma.h **** #define LL_DMA_IFCR_CTEIF4                DMA_IFCR_CTEIF4       /*!< Channel 4 transfer error flag 
 169:Drivers/STM32L1xx_HAL_Driver/Inc/stm32l1xx_ll_dma.h **** #define LL_DMA_IFCR_CGIF5                 DMA_IFCR_CGIF5        /*!< Channel 5 global flag         
 170:Drivers/STM32L1xx_HAL_Driver/Inc/stm32l1xx_ll_dma.h **** #define LL_DMA_IFCR_CTCIF5                DMA_IFCR_CTCIF5       /*!< Channel 5 transfer complete fl
 171:Drivers/STM32L1xx_HAL_Driver/Inc/stm32l1xx_ll_dma.h **** #define LL_DMA_IFCR_CHTIF5                DMA_IFCR_CHTIF5       /*!< Channel 5 half transfer flag  
 172:Drivers/STM32L1xx_HAL_Driver/Inc/stm32l1xx_ll_dma.h **** #define LL_DMA_IFCR_CTEIF5                DMA_IFCR_CTEIF5       /*!< Channel 5 transfer error flag 
 173:Drivers/STM32L1xx_HAL_Driver/Inc/stm32l1xx_ll_dma.h **** #define LL_DMA_IFCR_CGIF6                 DMA_IFCR_CGIF6        /*!< Channel 6 global flag         
 174:Drivers/STM32L1xx_HAL_Driver/Inc/stm32l1xx_ll_dma.h **** #define LL_DMA_IFCR_CTCIF6                DMA_IFCR_CTCIF6       /*!< Channel 6 transfer complete fl
 175:Drivers/STM32L1xx_HAL_Driver/Inc/stm32l1xx_ll_dma.h **** #define LL_DMA_IFCR_CHTIF6                DMA_IFCR_CHTIF6       /*!< Channel 6 half transfer flag  
 176:Drivers/STM32L1xx_HAL_Driver/Inc/stm32l1xx_ll_dma.h **** #define LL_DMA_IFCR_CTEIF6                DMA_IFCR_CTEIF6       /*!< Channel 6 transfer error flag 
 177:Drivers/STM32L1xx_HAL_Driver/Inc/stm32l1xx_ll_dma.h **** #define LL_DMA_IFCR_CGIF7                 DMA_IFCR_CGIF7        /*!< Channel 7 global flag         
ARM GAS  C:\Users\domen\AppData\Local\Temp\ccqUJVhq.s 			page 22


 178:Drivers/STM32L1xx_HAL_Driver/Inc/stm32l1xx_ll_dma.h **** #define LL_DMA_IFCR_CTCIF7                DMA_IFCR_CTCIF7       /*!< Channel 7 transfer complete fl
 179:Drivers/STM32L1xx_HAL_Driver/Inc/stm32l1xx_ll_dma.h **** #define LL_DMA_IFCR_CHTIF7                DMA_IFCR_CHTIF7       /*!< Channel 7 half transfer flag  
 180:Drivers/STM32L1xx_HAL_Driver/Inc/stm32l1xx_ll_dma.h **** #define LL_DMA_IFCR_CTEIF7                DMA_IFCR_CTEIF7       /*!< Channel 7 transfer error flag 
 181:Drivers/STM32L1xx_HAL_Driver/Inc/stm32l1xx_ll_dma.h **** /**
 182:Drivers/STM32L1xx_HAL_Driver/Inc/stm32l1xx_ll_dma.h ****   * @}
 183:Drivers/STM32L1xx_HAL_Driver/Inc/stm32l1xx_ll_dma.h ****   */
 184:Drivers/STM32L1xx_HAL_Driver/Inc/stm32l1xx_ll_dma.h **** 
 185:Drivers/STM32L1xx_HAL_Driver/Inc/stm32l1xx_ll_dma.h **** /** @defgroup DMA_LL_EC_GET_FLAG Get Flags Defines
 186:Drivers/STM32L1xx_HAL_Driver/Inc/stm32l1xx_ll_dma.h ****   * @brief    Flags defines which can be used with LL_DMA_ReadReg function
 187:Drivers/STM32L1xx_HAL_Driver/Inc/stm32l1xx_ll_dma.h ****   * @{
 188:Drivers/STM32L1xx_HAL_Driver/Inc/stm32l1xx_ll_dma.h ****   */
 189:Drivers/STM32L1xx_HAL_Driver/Inc/stm32l1xx_ll_dma.h **** #define LL_DMA_ISR_GIF1                   DMA_ISR_GIF1          /*!< Channel 1 global flag         
 190:Drivers/STM32L1xx_HAL_Driver/Inc/stm32l1xx_ll_dma.h **** #define LL_DMA_ISR_TCIF1                  DMA_ISR_TCIF1         /*!< Channel 1 transfer complete fl
 191:Drivers/STM32L1xx_HAL_Driver/Inc/stm32l1xx_ll_dma.h **** #define LL_DMA_ISR_HTIF1                  DMA_ISR_HTIF1         /*!< Channel 1 half transfer flag  
 192:Drivers/STM32L1xx_HAL_Driver/Inc/stm32l1xx_ll_dma.h **** #define LL_DMA_ISR_TEIF1                  DMA_ISR_TEIF1         /*!< Channel 1 transfer error flag 
 193:Drivers/STM32L1xx_HAL_Driver/Inc/stm32l1xx_ll_dma.h **** #define LL_DMA_ISR_GIF2                   DMA_ISR_GIF2          /*!< Channel 2 global flag         
 194:Drivers/STM32L1xx_HAL_Driver/Inc/stm32l1xx_ll_dma.h **** #define LL_DMA_ISR_TCIF2                  DMA_ISR_TCIF2         /*!< Channel 2 transfer complete fl
 195:Drivers/STM32L1xx_HAL_Driver/Inc/stm32l1xx_ll_dma.h **** #define LL_DMA_ISR_HTIF2                  DMA_ISR_HTIF2         /*!< Channel 2 half transfer flag  
 196:Drivers/STM32L1xx_HAL_Driver/Inc/stm32l1xx_ll_dma.h **** #define LL_DMA_ISR_TEIF2                  DMA_ISR_TEIF2         /*!< Channel 2 transfer error flag 
 197:Drivers/STM32L1xx_HAL_Driver/Inc/stm32l1xx_ll_dma.h **** #define LL_DMA_ISR_GIF3                   DMA_ISR_GIF3          /*!< Channel 3 global flag         
 198:Drivers/STM32L1xx_HAL_Driver/Inc/stm32l1xx_ll_dma.h **** #define LL_DMA_ISR_TCIF3                  DMA_ISR_TCIF3         /*!< Channel 3 transfer complete fl
 199:Drivers/STM32L1xx_HAL_Driver/Inc/stm32l1xx_ll_dma.h **** #define LL_DMA_ISR_HTIF3                  DMA_ISR_HTIF3         /*!< Channel 3 half transfer flag  
 200:Drivers/STM32L1xx_HAL_Driver/Inc/stm32l1xx_ll_dma.h **** #define LL_DMA_ISR_TEIF3                  DMA_ISR_TEIF3         /*!< Channel 3 transfer error flag 
 201:Drivers/STM32L1xx_HAL_Driver/Inc/stm32l1xx_ll_dma.h **** #define LL_DMA_ISR_GIF4                   DMA_ISR_GIF4          /*!< Channel 4 global flag         
 202:Drivers/STM32L1xx_HAL_Driver/Inc/stm32l1xx_ll_dma.h **** #define LL_DMA_ISR_TCIF4                  DMA_ISR_TCIF4         /*!< Channel 4 transfer complete fl
 203:Drivers/STM32L1xx_HAL_Driver/Inc/stm32l1xx_ll_dma.h **** #define LL_DMA_ISR_HTIF4                  DMA_ISR_HTIF4         /*!< Channel 4 half transfer flag  
 204:Drivers/STM32L1xx_HAL_Driver/Inc/stm32l1xx_ll_dma.h **** #define LL_DMA_ISR_TEIF4                  DMA_ISR_TEIF4         /*!< Channel 4 transfer error flag 
 205:Drivers/STM32L1xx_HAL_Driver/Inc/stm32l1xx_ll_dma.h **** #define LL_DMA_ISR_GIF5                   DMA_ISR_GIF5          /*!< Channel 5 global flag         
 206:Drivers/STM32L1xx_HAL_Driver/Inc/stm32l1xx_ll_dma.h **** #define LL_DMA_ISR_TCIF5                  DMA_ISR_TCIF5         /*!< Channel 5 transfer complete fl
 207:Drivers/STM32L1xx_HAL_Driver/Inc/stm32l1xx_ll_dma.h **** #define LL_DMA_ISR_HTIF5                  DMA_ISR_HTIF5         /*!< Channel 5 half transfer flag  
 208:Drivers/STM32L1xx_HAL_Driver/Inc/stm32l1xx_ll_dma.h **** #define LL_DMA_ISR_TEIF5                  DMA_ISR_TEIF5         /*!< Channel 5 transfer error flag 
 209:Drivers/STM32L1xx_HAL_Driver/Inc/stm32l1xx_ll_dma.h **** #define LL_DMA_ISR_GIF6                   DMA_ISR_GIF6          /*!< Channel 6 global flag         
 210:Drivers/STM32L1xx_HAL_Driver/Inc/stm32l1xx_ll_dma.h **** #define LL_DMA_ISR_TCIF6                  DMA_ISR_TCIF6         /*!< Channel 6 transfer complete fl
 211:Drivers/STM32L1xx_HAL_Driver/Inc/stm32l1xx_ll_dma.h **** #define LL_DMA_ISR_HTIF6                  DMA_ISR_HTIF6         /*!< Channel 6 half transfer flag  
 212:Drivers/STM32L1xx_HAL_Driver/Inc/stm32l1xx_ll_dma.h **** #define LL_DMA_ISR_TEIF6                  DMA_ISR_TEIF6         /*!< Channel 6 transfer error flag 
 213:Drivers/STM32L1xx_HAL_Driver/Inc/stm32l1xx_ll_dma.h **** #define LL_DMA_ISR_GIF7                   DMA_ISR_GIF7          /*!< Channel 7 global flag         
 214:Drivers/STM32L1xx_HAL_Driver/Inc/stm32l1xx_ll_dma.h **** #define LL_DMA_ISR_TCIF7                  DMA_ISR_TCIF7         /*!< Channel 7 transfer complete fl
 215:Drivers/STM32L1xx_HAL_Driver/Inc/stm32l1xx_ll_dma.h **** #define LL_DMA_ISR_HTIF7                  DMA_ISR_HTIF7         /*!< Channel 7 half transfer flag  
 216:Drivers/STM32L1xx_HAL_Driver/Inc/stm32l1xx_ll_dma.h **** #define LL_DMA_ISR_TEIF7                  DMA_ISR_TEIF7         /*!< Channel 7 transfer error flag 
 217:Drivers/STM32L1xx_HAL_Driver/Inc/stm32l1xx_ll_dma.h **** /**
 218:Drivers/STM32L1xx_HAL_Driver/Inc/stm32l1xx_ll_dma.h ****   * @}
 219:Drivers/STM32L1xx_HAL_Driver/Inc/stm32l1xx_ll_dma.h ****   */
 220:Drivers/STM32L1xx_HAL_Driver/Inc/stm32l1xx_ll_dma.h **** 
 221:Drivers/STM32L1xx_HAL_Driver/Inc/stm32l1xx_ll_dma.h **** /** @defgroup DMA_LL_EC_IT IT Defines
 222:Drivers/STM32L1xx_HAL_Driver/Inc/stm32l1xx_ll_dma.h ****   * @brief    IT defines which can be used with LL_DMA_ReadReg and  LL_DMA_WriteReg functions
 223:Drivers/STM32L1xx_HAL_Driver/Inc/stm32l1xx_ll_dma.h ****   * @{
 224:Drivers/STM32L1xx_HAL_Driver/Inc/stm32l1xx_ll_dma.h ****   */
 225:Drivers/STM32L1xx_HAL_Driver/Inc/stm32l1xx_ll_dma.h **** #define LL_DMA_CCR_TCIE                   DMA_CCR_TCIE          /*!< Transfer complete interrupt */
 226:Drivers/STM32L1xx_HAL_Driver/Inc/stm32l1xx_ll_dma.h **** #define LL_DMA_CCR_HTIE                   DMA_CCR_HTIE          /*!< Half Transfer interrupt     */
 227:Drivers/STM32L1xx_HAL_Driver/Inc/stm32l1xx_ll_dma.h **** #define LL_DMA_CCR_TEIE                   DMA_CCR_TEIE          /*!< Transfer error interrupt    */
 228:Drivers/STM32L1xx_HAL_Driver/Inc/stm32l1xx_ll_dma.h **** /**
 229:Drivers/STM32L1xx_HAL_Driver/Inc/stm32l1xx_ll_dma.h ****   * @}
 230:Drivers/STM32L1xx_HAL_Driver/Inc/stm32l1xx_ll_dma.h ****   */
 231:Drivers/STM32L1xx_HAL_Driver/Inc/stm32l1xx_ll_dma.h **** 
 232:Drivers/STM32L1xx_HAL_Driver/Inc/stm32l1xx_ll_dma.h **** /** @defgroup DMA_LL_EC_CHANNEL CHANNEL
 233:Drivers/STM32L1xx_HAL_Driver/Inc/stm32l1xx_ll_dma.h ****   * @{
 234:Drivers/STM32L1xx_HAL_Driver/Inc/stm32l1xx_ll_dma.h ****   */
ARM GAS  C:\Users\domen\AppData\Local\Temp\ccqUJVhq.s 			page 23


 235:Drivers/STM32L1xx_HAL_Driver/Inc/stm32l1xx_ll_dma.h **** #define LL_DMA_CHANNEL_1                  0x00000001U /*!< DMA Channel 1 */
 236:Drivers/STM32L1xx_HAL_Driver/Inc/stm32l1xx_ll_dma.h **** #define LL_DMA_CHANNEL_2                  0x00000002U /*!< DMA Channel 2 */
 237:Drivers/STM32L1xx_HAL_Driver/Inc/stm32l1xx_ll_dma.h **** #define LL_DMA_CHANNEL_3                  0x00000003U /*!< DMA Channel 3 */
 238:Drivers/STM32L1xx_HAL_Driver/Inc/stm32l1xx_ll_dma.h **** #define LL_DMA_CHANNEL_4                  0x00000004U /*!< DMA Channel 4 */
 239:Drivers/STM32L1xx_HAL_Driver/Inc/stm32l1xx_ll_dma.h **** #define LL_DMA_CHANNEL_5                  0x00000005U /*!< DMA Channel 5 */
 240:Drivers/STM32L1xx_HAL_Driver/Inc/stm32l1xx_ll_dma.h **** #define LL_DMA_CHANNEL_6                  0x00000006U /*!< DMA Channel 6 */
 241:Drivers/STM32L1xx_HAL_Driver/Inc/stm32l1xx_ll_dma.h **** #define LL_DMA_CHANNEL_7                  0x00000007U /*!< DMA Channel 7 */
 242:Drivers/STM32L1xx_HAL_Driver/Inc/stm32l1xx_ll_dma.h **** #if defined(USE_FULL_LL_DRIVER)
 243:Drivers/STM32L1xx_HAL_Driver/Inc/stm32l1xx_ll_dma.h **** #define LL_DMA_CHANNEL_ALL                0xFFFF0000U /*!< DMA Channel all (used only for function 
 244:Drivers/STM32L1xx_HAL_Driver/Inc/stm32l1xx_ll_dma.h **** #endif /*USE_FULL_LL_DRIVER*/
 245:Drivers/STM32L1xx_HAL_Driver/Inc/stm32l1xx_ll_dma.h **** /**
 246:Drivers/STM32L1xx_HAL_Driver/Inc/stm32l1xx_ll_dma.h ****   * @}
 247:Drivers/STM32L1xx_HAL_Driver/Inc/stm32l1xx_ll_dma.h ****   */
 248:Drivers/STM32L1xx_HAL_Driver/Inc/stm32l1xx_ll_dma.h **** 
 249:Drivers/STM32L1xx_HAL_Driver/Inc/stm32l1xx_ll_dma.h **** /** @defgroup DMA_LL_EC_DIRECTION Transfer Direction
 250:Drivers/STM32L1xx_HAL_Driver/Inc/stm32l1xx_ll_dma.h ****   * @{
 251:Drivers/STM32L1xx_HAL_Driver/Inc/stm32l1xx_ll_dma.h ****   */
 252:Drivers/STM32L1xx_HAL_Driver/Inc/stm32l1xx_ll_dma.h **** #define LL_DMA_DIRECTION_PERIPH_TO_MEMORY 0x00000000U             /*!< Peripheral to memory directi
 253:Drivers/STM32L1xx_HAL_Driver/Inc/stm32l1xx_ll_dma.h **** #define LL_DMA_DIRECTION_MEMORY_TO_PERIPH DMA_CCR_DIR             /*!< Memory to peripheral directi
 254:Drivers/STM32L1xx_HAL_Driver/Inc/stm32l1xx_ll_dma.h **** #define LL_DMA_DIRECTION_MEMORY_TO_MEMORY DMA_CCR_MEM2MEM         /*!< Memory to memory direction  
 255:Drivers/STM32L1xx_HAL_Driver/Inc/stm32l1xx_ll_dma.h **** /**
 256:Drivers/STM32L1xx_HAL_Driver/Inc/stm32l1xx_ll_dma.h ****   * @}
 257:Drivers/STM32L1xx_HAL_Driver/Inc/stm32l1xx_ll_dma.h ****   */
 258:Drivers/STM32L1xx_HAL_Driver/Inc/stm32l1xx_ll_dma.h **** 
 259:Drivers/STM32L1xx_HAL_Driver/Inc/stm32l1xx_ll_dma.h **** /** @defgroup DMA_LL_EC_MODE Transfer mode
 260:Drivers/STM32L1xx_HAL_Driver/Inc/stm32l1xx_ll_dma.h ****   * @{
 261:Drivers/STM32L1xx_HAL_Driver/Inc/stm32l1xx_ll_dma.h ****   */
 262:Drivers/STM32L1xx_HAL_Driver/Inc/stm32l1xx_ll_dma.h **** #define LL_DMA_MODE_NORMAL                0x00000000U             /*!< Normal Mode                 
 263:Drivers/STM32L1xx_HAL_Driver/Inc/stm32l1xx_ll_dma.h **** #define LL_DMA_MODE_CIRCULAR              DMA_CCR_CIRC            /*!< Circular Mode               
 264:Drivers/STM32L1xx_HAL_Driver/Inc/stm32l1xx_ll_dma.h **** /**
 265:Drivers/STM32L1xx_HAL_Driver/Inc/stm32l1xx_ll_dma.h ****   * @}
 266:Drivers/STM32L1xx_HAL_Driver/Inc/stm32l1xx_ll_dma.h ****   */
 267:Drivers/STM32L1xx_HAL_Driver/Inc/stm32l1xx_ll_dma.h **** 
 268:Drivers/STM32L1xx_HAL_Driver/Inc/stm32l1xx_ll_dma.h **** /** @defgroup DMA_LL_EC_PERIPH Peripheral increment mode
 269:Drivers/STM32L1xx_HAL_Driver/Inc/stm32l1xx_ll_dma.h ****   * @{
 270:Drivers/STM32L1xx_HAL_Driver/Inc/stm32l1xx_ll_dma.h ****   */
 271:Drivers/STM32L1xx_HAL_Driver/Inc/stm32l1xx_ll_dma.h **** #define LL_DMA_PERIPH_INCREMENT           DMA_CCR_PINC            /*!< Peripheral increment mode En
 272:Drivers/STM32L1xx_HAL_Driver/Inc/stm32l1xx_ll_dma.h **** #define LL_DMA_PERIPH_NOINCREMENT         0x00000000U             /*!< Peripheral increment mode Di
 273:Drivers/STM32L1xx_HAL_Driver/Inc/stm32l1xx_ll_dma.h **** /**
 274:Drivers/STM32L1xx_HAL_Driver/Inc/stm32l1xx_ll_dma.h ****   * @}
 275:Drivers/STM32L1xx_HAL_Driver/Inc/stm32l1xx_ll_dma.h ****   */
 276:Drivers/STM32L1xx_HAL_Driver/Inc/stm32l1xx_ll_dma.h **** 
 277:Drivers/STM32L1xx_HAL_Driver/Inc/stm32l1xx_ll_dma.h **** /** @defgroup DMA_LL_EC_MEMORY Memory increment mode
 278:Drivers/STM32L1xx_HAL_Driver/Inc/stm32l1xx_ll_dma.h ****   * @{
 279:Drivers/STM32L1xx_HAL_Driver/Inc/stm32l1xx_ll_dma.h ****   */
 280:Drivers/STM32L1xx_HAL_Driver/Inc/stm32l1xx_ll_dma.h **** #define LL_DMA_MEMORY_INCREMENT           DMA_CCR_MINC            /*!< Memory increment mode Enable
 281:Drivers/STM32L1xx_HAL_Driver/Inc/stm32l1xx_ll_dma.h **** #define LL_DMA_MEMORY_NOINCREMENT         0x00000000U             /*!< Memory increment mode Disabl
 282:Drivers/STM32L1xx_HAL_Driver/Inc/stm32l1xx_ll_dma.h **** /**
 283:Drivers/STM32L1xx_HAL_Driver/Inc/stm32l1xx_ll_dma.h ****   * @}
 284:Drivers/STM32L1xx_HAL_Driver/Inc/stm32l1xx_ll_dma.h ****   */
 285:Drivers/STM32L1xx_HAL_Driver/Inc/stm32l1xx_ll_dma.h **** 
 286:Drivers/STM32L1xx_HAL_Driver/Inc/stm32l1xx_ll_dma.h **** /** @defgroup DMA_LL_EC_PDATAALIGN Peripheral data alignment
 287:Drivers/STM32L1xx_HAL_Driver/Inc/stm32l1xx_ll_dma.h ****   * @{
 288:Drivers/STM32L1xx_HAL_Driver/Inc/stm32l1xx_ll_dma.h ****   */
 289:Drivers/STM32L1xx_HAL_Driver/Inc/stm32l1xx_ll_dma.h **** #define LL_DMA_PDATAALIGN_BYTE            0x00000000U             /*!< Peripheral data alignment : 
 290:Drivers/STM32L1xx_HAL_Driver/Inc/stm32l1xx_ll_dma.h **** #define LL_DMA_PDATAALIGN_HALFWORD        DMA_CCR_PSIZE_0         /*!< Peripheral data alignment : 
 291:Drivers/STM32L1xx_HAL_Driver/Inc/stm32l1xx_ll_dma.h **** #define LL_DMA_PDATAALIGN_WORD            DMA_CCR_PSIZE_1         /*!< Peripheral data alignment : 
ARM GAS  C:\Users\domen\AppData\Local\Temp\ccqUJVhq.s 			page 24


 292:Drivers/STM32L1xx_HAL_Driver/Inc/stm32l1xx_ll_dma.h **** /**
 293:Drivers/STM32L1xx_HAL_Driver/Inc/stm32l1xx_ll_dma.h ****   * @}
 294:Drivers/STM32L1xx_HAL_Driver/Inc/stm32l1xx_ll_dma.h ****   */
 295:Drivers/STM32L1xx_HAL_Driver/Inc/stm32l1xx_ll_dma.h **** 
 296:Drivers/STM32L1xx_HAL_Driver/Inc/stm32l1xx_ll_dma.h **** /** @defgroup DMA_LL_EC_MDATAALIGN Memory data alignment
 297:Drivers/STM32L1xx_HAL_Driver/Inc/stm32l1xx_ll_dma.h ****   * @{
 298:Drivers/STM32L1xx_HAL_Driver/Inc/stm32l1xx_ll_dma.h ****   */
 299:Drivers/STM32L1xx_HAL_Driver/Inc/stm32l1xx_ll_dma.h **** #define LL_DMA_MDATAALIGN_BYTE            0x00000000U             /*!< Memory data alignment : Byte
 300:Drivers/STM32L1xx_HAL_Driver/Inc/stm32l1xx_ll_dma.h **** #define LL_DMA_MDATAALIGN_HALFWORD        DMA_CCR_MSIZE_0         /*!< Memory data alignment : Half
 301:Drivers/STM32L1xx_HAL_Driver/Inc/stm32l1xx_ll_dma.h **** #define LL_DMA_MDATAALIGN_WORD            DMA_CCR_MSIZE_1         /*!< Memory data alignment : Word
 302:Drivers/STM32L1xx_HAL_Driver/Inc/stm32l1xx_ll_dma.h **** /**
 303:Drivers/STM32L1xx_HAL_Driver/Inc/stm32l1xx_ll_dma.h ****   * @}
 304:Drivers/STM32L1xx_HAL_Driver/Inc/stm32l1xx_ll_dma.h ****   */
 305:Drivers/STM32L1xx_HAL_Driver/Inc/stm32l1xx_ll_dma.h **** 
 306:Drivers/STM32L1xx_HAL_Driver/Inc/stm32l1xx_ll_dma.h **** /** @defgroup DMA_LL_EC_PRIORITY Transfer Priority level
 307:Drivers/STM32L1xx_HAL_Driver/Inc/stm32l1xx_ll_dma.h ****   * @{
 308:Drivers/STM32L1xx_HAL_Driver/Inc/stm32l1xx_ll_dma.h ****   */
 309:Drivers/STM32L1xx_HAL_Driver/Inc/stm32l1xx_ll_dma.h **** #define LL_DMA_PRIORITY_LOW               0x00000000U             /*!< Priority level : Low       *
 310:Drivers/STM32L1xx_HAL_Driver/Inc/stm32l1xx_ll_dma.h **** #define LL_DMA_PRIORITY_MEDIUM            DMA_CCR_PL_0            /*!< Priority level : Medium    *
 311:Drivers/STM32L1xx_HAL_Driver/Inc/stm32l1xx_ll_dma.h **** #define LL_DMA_PRIORITY_HIGH              DMA_CCR_PL_1            /*!< Priority level : High      *
 312:Drivers/STM32L1xx_HAL_Driver/Inc/stm32l1xx_ll_dma.h **** #define LL_DMA_PRIORITY_VERYHIGH          DMA_CCR_PL              /*!< Priority level : Very_High *
 313:Drivers/STM32L1xx_HAL_Driver/Inc/stm32l1xx_ll_dma.h **** /**
 314:Drivers/STM32L1xx_HAL_Driver/Inc/stm32l1xx_ll_dma.h ****   * @}
 315:Drivers/STM32L1xx_HAL_Driver/Inc/stm32l1xx_ll_dma.h ****   */
 316:Drivers/STM32L1xx_HAL_Driver/Inc/stm32l1xx_ll_dma.h **** 
 317:Drivers/STM32L1xx_HAL_Driver/Inc/stm32l1xx_ll_dma.h **** 
 318:Drivers/STM32L1xx_HAL_Driver/Inc/stm32l1xx_ll_dma.h **** /**
 319:Drivers/STM32L1xx_HAL_Driver/Inc/stm32l1xx_ll_dma.h ****   * @}
 320:Drivers/STM32L1xx_HAL_Driver/Inc/stm32l1xx_ll_dma.h ****   */
 321:Drivers/STM32L1xx_HAL_Driver/Inc/stm32l1xx_ll_dma.h **** 
 322:Drivers/STM32L1xx_HAL_Driver/Inc/stm32l1xx_ll_dma.h **** /* Exported macro ------------------------------------------------------------*/
 323:Drivers/STM32L1xx_HAL_Driver/Inc/stm32l1xx_ll_dma.h **** /** @defgroup DMA_LL_Exported_Macros DMA Exported Macros
 324:Drivers/STM32L1xx_HAL_Driver/Inc/stm32l1xx_ll_dma.h ****   * @{
 325:Drivers/STM32L1xx_HAL_Driver/Inc/stm32l1xx_ll_dma.h ****   */
 326:Drivers/STM32L1xx_HAL_Driver/Inc/stm32l1xx_ll_dma.h **** 
 327:Drivers/STM32L1xx_HAL_Driver/Inc/stm32l1xx_ll_dma.h **** /** @defgroup DMA_LL_EM_WRITE_READ Common Write and read registers macros
 328:Drivers/STM32L1xx_HAL_Driver/Inc/stm32l1xx_ll_dma.h ****   * @{
 329:Drivers/STM32L1xx_HAL_Driver/Inc/stm32l1xx_ll_dma.h ****   */
 330:Drivers/STM32L1xx_HAL_Driver/Inc/stm32l1xx_ll_dma.h **** /**
 331:Drivers/STM32L1xx_HAL_Driver/Inc/stm32l1xx_ll_dma.h ****   * @brief  Write a value in DMA register
 332:Drivers/STM32L1xx_HAL_Driver/Inc/stm32l1xx_ll_dma.h ****   * @param  __INSTANCE__ DMA Instance
 333:Drivers/STM32L1xx_HAL_Driver/Inc/stm32l1xx_ll_dma.h ****   * @param  __REG__ Register to be written
 334:Drivers/STM32L1xx_HAL_Driver/Inc/stm32l1xx_ll_dma.h ****   * @param  __VALUE__ Value to be written in the register
 335:Drivers/STM32L1xx_HAL_Driver/Inc/stm32l1xx_ll_dma.h ****   * @retval None
 336:Drivers/STM32L1xx_HAL_Driver/Inc/stm32l1xx_ll_dma.h ****   */
 337:Drivers/STM32L1xx_HAL_Driver/Inc/stm32l1xx_ll_dma.h **** #define LL_DMA_WriteReg(__INSTANCE__, __REG__, __VALUE__) WRITE_REG(__INSTANCE__->__REG__, (__VALUE
 338:Drivers/STM32L1xx_HAL_Driver/Inc/stm32l1xx_ll_dma.h **** 
 339:Drivers/STM32L1xx_HAL_Driver/Inc/stm32l1xx_ll_dma.h **** /**
 340:Drivers/STM32L1xx_HAL_Driver/Inc/stm32l1xx_ll_dma.h ****   * @brief  Read a value in DMA register
 341:Drivers/STM32L1xx_HAL_Driver/Inc/stm32l1xx_ll_dma.h ****   * @param  __INSTANCE__ DMA Instance
 342:Drivers/STM32L1xx_HAL_Driver/Inc/stm32l1xx_ll_dma.h ****   * @param  __REG__ Register to be read
 343:Drivers/STM32L1xx_HAL_Driver/Inc/stm32l1xx_ll_dma.h ****   * @retval Register value
 344:Drivers/STM32L1xx_HAL_Driver/Inc/stm32l1xx_ll_dma.h ****   */
 345:Drivers/STM32L1xx_HAL_Driver/Inc/stm32l1xx_ll_dma.h **** #define LL_DMA_ReadReg(__INSTANCE__, __REG__) READ_REG(__INSTANCE__->__REG__)
 346:Drivers/STM32L1xx_HAL_Driver/Inc/stm32l1xx_ll_dma.h **** /**
 347:Drivers/STM32L1xx_HAL_Driver/Inc/stm32l1xx_ll_dma.h ****   * @}
 348:Drivers/STM32L1xx_HAL_Driver/Inc/stm32l1xx_ll_dma.h ****   */
ARM GAS  C:\Users\domen\AppData\Local\Temp\ccqUJVhq.s 			page 25


 349:Drivers/STM32L1xx_HAL_Driver/Inc/stm32l1xx_ll_dma.h **** 
 350:Drivers/STM32L1xx_HAL_Driver/Inc/stm32l1xx_ll_dma.h **** /** @defgroup DMA_LL_EM_CONVERT_DMAxCHANNELy Convert DMAxChannely
 351:Drivers/STM32L1xx_HAL_Driver/Inc/stm32l1xx_ll_dma.h ****   * @{
 352:Drivers/STM32L1xx_HAL_Driver/Inc/stm32l1xx_ll_dma.h ****   */
 353:Drivers/STM32L1xx_HAL_Driver/Inc/stm32l1xx_ll_dma.h **** /**
 354:Drivers/STM32L1xx_HAL_Driver/Inc/stm32l1xx_ll_dma.h ****   * @brief  Convert DMAx_Channely into DMAx
 355:Drivers/STM32L1xx_HAL_Driver/Inc/stm32l1xx_ll_dma.h ****   * @param  __CHANNEL_INSTANCE__ DMAx_Channely
 356:Drivers/STM32L1xx_HAL_Driver/Inc/stm32l1xx_ll_dma.h ****   * @retval DMAx
 357:Drivers/STM32L1xx_HAL_Driver/Inc/stm32l1xx_ll_dma.h ****   */
 358:Drivers/STM32L1xx_HAL_Driver/Inc/stm32l1xx_ll_dma.h **** #if defined(DMA2)
 359:Drivers/STM32L1xx_HAL_Driver/Inc/stm32l1xx_ll_dma.h **** #define __LL_DMA_GET_INSTANCE(__CHANNEL_INSTANCE__)   \
 360:Drivers/STM32L1xx_HAL_Driver/Inc/stm32l1xx_ll_dma.h **** (((uint32_t)(__CHANNEL_INSTANCE__) > ((uint32_t)DMA1_Channel7)) ?  DMA2 : DMA1)
 361:Drivers/STM32L1xx_HAL_Driver/Inc/stm32l1xx_ll_dma.h **** #else
 362:Drivers/STM32L1xx_HAL_Driver/Inc/stm32l1xx_ll_dma.h **** #define __LL_DMA_GET_INSTANCE(__CHANNEL_INSTANCE__)  (DMA1)
 363:Drivers/STM32L1xx_HAL_Driver/Inc/stm32l1xx_ll_dma.h **** #endif
 364:Drivers/STM32L1xx_HAL_Driver/Inc/stm32l1xx_ll_dma.h **** 
 365:Drivers/STM32L1xx_HAL_Driver/Inc/stm32l1xx_ll_dma.h **** /**
 366:Drivers/STM32L1xx_HAL_Driver/Inc/stm32l1xx_ll_dma.h ****   * @brief  Convert DMAx_Channely into LL_DMA_CHANNEL_y
 367:Drivers/STM32L1xx_HAL_Driver/Inc/stm32l1xx_ll_dma.h ****   * @param  __CHANNEL_INSTANCE__ DMAx_Channely
 368:Drivers/STM32L1xx_HAL_Driver/Inc/stm32l1xx_ll_dma.h ****   * @retval LL_DMA_CHANNEL_y
 369:Drivers/STM32L1xx_HAL_Driver/Inc/stm32l1xx_ll_dma.h ****   */
 370:Drivers/STM32L1xx_HAL_Driver/Inc/stm32l1xx_ll_dma.h **** #if defined (DMA2)
 371:Drivers/STM32L1xx_HAL_Driver/Inc/stm32l1xx_ll_dma.h **** #if defined (DMA2_Channel6) && defined (DMA2_Channel7)
 372:Drivers/STM32L1xx_HAL_Driver/Inc/stm32l1xx_ll_dma.h **** #define __LL_DMA_GET_CHANNEL(__CHANNEL_INSTANCE__)   \
 373:Drivers/STM32L1xx_HAL_Driver/Inc/stm32l1xx_ll_dma.h **** (((uint32_t)(__CHANNEL_INSTANCE__) == ((uint32_t)DMA1_Channel1)) ? LL_DMA_CHANNEL_1 : \
 374:Drivers/STM32L1xx_HAL_Driver/Inc/stm32l1xx_ll_dma.h ****  ((uint32_t)(__CHANNEL_INSTANCE__) == ((uint32_t)DMA2_Channel1)) ? LL_DMA_CHANNEL_1 : \
 375:Drivers/STM32L1xx_HAL_Driver/Inc/stm32l1xx_ll_dma.h ****  ((uint32_t)(__CHANNEL_INSTANCE__) == ((uint32_t)DMA1_Channel2)) ? LL_DMA_CHANNEL_2 : \
 376:Drivers/STM32L1xx_HAL_Driver/Inc/stm32l1xx_ll_dma.h ****  ((uint32_t)(__CHANNEL_INSTANCE__) == ((uint32_t)DMA2_Channel2)) ? LL_DMA_CHANNEL_2 : \
 377:Drivers/STM32L1xx_HAL_Driver/Inc/stm32l1xx_ll_dma.h ****  ((uint32_t)(__CHANNEL_INSTANCE__) == ((uint32_t)DMA1_Channel3)) ? LL_DMA_CHANNEL_3 : \
 378:Drivers/STM32L1xx_HAL_Driver/Inc/stm32l1xx_ll_dma.h ****  ((uint32_t)(__CHANNEL_INSTANCE__) == ((uint32_t)DMA2_Channel3)) ? LL_DMA_CHANNEL_3 : \
 379:Drivers/STM32L1xx_HAL_Driver/Inc/stm32l1xx_ll_dma.h ****  ((uint32_t)(__CHANNEL_INSTANCE__) == ((uint32_t)DMA1_Channel4)) ? LL_DMA_CHANNEL_4 : \
 380:Drivers/STM32L1xx_HAL_Driver/Inc/stm32l1xx_ll_dma.h ****  ((uint32_t)(__CHANNEL_INSTANCE__) == ((uint32_t)DMA2_Channel4)) ? LL_DMA_CHANNEL_4 : \
 381:Drivers/STM32L1xx_HAL_Driver/Inc/stm32l1xx_ll_dma.h ****  ((uint32_t)(__CHANNEL_INSTANCE__) == ((uint32_t)DMA1_Channel5)) ? LL_DMA_CHANNEL_5 : \
 382:Drivers/STM32L1xx_HAL_Driver/Inc/stm32l1xx_ll_dma.h ****  ((uint32_t)(__CHANNEL_INSTANCE__) == ((uint32_t)DMA2_Channel5)) ? LL_DMA_CHANNEL_5 : \
 383:Drivers/STM32L1xx_HAL_Driver/Inc/stm32l1xx_ll_dma.h ****  ((uint32_t)(__CHANNEL_INSTANCE__) == ((uint32_t)DMA1_Channel6)) ? LL_DMA_CHANNEL_6 : \
 384:Drivers/STM32L1xx_HAL_Driver/Inc/stm32l1xx_ll_dma.h ****  ((uint32_t)(__CHANNEL_INSTANCE__) == ((uint32_t)DMA2_Channel6)) ? LL_DMA_CHANNEL_6 : \
 385:Drivers/STM32L1xx_HAL_Driver/Inc/stm32l1xx_ll_dma.h ****  LL_DMA_CHANNEL_7)
 386:Drivers/STM32L1xx_HAL_Driver/Inc/stm32l1xx_ll_dma.h **** #else
 387:Drivers/STM32L1xx_HAL_Driver/Inc/stm32l1xx_ll_dma.h **** #define __LL_DMA_GET_CHANNEL(__CHANNEL_INSTANCE__)   \
 388:Drivers/STM32L1xx_HAL_Driver/Inc/stm32l1xx_ll_dma.h **** (((uint32_t)(__CHANNEL_INSTANCE__) == ((uint32_t)DMA1_Channel1)) ? LL_DMA_CHANNEL_1 : \
 389:Drivers/STM32L1xx_HAL_Driver/Inc/stm32l1xx_ll_dma.h ****  ((uint32_t)(__CHANNEL_INSTANCE__) == ((uint32_t)DMA2_Channel1)) ? LL_DMA_CHANNEL_1 : \
 390:Drivers/STM32L1xx_HAL_Driver/Inc/stm32l1xx_ll_dma.h ****  ((uint32_t)(__CHANNEL_INSTANCE__) == ((uint32_t)DMA1_Channel2)) ? LL_DMA_CHANNEL_2 : \
 391:Drivers/STM32L1xx_HAL_Driver/Inc/stm32l1xx_ll_dma.h ****  ((uint32_t)(__CHANNEL_INSTANCE__) == ((uint32_t)DMA2_Channel2)) ? LL_DMA_CHANNEL_2 : \
 392:Drivers/STM32L1xx_HAL_Driver/Inc/stm32l1xx_ll_dma.h ****  ((uint32_t)(__CHANNEL_INSTANCE__) == ((uint32_t)DMA1_Channel3)) ? LL_DMA_CHANNEL_3 : \
 393:Drivers/STM32L1xx_HAL_Driver/Inc/stm32l1xx_ll_dma.h ****  ((uint32_t)(__CHANNEL_INSTANCE__) == ((uint32_t)DMA2_Channel3)) ? LL_DMA_CHANNEL_3 : \
 394:Drivers/STM32L1xx_HAL_Driver/Inc/stm32l1xx_ll_dma.h ****  ((uint32_t)(__CHANNEL_INSTANCE__) == ((uint32_t)DMA1_Channel4)) ? LL_DMA_CHANNEL_4 : \
 395:Drivers/STM32L1xx_HAL_Driver/Inc/stm32l1xx_ll_dma.h ****  ((uint32_t)(__CHANNEL_INSTANCE__) == ((uint32_t)DMA2_Channel4)) ? LL_DMA_CHANNEL_4 : \
 396:Drivers/STM32L1xx_HAL_Driver/Inc/stm32l1xx_ll_dma.h ****  ((uint32_t)(__CHANNEL_INSTANCE__) == ((uint32_t)DMA1_Channel5)) ? LL_DMA_CHANNEL_5 : \
 397:Drivers/STM32L1xx_HAL_Driver/Inc/stm32l1xx_ll_dma.h ****  ((uint32_t)(__CHANNEL_INSTANCE__) == ((uint32_t)DMA2_Channel5)) ? LL_DMA_CHANNEL_5 : \
 398:Drivers/STM32L1xx_HAL_Driver/Inc/stm32l1xx_ll_dma.h ****  ((uint32_t)(__CHANNEL_INSTANCE__) == ((uint32_t)DMA1_Channel6)) ? LL_DMA_CHANNEL_6 : \
 399:Drivers/STM32L1xx_HAL_Driver/Inc/stm32l1xx_ll_dma.h ****  LL_DMA_CHANNEL_7)
 400:Drivers/STM32L1xx_HAL_Driver/Inc/stm32l1xx_ll_dma.h **** #endif
 401:Drivers/STM32L1xx_HAL_Driver/Inc/stm32l1xx_ll_dma.h **** #else
 402:Drivers/STM32L1xx_HAL_Driver/Inc/stm32l1xx_ll_dma.h **** #define __LL_DMA_GET_CHANNEL(__CHANNEL_INSTANCE__)   \
 403:Drivers/STM32L1xx_HAL_Driver/Inc/stm32l1xx_ll_dma.h **** (((uint32_t)(__CHANNEL_INSTANCE__) == ((uint32_t)DMA1_Channel1)) ? LL_DMA_CHANNEL_1 : \
 404:Drivers/STM32L1xx_HAL_Driver/Inc/stm32l1xx_ll_dma.h ****  ((uint32_t)(__CHANNEL_INSTANCE__) == ((uint32_t)DMA1_Channel2)) ? LL_DMA_CHANNEL_2 : \
 405:Drivers/STM32L1xx_HAL_Driver/Inc/stm32l1xx_ll_dma.h ****  ((uint32_t)(__CHANNEL_INSTANCE__) == ((uint32_t)DMA1_Channel3)) ? LL_DMA_CHANNEL_3 : \
ARM GAS  C:\Users\domen\AppData\Local\Temp\ccqUJVhq.s 			page 26


 406:Drivers/STM32L1xx_HAL_Driver/Inc/stm32l1xx_ll_dma.h ****  ((uint32_t)(__CHANNEL_INSTANCE__) == ((uint32_t)DMA1_Channel4)) ? LL_DMA_CHANNEL_4 : \
 407:Drivers/STM32L1xx_HAL_Driver/Inc/stm32l1xx_ll_dma.h ****  ((uint32_t)(__CHANNEL_INSTANCE__) == ((uint32_t)DMA1_Channel5)) ? LL_DMA_CHANNEL_5 : \
 408:Drivers/STM32L1xx_HAL_Driver/Inc/stm32l1xx_ll_dma.h ****  ((uint32_t)(__CHANNEL_INSTANCE__) == ((uint32_t)DMA1_Channel6)) ? LL_DMA_CHANNEL_6 : \
 409:Drivers/STM32L1xx_HAL_Driver/Inc/stm32l1xx_ll_dma.h ****  LL_DMA_CHANNEL_7)
 410:Drivers/STM32L1xx_HAL_Driver/Inc/stm32l1xx_ll_dma.h **** #endif
 411:Drivers/STM32L1xx_HAL_Driver/Inc/stm32l1xx_ll_dma.h **** 
 412:Drivers/STM32L1xx_HAL_Driver/Inc/stm32l1xx_ll_dma.h **** /**
 413:Drivers/STM32L1xx_HAL_Driver/Inc/stm32l1xx_ll_dma.h ****   * @brief  Convert DMA Instance DMAx and LL_DMA_CHANNEL_y into DMAx_Channely
 414:Drivers/STM32L1xx_HAL_Driver/Inc/stm32l1xx_ll_dma.h ****   * @param  __DMA_INSTANCE__ DMAx
 415:Drivers/STM32L1xx_HAL_Driver/Inc/stm32l1xx_ll_dma.h ****   * @param  __CHANNEL__ LL_DMA_CHANNEL_y
 416:Drivers/STM32L1xx_HAL_Driver/Inc/stm32l1xx_ll_dma.h ****   * @retval DMAx_Channely
 417:Drivers/STM32L1xx_HAL_Driver/Inc/stm32l1xx_ll_dma.h ****   */
 418:Drivers/STM32L1xx_HAL_Driver/Inc/stm32l1xx_ll_dma.h **** #if defined (DMA2)
 419:Drivers/STM32L1xx_HAL_Driver/Inc/stm32l1xx_ll_dma.h **** #if defined (DMA2_Channel6) && defined (DMA2_Channel7)
 420:Drivers/STM32L1xx_HAL_Driver/Inc/stm32l1xx_ll_dma.h **** #define __LL_DMA_GET_CHANNEL_INSTANCE(__DMA_INSTANCE__, __CHANNEL__)   \
 421:Drivers/STM32L1xx_HAL_Driver/Inc/stm32l1xx_ll_dma.h **** ((((uint32_t)(__DMA_INSTANCE__) == ((uint32_t)DMA1)) && ((uint32_t)(__CHANNEL__) == ((uint32_t)LL_D
 422:Drivers/STM32L1xx_HAL_Driver/Inc/stm32l1xx_ll_dma.h ****  (((uint32_t)(__DMA_INSTANCE__) == ((uint32_t)DMA2)) && ((uint32_t)(__CHANNEL__) == ((uint32_t)LL_D
 423:Drivers/STM32L1xx_HAL_Driver/Inc/stm32l1xx_ll_dma.h ****  (((uint32_t)(__DMA_INSTANCE__) == ((uint32_t)DMA1)) && ((uint32_t)(__CHANNEL__) == ((uint32_t)LL_D
 424:Drivers/STM32L1xx_HAL_Driver/Inc/stm32l1xx_ll_dma.h ****  (((uint32_t)(__DMA_INSTANCE__) == ((uint32_t)DMA2)) && ((uint32_t)(__CHANNEL__) == ((uint32_t)LL_D
 425:Drivers/STM32L1xx_HAL_Driver/Inc/stm32l1xx_ll_dma.h ****  (((uint32_t)(__DMA_INSTANCE__) == ((uint32_t)DMA1)) && ((uint32_t)(__CHANNEL__) == ((uint32_t)LL_D
 426:Drivers/STM32L1xx_HAL_Driver/Inc/stm32l1xx_ll_dma.h ****  (((uint32_t)(__DMA_INSTANCE__) == ((uint32_t)DMA2)) && ((uint32_t)(__CHANNEL__) == ((uint32_t)LL_D
 427:Drivers/STM32L1xx_HAL_Driver/Inc/stm32l1xx_ll_dma.h ****  (((uint32_t)(__DMA_INSTANCE__) == ((uint32_t)DMA1)) && ((uint32_t)(__CHANNEL__) == ((uint32_t)LL_D
 428:Drivers/STM32L1xx_HAL_Driver/Inc/stm32l1xx_ll_dma.h ****  (((uint32_t)(__DMA_INSTANCE__) == ((uint32_t)DMA2)) && ((uint32_t)(__CHANNEL__) == ((uint32_t)LL_D
 429:Drivers/STM32L1xx_HAL_Driver/Inc/stm32l1xx_ll_dma.h ****  (((uint32_t)(__DMA_INSTANCE__) == ((uint32_t)DMA1)) && ((uint32_t)(__CHANNEL__) == ((uint32_t)LL_D
 430:Drivers/STM32L1xx_HAL_Driver/Inc/stm32l1xx_ll_dma.h ****  (((uint32_t)(__DMA_INSTANCE__) == ((uint32_t)DMA2)) && ((uint32_t)(__CHANNEL__) == ((uint32_t)LL_D
 431:Drivers/STM32L1xx_HAL_Driver/Inc/stm32l1xx_ll_dma.h ****  (((uint32_t)(__DMA_INSTANCE__) == ((uint32_t)DMA1)) && ((uint32_t)(__CHANNEL__) == ((uint32_t)LL_D
 432:Drivers/STM32L1xx_HAL_Driver/Inc/stm32l1xx_ll_dma.h ****  (((uint32_t)(__DMA_INSTANCE__) == ((uint32_t)DMA2)) && ((uint32_t)(__CHANNEL__) == ((uint32_t)LL_D
 433:Drivers/STM32L1xx_HAL_Driver/Inc/stm32l1xx_ll_dma.h ****  (((uint32_t)(__DMA_INSTANCE__) == ((uint32_t)DMA1)) && ((uint32_t)(__CHANNEL__) == ((uint32_t)LL_D
 434:Drivers/STM32L1xx_HAL_Driver/Inc/stm32l1xx_ll_dma.h ****  DMA2_Channel7)
 435:Drivers/STM32L1xx_HAL_Driver/Inc/stm32l1xx_ll_dma.h **** #else
 436:Drivers/STM32L1xx_HAL_Driver/Inc/stm32l1xx_ll_dma.h **** #define __LL_DMA_GET_CHANNEL_INSTANCE(__DMA_INSTANCE__, __CHANNEL__)   \
 437:Drivers/STM32L1xx_HAL_Driver/Inc/stm32l1xx_ll_dma.h **** ((((uint32_t)(__DMA_INSTANCE__) == ((uint32_t)DMA1)) && ((uint32_t)(__CHANNEL__) == ((uint32_t)LL_D
 438:Drivers/STM32L1xx_HAL_Driver/Inc/stm32l1xx_ll_dma.h ****  (((uint32_t)(__DMA_INSTANCE__) == ((uint32_t)DMA2)) && ((uint32_t)(__CHANNEL__) == ((uint32_t)LL_D
 439:Drivers/STM32L1xx_HAL_Driver/Inc/stm32l1xx_ll_dma.h ****  (((uint32_t)(__DMA_INSTANCE__) == ((uint32_t)DMA1)) && ((uint32_t)(__CHANNEL__) == ((uint32_t)LL_D
 440:Drivers/STM32L1xx_HAL_Driver/Inc/stm32l1xx_ll_dma.h ****  (((uint32_t)(__DMA_INSTANCE__) == ((uint32_t)DMA2)) && ((uint32_t)(__CHANNEL__) == ((uint32_t)LL_D
 441:Drivers/STM32L1xx_HAL_Driver/Inc/stm32l1xx_ll_dma.h ****  (((uint32_t)(__DMA_INSTANCE__) == ((uint32_t)DMA1)) && ((uint32_t)(__CHANNEL__) == ((uint32_t)LL_D
 442:Drivers/STM32L1xx_HAL_Driver/Inc/stm32l1xx_ll_dma.h ****  (((uint32_t)(__DMA_INSTANCE__) == ((uint32_t)DMA2)) && ((uint32_t)(__CHANNEL__) == ((uint32_t)LL_D
 443:Drivers/STM32L1xx_HAL_Driver/Inc/stm32l1xx_ll_dma.h ****  (((uint32_t)(__DMA_INSTANCE__) == ((uint32_t)DMA1)) && ((uint32_t)(__CHANNEL__) == ((uint32_t)LL_D
 444:Drivers/STM32L1xx_HAL_Driver/Inc/stm32l1xx_ll_dma.h ****  (((uint32_t)(__DMA_INSTANCE__) == ((uint32_t)DMA2)) && ((uint32_t)(__CHANNEL__) == ((uint32_t)LL_D
 445:Drivers/STM32L1xx_HAL_Driver/Inc/stm32l1xx_ll_dma.h ****  (((uint32_t)(__DMA_INSTANCE__) == ((uint32_t)DMA1)) && ((uint32_t)(__CHANNEL__) == ((uint32_t)LL_D
 446:Drivers/STM32L1xx_HAL_Driver/Inc/stm32l1xx_ll_dma.h ****  (((uint32_t)(__DMA_INSTANCE__) == ((uint32_t)DMA2)) && ((uint32_t)(__CHANNEL__) == ((uint32_t)LL_D
 447:Drivers/STM32L1xx_HAL_Driver/Inc/stm32l1xx_ll_dma.h ****  (((uint32_t)(__DMA_INSTANCE__) == ((uint32_t)DMA1)) && ((uint32_t)(__CHANNEL__) == ((uint32_t)LL_D
 448:Drivers/STM32L1xx_HAL_Driver/Inc/stm32l1xx_ll_dma.h ****  DMA1_Channel7)
 449:Drivers/STM32L1xx_HAL_Driver/Inc/stm32l1xx_ll_dma.h **** #endif
 450:Drivers/STM32L1xx_HAL_Driver/Inc/stm32l1xx_ll_dma.h **** #else
 451:Drivers/STM32L1xx_HAL_Driver/Inc/stm32l1xx_ll_dma.h **** #define __LL_DMA_GET_CHANNEL_INSTANCE(__DMA_INSTANCE__, __CHANNEL__)   \
 452:Drivers/STM32L1xx_HAL_Driver/Inc/stm32l1xx_ll_dma.h **** ((((uint32_t)(__DMA_INSTANCE__) == ((uint32_t)DMA1)) && ((uint32_t)(__CHANNEL__) == ((uint32_t)LL_D
 453:Drivers/STM32L1xx_HAL_Driver/Inc/stm32l1xx_ll_dma.h ****  (((uint32_t)(__DMA_INSTANCE__) == ((uint32_t)DMA1)) && ((uint32_t)(__CHANNEL__) == ((uint32_t)LL_D
 454:Drivers/STM32L1xx_HAL_Driver/Inc/stm32l1xx_ll_dma.h ****  (((uint32_t)(__DMA_INSTANCE__) == ((uint32_t)DMA1)) && ((uint32_t)(__CHANNEL__) == ((uint32_t)LL_D
 455:Drivers/STM32L1xx_HAL_Driver/Inc/stm32l1xx_ll_dma.h ****  (((uint32_t)(__DMA_INSTANCE__) == ((uint32_t)DMA1)) && ((uint32_t)(__CHANNEL__) == ((uint32_t)LL_D
 456:Drivers/STM32L1xx_HAL_Driver/Inc/stm32l1xx_ll_dma.h ****  (((uint32_t)(__DMA_INSTANCE__) == ((uint32_t)DMA1)) && ((uint32_t)(__CHANNEL__) == ((uint32_t)LL_D
 457:Drivers/STM32L1xx_HAL_Driver/Inc/stm32l1xx_ll_dma.h ****  (((uint32_t)(__DMA_INSTANCE__) == ((uint32_t)DMA1)) && ((uint32_t)(__CHANNEL__) == ((uint32_t)LL_D
 458:Drivers/STM32L1xx_HAL_Driver/Inc/stm32l1xx_ll_dma.h ****  DMA1_Channel7)
 459:Drivers/STM32L1xx_HAL_Driver/Inc/stm32l1xx_ll_dma.h **** #endif
 460:Drivers/STM32L1xx_HAL_Driver/Inc/stm32l1xx_ll_dma.h **** 
 461:Drivers/STM32L1xx_HAL_Driver/Inc/stm32l1xx_ll_dma.h **** /**
 462:Drivers/STM32L1xx_HAL_Driver/Inc/stm32l1xx_ll_dma.h ****   * @}
ARM GAS  C:\Users\domen\AppData\Local\Temp\ccqUJVhq.s 			page 27


 463:Drivers/STM32L1xx_HAL_Driver/Inc/stm32l1xx_ll_dma.h ****   */
 464:Drivers/STM32L1xx_HAL_Driver/Inc/stm32l1xx_ll_dma.h **** 
 465:Drivers/STM32L1xx_HAL_Driver/Inc/stm32l1xx_ll_dma.h **** /**
 466:Drivers/STM32L1xx_HAL_Driver/Inc/stm32l1xx_ll_dma.h ****   * @}
 467:Drivers/STM32L1xx_HAL_Driver/Inc/stm32l1xx_ll_dma.h ****   */
 468:Drivers/STM32L1xx_HAL_Driver/Inc/stm32l1xx_ll_dma.h **** 
 469:Drivers/STM32L1xx_HAL_Driver/Inc/stm32l1xx_ll_dma.h **** /* Exported functions --------------------------------------------------------*/
 470:Drivers/STM32L1xx_HAL_Driver/Inc/stm32l1xx_ll_dma.h **** /** @defgroup DMA_LL_Exported_Functions DMA Exported Functions
 471:Drivers/STM32L1xx_HAL_Driver/Inc/stm32l1xx_ll_dma.h ****  * @{
 472:Drivers/STM32L1xx_HAL_Driver/Inc/stm32l1xx_ll_dma.h ****  */
 473:Drivers/STM32L1xx_HAL_Driver/Inc/stm32l1xx_ll_dma.h **** 
 474:Drivers/STM32L1xx_HAL_Driver/Inc/stm32l1xx_ll_dma.h **** /** @defgroup DMA_LL_EF_Configuration Configuration
 475:Drivers/STM32L1xx_HAL_Driver/Inc/stm32l1xx_ll_dma.h ****   * @{
 476:Drivers/STM32L1xx_HAL_Driver/Inc/stm32l1xx_ll_dma.h ****   */
 477:Drivers/STM32L1xx_HAL_Driver/Inc/stm32l1xx_ll_dma.h **** /**
 478:Drivers/STM32L1xx_HAL_Driver/Inc/stm32l1xx_ll_dma.h ****   * @brief  Enable DMA channel.
 479:Drivers/STM32L1xx_HAL_Driver/Inc/stm32l1xx_ll_dma.h ****   * @rmtoll CCR          EN            LL_DMA_EnableChannel
 480:Drivers/STM32L1xx_HAL_Driver/Inc/stm32l1xx_ll_dma.h ****   * @param  DMAx DMAx Instance
 481:Drivers/STM32L1xx_HAL_Driver/Inc/stm32l1xx_ll_dma.h ****   * @param  Channel This parameter can be one of the following values:
 482:Drivers/STM32L1xx_HAL_Driver/Inc/stm32l1xx_ll_dma.h ****   *         @arg @ref LL_DMA_CHANNEL_1
 483:Drivers/STM32L1xx_HAL_Driver/Inc/stm32l1xx_ll_dma.h ****   *         @arg @ref LL_DMA_CHANNEL_2
 484:Drivers/STM32L1xx_HAL_Driver/Inc/stm32l1xx_ll_dma.h ****   *         @arg @ref LL_DMA_CHANNEL_3
 485:Drivers/STM32L1xx_HAL_Driver/Inc/stm32l1xx_ll_dma.h ****   *         @arg @ref LL_DMA_CHANNEL_4
 486:Drivers/STM32L1xx_HAL_Driver/Inc/stm32l1xx_ll_dma.h ****   *         @arg @ref LL_DMA_CHANNEL_5
 487:Drivers/STM32L1xx_HAL_Driver/Inc/stm32l1xx_ll_dma.h ****   *         @arg @ref LL_DMA_CHANNEL_6
 488:Drivers/STM32L1xx_HAL_Driver/Inc/stm32l1xx_ll_dma.h ****   *         @arg @ref LL_DMA_CHANNEL_7
 489:Drivers/STM32L1xx_HAL_Driver/Inc/stm32l1xx_ll_dma.h ****   * @retval None
 490:Drivers/STM32L1xx_HAL_Driver/Inc/stm32l1xx_ll_dma.h ****   */
 491:Drivers/STM32L1xx_HAL_Driver/Inc/stm32l1xx_ll_dma.h **** __STATIC_INLINE void LL_DMA_EnableChannel(DMA_TypeDef *DMAx, uint32_t Channel)
 492:Drivers/STM32L1xx_HAL_Driver/Inc/stm32l1xx_ll_dma.h **** {
 493:Drivers/STM32L1xx_HAL_Driver/Inc/stm32l1xx_ll_dma.h ****   SET_BIT(((DMA_Channel_TypeDef *)((uint32_t)((uint32_t)DMAx + CHANNEL_OFFSET_TAB[Channel - 1U])))-
 494:Drivers/STM32L1xx_HAL_Driver/Inc/stm32l1xx_ll_dma.h **** }
 495:Drivers/STM32L1xx_HAL_Driver/Inc/stm32l1xx_ll_dma.h **** 
 496:Drivers/STM32L1xx_HAL_Driver/Inc/stm32l1xx_ll_dma.h **** /**
 497:Drivers/STM32L1xx_HAL_Driver/Inc/stm32l1xx_ll_dma.h ****   * @brief  Disable DMA channel.
 498:Drivers/STM32L1xx_HAL_Driver/Inc/stm32l1xx_ll_dma.h ****   * @rmtoll CCR          EN            LL_DMA_DisableChannel
 499:Drivers/STM32L1xx_HAL_Driver/Inc/stm32l1xx_ll_dma.h ****   * @param  DMAx DMAx Instance
 500:Drivers/STM32L1xx_HAL_Driver/Inc/stm32l1xx_ll_dma.h ****   * @param  Channel This parameter can be one of the following values:
 501:Drivers/STM32L1xx_HAL_Driver/Inc/stm32l1xx_ll_dma.h ****   *         @arg @ref LL_DMA_CHANNEL_1
 502:Drivers/STM32L1xx_HAL_Driver/Inc/stm32l1xx_ll_dma.h ****   *         @arg @ref LL_DMA_CHANNEL_2
 503:Drivers/STM32L1xx_HAL_Driver/Inc/stm32l1xx_ll_dma.h ****   *         @arg @ref LL_DMA_CHANNEL_3
 504:Drivers/STM32L1xx_HAL_Driver/Inc/stm32l1xx_ll_dma.h ****   *         @arg @ref LL_DMA_CHANNEL_4
 505:Drivers/STM32L1xx_HAL_Driver/Inc/stm32l1xx_ll_dma.h ****   *         @arg @ref LL_DMA_CHANNEL_5
 506:Drivers/STM32L1xx_HAL_Driver/Inc/stm32l1xx_ll_dma.h ****   *         @arg @ref LL_DMA_CHANNEL_6
 507:Drivers/STM32L1xx_HAL_Driver/Inc/stm32l1xx_ll_dma.h ****   *         @arg @ref LL_DMA_CHANNEL_7
 508:Drivers/STM32L1xx_HAL_Driver/Inc/stm32l1xx_ll_dma.h ****   * @retval None
 509:Drivers/STM32L1xx_HAL_Driver/Inc/stm32l1xx_ll_dma.h ****   */
 510:Drivers/STM32L1xx_HAL_Driver/Inc/stm32l1xx_ll_dma.h **** __STATIC_INLINE void LL_DMA_DisableChannel(DMA_TypeDef *DMAx, uint32_t Channel)
 511:Drivers/STM32L1xx_HAL_Driver/Inc/stm32l1xx_ll_dma.h **** {
 512:Drivers/STM32L1xx_HAL_Driver/Inc/stm32l1xx_ll_dma.h ****   CLEAR_BIT(((DMA_Channel_TypeDef *)((uint32_t)((uint32_t)DMAx + CHANNEL_OFFSET_TAB[Channel - 1U]))
 513:Drivers/STM32L1xx_HAL_Driver/Inc/stm32l1xx_ll_dma.h **** }
 514:Drivers/STM32L1xx_HAL_Driver/Inc/stm32l1xx_ll_dma.h **** 
 515:Drivers/STM32L1xx_HAL_Driver/Inc/stm32l1xx_ll_dma.h **** /**
 516:Drivers/STM32L1xx_HAL_Driver/Inc/stm32l1xx_ll_dma.h ****   * @brief  Check if DMA channel is enabled or disabled.
 517:Drivers/STM32L1xx_HAL_Driver/Inc/stm32l1xx_ll_dma.h ****   * @rmtoll CCR          EN            LL_DMA_IsEnabledChannel
 518:Drivers/STM32L1xx_HAL_Driver/Inc/stm32l1xx_ll_dma.h ****   * @param  DMAx DMAx Instance
 519:Drivers/STM32L1xx_HAL_Driver/Inc/stm32l1xx_ll_dma.h ****   * @param  Channel This parameter can be one of the following values:
ARM GAS  C:\Users\domen\AppData\Local\Temp\ccqUJVhq.s 			page 28


 520:Drivers/STM32L1xx_HAL_Driver/Inc/stm32l1xx_ll_dma.h ****   *         @arg @ref LL_DMA_CHANNEL_1
 521:Drivers/STM32L1xx_HAL_Driver/Inc/stm32l1xx_ll_dma.h ****   *         @arg @ref LL_DMA_CHANNEL_2
 522:Drivers/STM32L1xx_HAL_Driver/Inc/stm32l1xx_ll_dma.h ****   *         @arg @ref LL_DMA_CHANNEL_3
 523:Drivers/STM32L1xx_HAL_Driver/Inc/stm32l1xx_ll_dma.h ****   *         @arg @ref LL_DMA_CHANNEL_4
 524:Drivers/STM32L1xx_HAL_Driver/Inc/stm32l1xx_ll_dma.h ****   *         @arg @ref LL_DMA_CHANNEL_5
 525:Drivers/STM32L1xx_HAL_Driver/Inc/stm32l1xx_ll_dma.h ****   *         @arg @ref LL_DMA_CHANNEL_6
 526:Drivers/STM32L1xx_HAL_Driver/Inc/stm32l1xx_ll_dma.h ****   *         @arg @ref LL_DMA_CHANNEL_7
 527:Drivers/STM32L1xx_HAL_Driver/Inc/stm32l1xx_ll_dma.h ****   * @retval State of bit (1 or 0).
 528:Drivers/STM32L1xx_HAL_Driver/Inc/stm32l1xx_ll_dma.h ****   */
 529:Drivers/STM32L1xx_HAL_Driver/Inc/stm32l1xx_ll_dma.h **** __STATIC_INLINE uint32_t LL_DMA_IsEnabledChannel(DMA_TypeDef *DMAx, uint32_t Channel)
 530:Drivers/STM32L1xx_HAL_Driver/Inc/stm32l1xx_ll_dma.h **** {
 531:Drivers/STM32L1xx_HAL_Driver/Inc/stm32l1xx_ll_dma.h ****   return (READ_BIT(((DMA_Channel_TypeDef *)((uint32_t)((uint32_t)DMAx + CHANNEL_OFFSET_TAB[Channel 
 532:Drivers/STM32L1xx_HAL_Driver/Inc/stm32l1xx_ll_dma.h ****                    DMA_CCR_EN) == (DMA_CCR_EN));
 533:Drivers/STM32L1xx_HAL_Driver/Inc/stm32l1xx_ll_dma.h **** }
 534:Drivers/STM32L1xx_HAL_Driver/Inc/stm32l1xx_ll_dma.h **** 
 535:Drivers/STM32L1xx_HAL_Driver/Inc/stm32l1xx_ll_dma.h **** /**
 536:Drivers/STM32L1xx_HAL_Driver/Inc/stm32l1xx_ll_dma.h ****   * @brief  Configure all parameters link to DMA transfer.
 537:Drivers/STM32L1xx_HAL_Driver/Inc/stm32l1xx_ll_dma.h ****   * @rmtoll CCR          DIR           LL_DMA_ConfigTransfer\n
 538:Drivers/STM32L1xx_HAL_Driver/Inc/stm32l1xx_ll_dma.h ****   *         CCR          MEM2MEM       LL_DMA_ConfigTransfer\n
 539:Drivers/STM32L1xx_HAL_Driver/Inc/stm32l1xx_ll_dma.h ****   *         CCR          CIRC          LL_DMA_ConfigTransfer\n
 540:Drivers/STM32L1xx_HAL_Driver/Inc/stm32l1xx_ll_dma.h ****   *         CCR          PINC          LL_DMA_ConfigTransfer\n
 541:Drivers/STM32L1xx_HAL_Driver/Inc/stm32l1xx_ll_dma.h ****   *         CCR          MINC          LL_DMA_ConfigTransfer\n
 542:Drivers/STM32L1xx_HAL_Driver/Inc/stm32l1xx_ll_dma.h ****   *         CCR          PSIZE         LL_DMA_ConfigTransfer\n
 543:Drivers/STM32L1xx_HAL_Driver/Inc/stm32l1xx_ll_dma.h ****   *         CCR          MSIZE         LL_DMA_ConfigTransfer\n
 544:Drivers/STM32L1xx_HAL_Driver/Inc/stm32l1xx_ll_dma.h ****   *         CCR          PL            LL_DMA_ConfigTransfer
 545:Drivers/STM32L1xx_HAL_Driver/Inc/stm32l1xx_ll_dma.h ****   * @param  DMAx DMAx Instance
 546:Drivers/STM32L1xx_HAL_Driver/Inc/stm32l1xx_ll_dma.h ****   * @param  Channel This parameter can be one of the following values:
 547:Drivers/STM32L1xx_HAL_Driver/Inc/stm32l1xx_ll_dma.h ****   *         @arg @ref LL_DMA_CHANNEL_1
 548:Drivers/STM32L1xx_HAL_Driver/Inc/stm32l1xx_ll_dma.h ****   *         @arg @ref LL_DMA_CHANNEL_2
 549:Drivers/STM32L1xx_HAL_Driver/Inc/stm32l1xx_ll_dma.h ****   *         @arg @ref LL_DMA_CHANNEL_3
 550:Drivers/STM32L1xx_HAL_Driver/Inc/stm32l1xx_ll_dma.h ****   *         @arg @ref LL_DMA_CHANNEL_4
 551:Drivers/STM32L1xx_HAL_Driver/Inc/stm32l1xx_ll_dma.h ****   *         @arg @ref LL_DMA_CHANNEL_5
 552:Drivers/STM32L1xx_HAL_Driver/Inc/stm32l1xx_ll_dma.h ****   *         @arg @ref LL_DMA_CHANNEL_6
 553:Drivers/STM32L1xx_HAL_Driver/Inc/stm32l1xx_ll_dma.h ****   *         @arg @ref LL_DMA_CHANNEL_7
 554:Drivers/STM32L1xx_HAL_Driver/Inc/stm32l1xx_ll_dma.h ****   * @param  Configuration This parameter must be a combination of all the following values:
 555:Drivers/STM32L1xx_HAL_Driver/Inc/stm32l1xx_ll_dma.h ****   *         @arg @ref LL_DMA_DIRECTION_PERIPH_TO_MEMORY or @ref LL_DMA_DIRECTION_MEMORY_TO_PERIPH o
 556:Drivers/STM32L1xx_HAL_Driver/Inc/stm32l1xx_ll_dma.h ****   *         @arg @ref LL_DMA_MODE_NORMAL or @ref LL_DMA_MODE_CIRCULAR
 557:Drivers/STM32L1xx_HAL_Driver/Inc/stm32l1xx_ll_dma.h ****   *         @arg @ref LL_DMA_PERIPH_INCREMENT or @ref LL_DMA_PERIPH_NOINCREMENT
 558:Drivers/STM32L1xx_HAL_Driver/Inc/stm32l1xx_ll_dma.h ****   *         @arg @ref LL_DMA_MEMORY_INCREMENT or @ref LL_DMA_MEMORY_NOINCREMENT
 559:Drivers/STM32L1xx_HAL_Driver/Inc/stm32l1xx_ll_dma.h ****   *         @arg @ref LL_DMA_PDATAALIGN_BYTE or @ref LL_DMA_PDATAALIGN_HALFWORD or @ref LL_DMA_PDAT
 560:Drivers/STM32L1xx_HAL_Driver/Inc/stm32l1xx_ll_dma.h ****   *         @arg @ref LL_DMA_MDATAALIGN_BYTE or @ref LL_DMA_MDATAALIGN_HALFWORD or @ref LL_DMA_MDAT
 561:Drivers/STM32L1xx_HAL_Driver/Inc/stm32l1xx_ll_dma.h ****   *         @arg @ref LL_DMA_PRIORITY_LOW or @ref LL_DMA_PRIORITY_MEDIUM or @ref LL_DMA_PRIORITY_HI
 562:Drivers/STM32L1xx_HAL_Driver/Inc/stm32l1xx_ll_dma.h ****   * @retval None
 563:Drivers/STM32L1xx_HAL_Driver/Inc/stm32l1xx_ll_dma.h ****   */
 564:Drivers/STM32L1xx_HAL_Driver/Inc/stm32l1xx_ll_dma.h **** __STATIC_INLINE void LL_DMA_ConfigTransfer(DMA_TypeDef *DMAx, uint32_t Channel, uint32_t Configurat
 565:Drivers/STM32L1xx_HAL_Driver/Inc/stm32l1xx_ll_dma.h **** {
 566:Drivers/STM32L1xx_HAL_Driver/Inc/stm32l1xx_ll_dma.h ****   MODIFY_REG(((DMA_Channel_TypeDef *)((uint32_t)((uint32_t)DMAx + CHANNEL_OFFSET_TAB[Channel - 1U])
 567:Drivers/STM32L1xx_HAL_Driver/Inc/stm32l1xx_ll_dma.h ****              DMA_CCR_DIR | DMA_CCR_MEM2MEM | DMA_CCR_CIRC | DMA_CCR_PINC | DMA_CCR_MINC | DMA_CCR_P
 568:Drivers/STM32L1xx_HAL_Driver/Inc/stm32l1xx_ll_dma.h ****              Configuration);
 569:Drivers/STM32L1xx_HAL_Driver/Inc/stm32l1xx_ll_dma.h **** }
 570:Drivers/STM32L1xx_HAL_Driver/Inc/stm32l1xx_ll_dma.h **** 
 571:Drivers/STM32L1xx_HAL_Driver/Inc/stm32l1xx_ll_dma.h **** /**
 572:Drivers/STM32L1xx_HAL_Driver/Inc/stm32l1xx_ll_dma.h ****   * @brief  Set Data transfer direction (read from peripheral or from memory).
 573:Drivers/STM32L1xx_HAL_Driver/Inc/stm32l1xx_ll_dma.h ****   * @rmtoll CCR          DIR           LL_DMA_SetDataTransferDirection\n
 574:Drivers/STM32L1xx_HAL_Driver/Inc/stm32l1xx_ll_dma.h ****   *         CCR          MEM2MEM       LL_DMA_SetDataTransferDirection
 575:Drivers/STM32L1xx_HAL_Driver/Inc/stm32l1xx_ll_dma.h ****   * @param  DMAx DMAx Instance
 576:Drivers/STM32L1xx_HAL_Driver/Inc/stm32l1xx_ll_dma.h ****   * @param  Channel This parameter can be one of the following values:
ARM GAS  C:\Users\domen\AppData\Local\Temp\ccqUJVhq.s 			page 29


 577:Drivers/STM32L1xx_HAL_Driver/Inc/stm32l1xx_ll_dma.h ****   *         @arg @ref LL_DMA_CHANNEL_1
 578:Drivers/STM32L1xx_HAL_Driver/Inc/stm32l1xx_ll_dma.h ****   *         @arg @ref LL_DMA_CHANNEL_2
 579:Drivers/STM32L1xx_HAL_Driver/Inc/stm32l1xx_ll_dma.h ****   *         @arg @ref LL_DMA_CHANNEL_3
 580:Drivers/STM32L1xx_HAL_Driver/Inc/stm32l1xx_ll_dma.h ****   *         @arg @ref LL_DMA_CHANNEL_4
 581:Drivers/STM32L1xx_HAL_Driver/Inc/stm32l1xx_ll_dma.h ****   *         @arg @ref LL_DMA_CHANNEL_5
 582:Drivers/STM32L1xx_HAL_Driver/Inc/stm32l1xx_ll_dma.h ****   *         @arg @ref LL_DMA_CHANNEL_6
 583:Drivers/STM32L1xx_HAL_Driver/Inc/stm32l1xx_ll_dma.h ****   *         @arg @ref LL_DMA_CHANNEL_7
 584:Drivers/STM32L1xx_HAL_Driver/Inc/stm32l1xx_ll_dma.h ****   * @param  Direction This parameter can be one of the following values:
 585:Drivers/STM32L1xx_HAL_Driver/Inc/stm32l1xx_ll_dma.h ****   *         @arg @ref LL_DMA_DIRECTION_PERIPH_TO_MEMORY
 586:Drivers/STM32L1xx_HAL_Driver/Inc/stm32l1xx_ll_dma.h ****   *         @arg @ref LL_DMA_DIRECTION_MEMORY_TO_PERIPH
 587:Drivers/STM32L1xx_HAL_Driver/Inc/stm32l1xx_ll_dma.h ****   *         @arg @ref LL_DMA_DIRECTION_MEMORY_TO_MEMORY
 588:Drivers/STM32L1xx_HAL_Driver/Inc/stm32l1xx_ll_dma.h ****   * @retval None
 589:Drivers/STM32L1xx_HAL_Driver/Inc/stm32l1xx_ll_dma.h ****   */
 590:Drivers/STM32L1xx_HAL_Driver/Inc/stm32l1xx_ll_dma.h **** __STATIC_INLINE void LL_DMA_SetDataTransferDirection(DMA_TypeDef *DMAx, uint32_t Channel, uint32_t 
 591:Drivers/STM32L1xx_HAL_Driver/Inc/stm32l1xx_ll_dma.h **** {
 592:Drivers/STM32L1xx_HAL_Driver/Inc/stm32l1xx_ll_dma.h ****   MODIFY_REG(((DMA_Channel_TypeDef *)((uint32_t)((uint32_t)DMAx + CHANNEL_OFFSET_TAB[Channel - 1U])
 593:Drivers/STM32L1xx_HAL_Driver/Inc/stm32l1xx_ll_dma.h ****              DMA_CCR_DIR | DMA_CCR_MEM2MEM, Direction);
 594:Drivers/STM32L1xx_HAL_Driver/Inc/stm32l1xx_ll_dma.h **** }
 595:Drivers/STM32L1xx_HAL_Driver/Inc/stm32l1xx_ll_dma.h **** 
 596:Drivers/STM32L1xx_HAL_Driver/Inc/stm32l1xx_ll_dma.h **** /**
 597:Drivers/STM32L1xx_HAL_Driver/Inc/stm32l1xx_ll_dma.h ****   * @brief  Get Data transfer direction (read from peripheral or from memory).
 598:Drivers/STM32L1xx_HAL_Driver/Inc/stm32l1xx_ll_dma.h ****   * @rmtoll CCR          DIR           LL_DMA_GetDataTransferDirection\n
 599:Drivers/STM32L1xx_HAL_Driver/Inc/stm32l1xx_ll_dma.h ****   *         CCR          MEM2MEM       LL_DMA_GetDataTransferDirection
 600:Drivers/STM32L1xx_HAL_Driver/Inc/stm32l1xx_ll_dma.h ****   * @param  DMAx DMAx Instance
 601:Drivers/STM32L1xx_HAL_Driver/Inc/stm32l1xx_ll_dma.h ****   * @param  Channel This parameter can be one of the following values:
 602:Drivers/STM32L1xx_HAL_Driver/Inc/stm32l1xx_ll_dma.h ****   *         @arg @ref LL_DMA_CHANNEL_1
 603:Drivers/STM32L1xx_HAL_Driver/Inc/stm32l1xx_ll_dma.h ****   *         @arg @ref LL_DMA_CHANNEL_2
 604:Drivers/STM32L1xx_HAL_Driver/Inc/stm32l1xx_ll_dma.h ****   *         @arg @ref LL_DMA_CHANNEL_3
 605:Drivers/STM32L1xx_HAL_Driver/Inc/stm32l1xx_ll_dma.h ****   *         @arg @ref LL_DMA_CHANNEL_4
 606:Drivers/STM32L1xx_HAL_Driver/Inc/stm32l1xx_ll_dma.h ****   *         @arg @ref LL_DMA_CHANNEL_5
 607:Drivers/STM32L1xx_HAL_Driver/Inc/stm32l1xx_ll_dma.h ****   *         @arg @ref LL_DMA_CHANNEL_6
 608:Drivers/STM32L1xx_HAL_Driver/Inc/stm32l1xx_ll_dma.h ****   *         @arg @ref LL_DMA_CHANNEL_7
 609:Drivers/STM32L1xx_HAL_Driver/Inc/stm32l1xx_ll_dma.h ****   * @retval Returned value can be one of the following values:
 610:Drivers/STM32L1xx_HAL_Driver/Inc/stm32l1xx_ll_dma.h ****   *         @arg @ref LL_DMA_DIRECTION_PERIPH_TO_MEMORY
 611:Drivers/STM32L1xx_HAL_Driver/Inc/stm32l1xx_ll_dma.h ****   *         @arg @ref LL_DMA_DIRECTION_MEMORY_TO_PERIPH
 612:Drivers/STM32L1xx_HAL_Driver/Inc/stm32l1xx_ll_dma.h ****   *         @arg @ref LL_DMA_DIRECTION_MEMORY_TO_MEMORY
 613:Drivers/STM32L1xx_HAL_Driver/Inc/stm32l1xx_ll_dma.h ****   */
 614:Drivers/STM32L1xx_HAL_Driver/Inc/stm32l1xx_ll_dma.h **** __STATIC_INLINE uint32_t LL_DMA_GetDataTransferDirection(DMA_TypeDef *DMAx, uint32_t Channel)
 615:Drivers/STM32L1xx_HAL_Driver/Inc/stm32l1xx_ll_dma.h **** {
 616:Drivers/STM32L1xx_HAL_Driver/Inc/stm32l1xx_ll_dma.h ****   return (READ_BIT(((DMA_Channel_TypeDef *)((uint32_t)((uint32_t)DMAx + CHANNEL_OFFSET_TAB[Channel 
 617:Drivers/STM32L1xx_HAL_Driver/Inc/stm32l1xx_ll_dma.h ****                    DMA_CCR_DIR | DMA_CCR_MEM2MEM));
 618:Drivers/STM32L1xx_HAL_Driver/Inc/stm32l1xx_ll_dma.h **** }
 619:Drivers/STM32L1xx_HAL_Driver/Inc/stm32l1xx_ll_dma.h **** 
 620:Drivers/STM32L1xx_HAL_Driver/Inc/stm32l1xx_ll_dma.h **** /**
 621:Drivers/STM32L1xx_HAL_Driver/Inc/stm32l1xx_ll_dma.h ****   * @brief  Set DMA mode circular or normal.
 622:Drivers/STM32L1xx_HAL_Driver/Inc/stm32l1xx_ll_dma.h ****   * @note The circular buffer mode cannot be used if the memory-to-memory
 623:Drivers/STM32L1xx_HAL_Driver/Inc/stm32l1xx_ll_dma.h ****   * data transfer is configured on the selected Channel.
 624:Drivers/STM32L1xx_HAL_Driver/Inc/stm32l1xx_ll_dma.h ****   * @rmtoll CCR          CIRC          LL_DMA_SetMode
 625:Drivers/STM32L1xx_HAL_Driver/Inc/stm32l1xx_ll_dma.h ****   * @param  DMAx DMAx Instance
 626:Drivers/STM32L1xx_HAL_Driver/Inc/stm32l1xx_ll_dma.h ****   * @param  Channel This parameter can be one of the following values:
 627:Drivers/STM32L1xx_HAL_Driver/Inc/stm32l1xx_ll_dma.h ****   *         @arg @ref LL_DMA_CHANNEL_1
 628:Drivers/STM32L1xx_HAL_Driver/Inc/stm32l1xx_ll_dma.h ****   *         @arg @ref LL_DMA_CHANNEL_2
 629:Drivers/STM32L1xx_HAL_Driver/Inc/stm32l1xx_ll_dma.h ****   *         @arg @ref LL_DMA_CHANNEL_3
 630:Drivers/STM32L1xx_HAL_Driver/Inc/stm32l1xx_ll_dma.h ****   *         @arg @ref LL_DMA_CHANNEL_4
 631:Drivers/STM32L1xx_HAL_Driver/Inc/stm32l1xx_ll_dma.h ****   *         @arg @ref LL_DMA_CHANNEL_5
 632:Drivers/STM32L1xx_HAL_Driver/Inc/stm32l1xx_ll_dma.h ****   *         @arg @ref LL_DMA_CHANNEL_6
 633:Drivers/STM32L1xx_HAL_Driver/Inc/stm32l1xx_ll_dma.h ****   *         @arg @ref LL_DMA_CHANNEL_7
ARM GAS  C:\Users\domen\AppData\Local\Temp\ccqUJVhq.s 			page 30


 634:Drivers/STM32L1xx_HAL_Driver/Inc/stm32l1xx_ll_dma.h ****   * @param  Mode This parameter can be one of the following values:
 635:Drivers/STM32L1xx_HAL_Driver/Inc/stm32l1xx_ll_dma.h ****   *         @arg @ref LL_DMA_MODE_NORMAL
 636:Drivers/STM32L1xx_HAL_Driver/Inc/stm32l1xx_ll_dma.h ****   *         @arg @ref LL_DMA_MODE_CIRCULAR
 637:Drivers/STM32L1xx_HAL_Driver/Inc/stm32l1xx_ll_dma.h ****   * @retval None
 638:Drivers/STM32L1xx_HAL_Driver/Inc/stm32l1xx_ll_dma.h ****   */
 639:Drivers/STM32L1xx_HAL_Driver/Inc/stm32l1xx_ll_dma.h **** __STATIC_INLINE void LL_DMA_SetMode(DMA_TypeDef *DMAx, uint32_t Channel, uint32_t Mode)
 640:Drivers/STM32L1xx_HAL_Driver/Inc/stm32l1xx_ll_dma.h **** {
 641:Drivers/STM32L1xx_HAL_Driver/Inc/stm32l1xx_ll_dma.h ****   MODIFY_REG(((DMA_Channel_TypeDef *)((uint32_t)((uint32_t)DMAx + CHANNEL_OFFSET_TAB[Channel - 1U])
 642:Drivers/STM32L1xx_HAL_Driver/Inc/stm32l1xx_ll_dma.h ****              Mode);
 643:Drivers/STM32L1xx_HAL_Driver/Inc/stm32l1xx_ll_dma.h **** }
 644:Drivers/STM32L1xx_HAL_Driver/Inc/stm32l1xx_ll_dma.h **** 
 645:Drivers/STM32L1xx_HAL_Driver/Inc/stm32l1xx_ll_dma.h **** /**
 646:Drivers/STM32L1xx_HAL_Driver/Inc/stm32l1xx_ll_dma.h ****   * @brief  Get DMA mode circular or normal.
 647:Drivers/STM32L1xx_HAL_Driver/Inc/stm32l1xx_ll_dma.h ****   * @rmtoll CCR          CIRC          LL_DMA_GetMode
 648:Drivers/STM32L1xx_HAL_Driver/Inc/stm32l1xx_ll_dma.h ****   * @param  DMAx DMAx Instance
 649:Drivers/STM32L1xx_HAL_Driver/Inc/stm32l1xx_ll_dma.h ****   * @param  Channel This parameter can be one of the following values:
 650:Drivers/STM32L1xx_HAL_Driver/Inc/stm32l1xx_ll_dma.h ****   *         @arg @ref LL_DMA_CHANNEL_1
 651:Drivers/STM32L1xx_HAL_Driver/Inc/stm32l1xx_ll_dma.h ****   *         @arg @ref LL_DMA_CHANNEL_2
 652:Drivers/STM32L1xx_HAL_Driver/Inc/stm32l1xx_ll_dma.h ****   *         @arg @ref LL_DMA_CHANNEL_3
 653:Drivers/STM32L1xx_HAL_Driver/Inc/stm32l1xx_ll_dma.h ****   *         @arg @ref LL_DMA_CHANNEL_4
 654:Drivers/STM32L1xx_HAL_Driver/Inc/stm32l1xx_ll_dma.h ****   *         @arg @ref LL_DMA_CHANNEL_5
 655:Drivers/STM32L1xx_HAL_Driver/Inc/stm32l1xx_ll_dma.h ****   *         @arg @ref LL_DMA_CHANNEL_6
 656:Drivers/STM32L1xx_HAL_Driver/Inc/stm32l1xx_ll_dma.h ****   *         @arg @ref LL_DMA_CHANNEL_7
 657:Drivers/STM32L1xx_HAL_Driver/Inc/stm32l1xx_ll_dma.h ****   * @retval Returned value can be one of the following values:
 658:Drivers/STM32L1xx_HAL_Driver/Inc/stm32l1xx_ll_dma.h ****   *         @arg @ref LL_DMA_MODE_NORMAL
 659:Drivers/STM32L1xx_HAL_Driver/Inc/stm32l1xx_ll_dma.h ****   *         @arg @ref LL_DMA_MODE_CIRCULAR
 660:Drivers/STM32L1xx_HAL_Driver/Inc/stm32l1xx_ll_dma.h ****   */
 661:Drivers/STM32L1xx_HAL_Driver/Inc/stm32l1xx_ll_dma.h **** __STATIC_INLINE uint32_t LL_DMA_GetMode(DMA_TypeDef *DMAx, uint32_t Channel)
 662:Drivers/STM32L1xx_HAL_Driver/Inc/stm32l1xx_ll_dma.h **** {
 663:Drivers/STM32L1xx_HAL_Driver/Inc/stm32l1xx_ll_dma.h ****   return (READ_BIT(((DMA_Channel_TypeDef *)((uint32_t)((uint32_t)DMAx + CHANNEL_OFFSET_TAB[Channel 
 664:Drivers/STM32L1xx_HAL_Driver/Inc/stm32l1xx_ll_dma.h ****                    DMA_CCR_CIRC));
 665:Drivers/STM32L1xx_HAL_Driver/Inc/stm32l1xx_ll_dma.h **** }
 666:Drivers/STM32L1xx_HAL_Driver/Inc/stm32l1xx_ll_dma.h **** 
 667:Drivers/STM32L1xx_HAL_Driver/Inc/stm32l1xx_ll_dma.h **** /**
 668:Drivers/STM32L1xx_HAL_Driver/Inc/stm32l1xx_ll_dma.h ****   * @brief  Set Peripheral increment mode.
 669:Drivers/STM32L1xx_HAL_Driver/Inc/stm32l1xx_ll_dma.h ****   * @rmtoll CCR          PINC          LL_DMA_SetPeriphIncMode
 670:Drivers/STM32L1xx_HAL_Driver/Inc/stm32l1xx_ll_dma.h ****   * @param  DMAx DMAx Instance
 671:Drivers/STM32L1xx_HAL_Driver/Inc/stm32l1xx_ll_dma.h ****   * @param  Channel This parameter can be one of the following values:
 672:Drivers/STM32L1xx_HAL_Driver/Inc/stm32l1xx_ll_dma.h ****   *         @arg @ref LL_DMA_CHANNEL_1
 673:Drivers/STM32L1xx_HAL_Driver/Inc/stm32l1xx_ll_dma.h ****   *         @arg @ref LL_DMA_CHANNEL_2
 674:Drivers/STM32L1xx_HAL_Driver/Inc/stm32l1xx_ll_dma.h ****   *         @arg @ref LL_DMA_CHANNEL_3
 675:Drivers/STM32L1xx_HAL_Driver/Inc/stm32l1xx_ll_dma.h ****   *         @arg @ref LL_DMA_CHANNEL_4
 676:Drivers/STM32L1xx_HAL_Driver/Inc/stm32l1xx_ll_dma.h ****   *         @arg @ref LL_DMA_CHANNEL_5
 677:Drivers/STM32L1xx_HAL_Driver/Inc/stm32l1xx_ll_dma.h ****   *         @arg @ref LL_DMA_CHANNEL_6
 678:Drivers/STM32L1xx_HAL_Driver/Inc/stm32l1xx_ll_dma.h ****   *         @arg @ref LL_DMA_CHANNEL_7
 679:Drivers/STM32L1xx_HAL_Driver/Inc/stm32l1xx_ll_dma.h ****   * @param  PeriphOrM2MSrcIncMode This parameter can be one of the following values:
 680:Drivers/STM32L1xx_HAL_Driver/Inc/stm32l1xx_ll_dma.h ****   *         @arg @ref LL_DMA_PERIPH_INCREMENT
 681:Drivers/STM32L1xx_HAL_Driver/Inc/stm32l1xx_ll_dma.h ****   *         @arg @ref LL_DMA_PERIPH_NOINCREMENT
 682:Drivers/STM32L1xx_HAL_Driver/Inc/stm32l1xx_ll_dma.h ****   * @retval None
 683:Drivers/STM32L1xx_HAL_Driver/Inc/stm32l1xx_ll_dma.h ****   */
 684:Drivers/STM32L1xx_HAL_Driver/Inc/stm32l1xx_ll_dma.h **** __STATIC_INLINE void LL_DMA_SetPeriphIncMode(DMA_TypeDef *DMAx, uint32_t Channel, uint32_t PeriphOr
 685:Drivers/STM32L1xx_HAL_Driver/Inc/stm32l1xx_ll_dma.h **** {
 686:Drivers/STM32L1xx_HAL_Driver/Inc/stm32l1xx_ll_dma.h ****   MODIFY_REG(((DMA_Channel_TypeDef *)((uint32_t)((uint32_t)DMAx + CHANNEL_OFFSET_TAB[Channel - 1U])
 687:Drivers/STM32L1xx_HAL_Driver/Inc/stm32l1xx_ll_dma.h ****              PeriphOrM2MSrcIncMode);
 688:Drivers/STM32L1xx_HAL_Driver/Inc/stm32l1xx_ll_dma.h **** }
 689:Drivers/STM32L1xx_HAL_Driver/Inc/stm32l1xx_ll_dma.h **** 
 690:Drivers/STM32L1xx_HAL_Driver/Inc/stm32l1xx_ll_dma.h **** /**
ARM GAS  C:\Users\domen\AppData\Local\Temp\ccqUJVhq.s 			page 31


 691:Drivers/STM32L1xx_HAL_Driver/Inc/stm32l1xx_ll_dma.h ****   * @brief  Get Peripheral increment mode.
 692:Drivers/STM32L1xx_HAL_Driver/Inc/stm32l1xx_ll_dma.h ****   * @rmtoll CCR          PINC          LL_DMA_GetPeriphIncMode
 693:Drivers/STM32L1xx_HAL_Driver/Inc/stm32l1xx_ll_dma.h ****   * @param  DMAx DMAx Instance
 694:Drivers/STM32L1xx_HAL_Driver/Inc/stm32l1xx_ll_dma.h ****   * @param  Channel This parameter can be one of the following values:
 695:Drivers/STM32L1xx_HAL_Driver/Inc/stm32l1xx_ll_dma.h ****   *         @arg @ref LL_DMA_CHANNEL_1
 696:Drivers/STM32L1xx_HAL_Driver/Inc/stm32l1xx_ll_dma.h ****   *         @arg @ref LL_DMA_CHANNEL_2
 697:Drivers/STM32L1xx_HAL_Driver/Inc/stm32l1xx_ll_dma.h ****   *         @arg @ref LL_DMA_CHANNEL_3
 698:Drivers/STM32L1xx_HAL_Driver/Inc/stm32l1xx_ll_dma.h ****   *         @arg @ref LL_DMA_CHANNEL_4
 699:Drivers/STM32L1xx_HAL_Driver/Inc/stm32l1xx_ll_dma.h ****   *         @arg @ref LL_DMA_CHANNEL_5
 700:Drivers/STM32L1xx_HAL_Driver/Inc/stm32l1xx_ll_dma.h ****   *         @arg @ref LL_DMA_CHANNEL_6
 701:Drivers/STM32L1xx_HAL_Driver/Inc/stm32l1xx_ll_dma.h ****   *         @arg @ref LL_DMA_CHANNEL_7
 702:Drivers/STM32L1xx_HAL_Driver/Inc/stm32l1xx_ll_dma.h ****   * @retval Returned value can be one of the following values:
 703:Drivers/STM32L1xx_HAL_Driver/Inc/stm32l1xx_ll_dma.h ****   *         @arg @ref LL_DMA_PERIPH_INCREMENT
 704:Drivers/STM32L1xx_HAL_Driver/Inc/stm32l1xx_ll_dma.h ****   *         @arg @ref LL_DMA_PERIPH_NOINCREMENT
 705:Drivers/STM32L1xx_HAL_Driver/Inc/stm32l1xx_ll_dma.h ****   */
 706:Drivers/STM32L1xx_HAL_Driver/Inc/stm32l1xx_ll_dma.h **** __STATIC_INLINE uint32_t LL_DMA_GetPeriphIncMode(DMA_TypeDef *DMAx, uint32_t Channel)
 707:Drivers/STM32L1xx_HAL_Driver/Inc/stm32l1xx_ll_dma.h **** {
 708:Drivers/STM32L1xx_HAL_Driver/Inc/stm32l1xx_ll_dma.h ****   return (READ_BIT(((DMA_Channel_TypeDef *)((uint32_t)((uint32_t)DMAx + CHANNEL_OFFSET_TAB[Channel 
 709:Drivers/STM32L1xx_HAL_Driver/Inc/stm32l1xx_ll_dma.h ****                    DMA_CCR_PINC));
 710:Drivers/STM32L1xx_HAL_Driver/Inc/stm32l1xx_ll_dma.h **** }
 711:Drivers/STM32L1xx_HAL_Driver/Inc/stm32l1xx_ll_dma.h **** 
 712:Drivers/STM32L1xx_HAL_Driver/Inc/stm32l1xx_ll_dma.h **** /**
 713:Drivers/STM32L1xx_HAL_Driver/Inc/stm32l1xx_ll_dma.h ****   * @brief  Set Memory increment mode.
 714:Drivers/STM32L1xx_HAL_Driver/Inc/stm32l1xx_ll_dma.h ****   * @rmtoll CCR          MINC          LL_DMA_SetMemoryIncMode
 715:Drivers/STM32L1xx_HAL_Driver/Inc/stm32l1xx_ll_dma.h ****   * @param  DMAx DMAx Instance
 716:Drivers/STM32L1xx_HAL_Driver/Inc/stm32l1xx_ll_dma.h ****   * @param  Channel This parameter can be one of the following values:
 717:Drivers/STM32L1xx_HAL_Driver/Inc/stm32l1xx_ll_dma.h ****   *         @arg @ref LL_DMA_CHANNEL_1
 718:Drivers/STM32L1xx_HAL_Driver/Inc/stm32l1xx_ll_dma.h ****   *         @arg @ref LL_DMA_CHANNEL_2
 719:Drivers/STM32L1xx_HAL_Driver/Inc/stm32l1xx_ll_dma.h ****   *         @arg @ref LL_DMA_CHANNEL_3
 720:Drivers/STM32L1xx_HAL_Driver/Inc/stm32l1xx_ll_dma.h ****   *         @arg @ref LL_DMA_CHANNEL_4
 721:Drivers/STM32L1xx_HAL_Driver/Inc/stm32l1xx_ll_dma.h ****   *         @arg @ref LL_DMA_CHANNEL_5
 722:Drivers/STM32L1xx_HAL_Driver/Inc/stm32l1xx_ll_dma.h ****   *         @arg @ref LL_DMA_CHANNEL_6
 723:Drivers/STM32L1xx_HAL_Driver/Inc/stm32l1xx_ll_dma.h ****   *         @arg @ref LL_DMA_CHANNEL_7
 724:Drivers/STM32L1xx_HAL_Driver/Inc/stm32l1xx_ll_dma.h ****   * @param  MemoryOrM2MDstIncMode This parameter can be one of the following values:
 725:Drivers/STM32L1xx_HAL_Driver/Inc/stm32l1xx_ll_dma.h ****   *         @arg @ref LL_DMA_MEMORY_INCREMENT
 726:Drivers/STM32L1xx_HAL_Driver/Inc/stm32l1xx_ll_dma.h ****   *         @arg @ref LL_DMA_MEMORY_NOINCREMENT
 727:Drivers/STM32L1xx_HAL_Driver/Inc/stm32l1xx_ll_dma.h ****   * @retval None
 728:Drivers/STM32L1xx_HAL_Driver/Inc/stm32l1xx_ll_dma.h ****   */
 729:Drivers/STM32L1xx_HAL_Driver/Inc/stm32l1xx_ll_dma.h **** __STATIC_INLINE void LL_DMA_SetMemoryIncMode(DMA_TypeDef *DMAx, uint32_t Channel, uint32_t MemoryOr
 730:Drivers/STM32L1xx_HAL_Driver/Inc/stm32l1xx_ll_dma.h **** {
 731:Drivers/STM32L1xx_HAL_Driver/Inc/stm32l1xx_ll_dma.h ****   MODIFY_REG(((DMA_Channel_TypeDef *)((uint32_t)((uint32_t)DMAx + CHANNEL_OFFSET_TAB[Channel - 1U])
 732:Drivers/STM32L1xx_HAL_Driver/Inc/stm32l1xx_ll_dma.h ****              MemoryOrM2MDstIncMode);
 733:Drivers/STM32L1xx_HAL_Driver/Inc/stm32l1xx_ll_dma.h **** }
 734:Drivers/STM32L1xx_HAL_Driver/Inc/stm32l1xx_ll_dma.h **** 
 735:Drivers/STM32L1xx_HAL_Driver/Inc/stm32l1xx_ll_dma.h **** /**
 736:Drivers/STM32L1xx_HAL_Driver/Inc/stm32l1xx_ll_dma.h ****   * @brief  Get Memory increment mode.
 737:Drivers/STM32L1xx_HAL_Driver/Inc/stm32l1xx_ll_dma.h ****   * @rmtoll CCR          MINC          LL_DMA_GetMemoryIncMode
 738:Drivers/STM32L1xx_HAL_Driver/Inc/stm32l1xx_ll_dma.h ****   * @param  DMAx DMAx Instance
 739:Drivers/STM32L1xx_HAL_Driver/Inc/stm32l1xx_ll_dma.h ****   * @param  Channel This parameter can be one of the following values:
 740:Drivers/STM32L1xx_HAL_Driver/Inc/stm32l1xx_ll_dma.h ****   *         @arg @ref LL_DMA_CHANNEL_1
 741:Drivers/STM32L1xx_HAL_Driver/Inc/stm32l1xx_ll_dma.h ****   *         @arg @ref LL_DMA_CHANNEL_2
 742:Drivers/STM32L1xx_HAL_Driver/Inc/stm32l1xx_ll_dma.h ****   *         @arg @ref LL_DMA_CHANNEL_3
 743:Drivers/STM32L1xx_HAL_Driver/Inc/stm32l1xx_ll_dma.h ****   *         @arg @ref LL_DMA_CHANNEL_4
 744:Drivers/STM32L1xx_HAL_Driver/Inc/stm32l1xx_ll_dma.h ****   *         @arg @ref LL_DMA_CHANNEL_5
 745:Drivers/STM32L1xx_HAL_Driver/Inc/stm32l1xx_ll_dma.h ****   *         @arg @ref LL_DMA_CHANNEL_6
 746:Drivers/STM32L1xx_HAL_Driver/Inc/stm32l1xx_ll_dma.h ****   *         @arg @ref LL_DMA_CHANNEL_7
 747:Drivers/STM32L1xx_HAL_Driver/Inc/stm32l1xx_ll_dma.h ****   * @retval Returned value can be one of the following values:
ARM GAS  C:\Users\domen\AppData\Local\Temp\ccqUJVhq.s 			page 32


 748:Drivers/STM32L1xx_HAL_Driver/Inc/stm32l1xx_ll_dma.h ****   *         @arg @ref LL_DMA_MEMORY_INCREMENT
 749:Drivers/STM32L1xx_HAL_Driver/Inc/stm32l1xx_ll_dma.h ****   *         @arg @ref LL_DMA_MEMORY_NOINCREMENT
 750:Drivers/STM32L1xx_HAL_Driver/Inc/stm32l1xx_ll_dma.h ****   */
 751:Drivers/STM32L1xx_HAL_Driver/Inc/stm32l1xx_ll_dma.h **** __STATIC_INLINE uint32_t LL_DMA_GetMemoryIncMode(DMA_TypeDef *DMAx, uint32_t Channel)
 752:Drivers/STM32L1xx_HAL_Driver/Inc/stm32l1xx_ll_dma.h **** {
 753:Drivers/STM32L1xx_HAL_Driver/Inc/stm32l1xx_ll_dma.h ****   return (READ_BIT(((DMA_Channel_TypeDef *)((uint32_t)((uint32_t)DMAx + CHANNEL_OFFSET_TAB[Channel 
 754:Drivers/STM32L1xx_HAL_Driver/Inc/stm32l1xx_ll_dma.h ****                    DMA_CCR_MINC));
 755:Drivers/STM32L1xx_HAL_Driver/Inc/stm32l1xx_ll_dma.h **** }
 756:Drivers/STM32L1xx_HAL_Driver/Inc/stm32l1xx_ll_dma.h **** 
 757:Drivers/STM32L1xx_HAL_Driver/Inc/stm32l1xx_ll_dma.h **** /**
 758:Drivers/STM32L1xx_HAL_Driver/Inc/stm32l1xx_ll_dma.h ****   * @brief  Set Peripheral size.
 759:Drivers/STM32L1xx_HAL_Driver/Inc/stm32l1xx_ll_dma.h ****   * @rmtoll CCR          PSIZE         LL_DMA_SetPeriphSize
 760:Drivers/STM32L1xx_HAL_Driver/Inc/stm32l1xx_ll_dma.h ****   * @param  DMAx DMAx Instance
 761:Drivers/STM32L1xx_HAL_Driver/Inc/stm32l1xx_ll_dma.h ****   * @param  Channel This parameter can be one of the following values:
 762:Drivers/STM32L1xx_HAL_Driver/Inc/stm32l1xx_ll_dma.h ****   *         @arg @ref LL_DMA_CHANNEL_1
 763:Drivers/STM32L1xx_HAL_Driver/Inc/stm32l1xx_ll_dma.h ****   *         @arg @ref LL_DMA_CHANNEL_2
 764:Drivers/STM32L1xx_HAL_Driver/Inc/stm32l1xx_ll_dma.h ****   *         @arg @ref LL_DMA_CHANNEL_3
 765:Drivers/STM32L1xx_HAL_Driver/Inc/stm32l1xx_ll_dma.h ****   *         @arg @ref LL_DMA_CHANNEL_4
 766:Drivers/STM32L1xx_HAL_Driver/Inc/stm32l1xx_ll_dma.h ****   *         @arg @ref LL_DMA_CHANNEL_5
 767:Drivers/STM32L1xx_HAL_Driver/Inc/stm32l1xx_ll_dma.h ****   *         @arg @ref LL_DMA_CHANNEL_6
 768:Drivers/STM32L1xx_HAL_Driver/Inc/stm32l1xx_ll_dma.h ****   *         @arg @ref LL_DMA_CHANNEL_7
 769:Drivers/STM32L1xx_HAL_Driver/Inc/stm32l1xx_ll_dma.h ****   * @param  PeriphOrM2MSrcDataSize This parameter can be one of the following values:
 770:Drivers/STM32L1xx_HAL_Driver/Inc/stm32l1xx_ll_dma.h ****   *         @arg @ref LL_DMA_PDATAALIGN_BYTE
 771:Drivers/STM32L1xx_HAL_Driver/Inc/stm32l1xx_ll_dma.h ****   *         @arg @ref LL_DMA_PDATAALIGN_HALFWORD
 772:Drivers/STM32L1xx_HAL_Driver/Inc/stm32l1xx_ll_dma.h ****   *         @arg @ref LL_DMA_PDATAALIGN_WORD
 773:Drivers/STM32L1xx_HAL_Driver/Inc/stm32l1xx_ll_dma.h ****   * @retval None
 774:Drivers/STM32L1xx_HAL_Driver/Inc/stm32l1xx_ll_dma.h ****   */
 775:Drivers/STM32L1xx_HAL_Driver/Inc/stm32l1xx_ll_dma.h **** __STATIC_INLINE void LL_DMA_SetPeriphSize(DMA_TypeDef *DMAx, uint32_t Channel, uint32_t PeriphOrM2M
 776:Drivers/STM32L1xx_HAL_Driver/Inc/stm32l1xx_ll_dma.h **** {
 777:Drivers/STM32L1xx_HAL_Driver/Inc/stm32l1xx_ll_dma.h ****   MODIFY_REG(((DMA_Channel_TypeDef *)((uint32_t)((uint32_t)DMAx + CHANNEL_OFFSET_TAB[Channel - 1U])
 778:Drivers/STM32L1xx_HAL_Driver/Inc/stm32l1xx_ll_dma.h ****              PeriphOrM2MSrcDataSize);
 779:Drivers/STM32L1xx_HAL_Driver/Inc/stm32l1xx_ll_dma.h **** }
 780:Drivers/STM32L1xx_HAL_Driver/Inc/stm32l1xx_ll_dma.h **** 
 781:Drivers/STM32L1xx_HAL_Driver/Inc/stm32l1xx_ll_dma.h **** /**
 782:Drivers/STM32L1xx_HAL_Driver/Inc/stm32l1xx_ll_dma.h ****   * @brief  Get Peripheral size.
 783:Drivers/STM32L1xx_HAL_Driver/Inc/stm32l1xx_ll_dma.h ****   * @rmtoll CCR          PSIZE         LL_DMA_GetPeriphSize
 784:Drivers/STM32L1xx_HAL_Driver/Inc/stm32l1xx_ll_dma.h ****   * @param  DMAx DMAx Instance
 785:Drivers/STM32L1xx_HAL_Driver/Inc/stm32l1xx_ll_dma.h ****   * @param  Channel This parameter can be one of the following values:
 786:Drivers/STM32L1xx_HAL_Driver/Inc/stm32l1xx_ll_dma.h ****   *         @arg @ref LL_DMA_CHANNEL_1
 787:Drivers/STM32L1xx_HAL_Driver/Inc/stm32l1xx_ll_dma.h ****   *         @arg @ref LL_DMA_CHANNEL_2
 788:Drivers/STM32L1xx_HAL_Driver/Inc/stm32l1xx_ll_dma.h ****   *         @arg @ref LL_DMA_CHANNEL_3
 789:Drivers/STM32L1xx_HAL_Driver/Inc/stm32l1xx_ll_dma.h ****   *         @arg @ref LL_DMA_CHANNEL_4
 790:Drivers/STM32L1xx_HAL_Driver/Inc/stm32l1xx_ll_dma.h ****   *         @arg @ref LL_DMA_CHANNEL_5
 791:Drivers/STM32L1xx_HAL_Driver/Inc/stm32l1xx_ll_dma.h ****   *         @arg @ref LL_DMA_CHANNEL_6
 792:Drivers/STM32L1xx_HAL_Driver/Inc/stm32l1xx_ll_dma.h ****   *         @arg @ref LL_DMA_CHANNEL_7
 793:Drivers/STM32L1xx_HAL_Driver/Inc/stm32l1xx_ll_dma.h ****   * @retval Returned value can be one of the following values:
 794:Drivers/STM32L1xx_HAL_Driver/Inc/stm32l1xx_ll_dma.h ****   *         @arg @ref LL_DMA_PDATAALIGN_BYTE
 795:Drivers/STM32L1xx_HAL_Driver/Inc/stm32l1xx_ll_dma.h ****   *         @arg @ref LL_DMA_PDATAALIGN_HALFWORD
 796:Drivers/STM32L1xx_HAL_Driver/Inc/stm32l1xx_ll_dma.h ****   *         @arg @ref LL_DMA_PDATAALIGN_WORD
 797:Drivers/STM32L1xx_HAL_Driver/Inc/stm32l1xx_ll_dma.h ****   */
 798:Drivers/STM32L1xx_HAL_Driver/Inc/stm32l1xx_ll_dma.h **** __STATIC_INLINE uint32_t LL_DMA_GetPeriphSize(DMA_TypeDef *DMAx, uint32_t Channel)
 799:Drivers/STM32L1xx_HAL_Driver/Inc/stm32l1xx_ll_dma.h **** {
 800:Drivers/STM32L1xx_HAL_Driver/Inc/stm32l1xx_ll_dma.h ****   return (READ_BIT(((DMA_Channel_TypeDef *)((uint32_t)((uint32_t)DMAx + CHANNEL_OFFSET_TAB[Channel 
 801:Drivers/STM32L1xx_HAL_Driver/Inc/stm32l1xx_ll_dma.h ****                    DMA_CCR_PSIZE));
 802:Drivers/STM32L1xx_HAL_Driver/Inc/stm32l1xx_ll_dma.h **** }
 803:Drivers/STM32L1xx_HAL_Driver/Inc/stm32l1xx_ll_dma.h **** 
 804:Drivers/STM32L1xx_HAL_Driver/Inc/stm32l1xx_ll_dma.h **** /**
ARM GAS  C:\Users\domen\AppData\Local\Temp\ccqUJVhq.s 			page 33


 805:Drivers/STM32L1xx_HAL_Driver/Inc/stm32l1xx_ll_dma.h ****   * @brief  Set Memory size.
 806:Drivers/STM32L1xx_HAL_Driver/Inc/stm32l1xx_ll_dma.h ****   * @rmtoll CCR          MSIZE         LL_DMA_SetMemorySize
 807:Drivers/STM32L1xx_HAL_Driver/Inc/stm32l1xx_ll_dma.h ****   * @param  DMAx DMAx Instance
 808:Drivers/STM32L1xx_HAL_Driver/Inc/stm32l1xx_ll_dma.h ****   * @param  Channel This parameter can be one of the following values:
 809:Drivers/STM32L1xx_HAL_Driver/Inc/stm32l1xx_ll_dma.h ****   *         @arg @ref LL_DMA_CHANNEL_1
 810:Drivers/STM32L1xx_HAL_Driver/Inc/stm32l1xx_ll_dma.h ****   *         @arg @ref LL_DMA_CHANNEL_2
 811:Drivers/STM32L1xx_HAL_Driver/Inc/stm32l1xx_ll_dma.h ****   *         @arg @ref LL_DMA_CHANNEL_3
 812:Drivers/STM32L1xx_HAL_Driver/Inc/stm32l1xx_ll_dma.h ****   *         @arg @ref LL_DMA_CHANNEL_4
 813:Drivers/STM32L1xx_HAL_Driver/Inc/stm32l1xx_ll_dma.h ****   *         @arg @ref LL_DMA_CHANNEL_5
 814:Drivers/STM32L1xx_HAL_Driver/Inc/stm32l1xx_ll_dma.h ****   *         @arg @ref LL_DMA_CHANNEL_6
 815:Drivers/STM32L1xx_HAL_Driver/Inc/stm32l1xx_ll_dma.h ****   *         @arg @ref LL_DMA_CHANNEL_7
 816:Drivers/STM32L1xx_HAL_Driver/Inc/stm32l1xx_ll_dma.h ****   * @param  MemoryOrM2MDstDataSize This parameter can be one of the following values:
 817:Drivers/STM32L1xx_HAL_Driver/Inc/stm32l1xx_ll_dma.h ****   *         @arg @ref LL_DMA_MDATAALIGN_BYTE
 818:Drivers/STM32L1xx_HAL_Driver/Inc/stm32l1xx_ll_dma.h ****   *         @arg @ref LL_DMA_MDATAALIGN_HALFWORD
 819:Drivers/STM32L1xx_HAL_Driver/Inc/stm32l1xx_ll_dma.h ****   *         @arg @ref LL_DMA_MDATAALIGN_WORD
 820:Drivers/STM32L1xx_HAL_Driver/Inc/stm32l1xx_ll_dma.h ****   * @retval None
 821:Drivers/STM32L1xx_HAL_Driver/Inc/stm32l1xx_ll_dma.h ****   */
 822:Drivers/STM32L1xx_HAL_Driver/Inc/stm32l1xx_ll_dma.h **** __STATIC_INLINE void LL_DMA_SetMemorySize(DMA_TypeDef *DMAx, uint32_t Channel, uint32_t MemoryOrM2M
 823:Drivers/STM32L1xx_HAL_Driver/Inc/stm32l1xx_ll_dma.h **** {
 824:Drivers/STM32L1xx_HAL_Driver/Inc/stm32l1xx_ll_dma.h ****   MODIFY_REG(((DMA_Channel_TypeDef *)((uint32_t)((uint32_t)DMAx + CHANNEL_OFFSET_TAB[Channel - 1U])
 825:Drivers/STM32L1xx_HAL_Driver/Inc/stm32l1xx_ll_dma.h ****              MemoryOrM2MDstDataSize);
 826:Drivers/STM32L1xx_HAL_Driver/Inc/stm32l1xx_ll_dma.h **** }
 827:Drivers/STM32L1xx_HAL_Driver/Inc/stm32l1xx_ll_dma.h **** 
 828:Drivers/STM32L1xx_HAL_Driver/Inc/stm32l1xx_ll_dma.h **** /**
 829:Drivers/STM32L1xx_HAL_Driver/Inc/stm32l1xx_ll_dma.h ****   * @brief  Get Memory size.
 830:Drivers/STM32L1xx_HAL_Driver/Inc/stm32l1xx_ll_dma.h ****   * @rmtoll CCR          MSIZE         LL_DMA_GetMemorySize
 831:Drivers/STM32L1xx_HAL_Driver/Inc/stm32l1xx_ll_dma.h ****   * @param  DMAx DMAx Instance
 832:Drivers/STM32L1xx_HAL_Driver/Inc/stm32l1xx_ll_dma.h ****   * @param  Channel This parameter can be one of the following values:
 833:Drivers/STM32L1xx_HAL_Driver/Inc/stm32l1xx_ll_dma.h ****   *         @arg @ref LL_DMA_CHANNEL_1
 834:Drivers/STM32L1xx_HAL_Driver/Inc/stm32l1xx_ll_dma.h ****   *         @arg @ref LL_DMA_CHANNEL_2
 835:Drivers/STM32L1xx_HAL_Driver/Inc/stm32l1xx_ll_dma.h ****   *         @arg @ref LL_DMA_CHANNEL_3
 836:Drivers/STM32L1xx_HAL_Driver/Inc/stm32l1xx_ll_dma.h ****   *         @arg @ref LL_DMA_CHANNEL_4
 837:Drivers/STM32L1xx_HAL_Driver/Inc/stm32l1xx_ll_dma.h ****   *         @arg @ref LL_DMA_CHANNEL_5
 838:Drivers/STM32L1xx_HAL_Driver/Inc/stm32l1xx_ll_dma.h ****   *         @arg @ref LL_DMA_CHANNEL_6
 839:Drivers/STM32L1xx_HAL_Driver/Inc/stm32l1xx_ll_dma.h ****   *         @arg @ref LL_DMA_CHANNEL_7
 840:Drivers/STM32L1xx_HAL_Driver/Inc/stm32l1xx_ll_dma.h ****   * @retval Returned value can be one of the following values:
 841:Drivers/STM32L1xx_HAL_Driver/Inc/stm32l1xx_ll_dma.h ****   *         @arg @ref LL_DMA_MDATAALIGN_BYTE
 842:Drivers/STM32L1xx_HAL_Driver/Inc/stm32l1xx_ll_dma.h ****   *         @arg @ref LL_DMA_MDATAALIGN_HALFWORD
 843:Drivers/STM32L1xx_HAL_Driver/Inc/stm32l1xx_ll_dma.h ****   *         @arg @ref LL_DMA_MDATAALIGN_WORD
 844:Drivers/STM32L1xx_HAL_Driver/Inc/stm32l1xx_ll_dma.h ****   */
 845:Drivers/STM32L1xx_HAL_Driver/Inc/stm32l1xx_ll_dma.h **** __STATIC_INLINE uint32_t LL_DMA_GetMemorySize(DMA_TypeDef *DMAx, uint32_t Channel)
 846:Drivers/STM32L1xx_HAL_Driver/Inc/stm32l1xx_ll_dma.h **** {
 847:Drivers/STM32L1xx_HAL_Driver/Inc/stm32l1xx_ll_dma.h ****   return (READ_BIT(((DMA_Channel_TypeDef *)((uint32_t)((uint32_t)DMAx + CHANNEL_OFFSET_TAB[Channel 
 848:Drivers/STM32L1xx_HAL_Driver/Inc/stm32l1xx_ll_dma.h ****                    DMA_CCR_MSIZE));
 849:Drivers/STM32L1xx_HAL_Driver/Inc/stm32l1xx_ll_dma.h **** }
 850:Drivers/STM32L1xx_HAL_Driver/Inc/stm32l1xx_ll_dma.h **** 
 851:Drivers/STM32L1xx_HAL_Driver/Inc/stm32l1xx_ll_dma.h **** /**
 852:Drivers/STM32L1xx_HAL_Driver/Inc/stm32l1xx_ll_dma.h ****   * @brief  Set Channel priority level.
 853:Drivers/STM32L1xx_HAL_Driver/Inc/stm32l1xx_ll_dma.h ****   * @rmtoll CCR          PL            LL_DMA_SetChannelPriorityLevel
 854:Drivers/STM32L1xx_HAL_Driver/Inc/stm32l1xx_ll_dma.h ****   * @param  DMAx DMAx Instance
 855:Drivers/STM32L1xx_HAL_Driver/Inc/stm32l1xx_ll_dma.h ****   * @param  Channel This parameter can be one of the following values:
 856:Drivers/STM32L1xx_HAL_Driver/Inc/stm32l1xx_ll_dma.h ****   *         @arg @ref LL_DMA_CHANNEL_1
 857:Drivers/STM32L1xx_HAL_Driver/Inc/stm32l1xx_ll_dma.h ****   *         @arg @ref LL_DMA_CHANNEL_2
 858:Drivers/STM32L1xx_HAL_Driver/Inc/stm32l1xx_ll_dma.h ****   *         @arg @ref LL_DMA_CHANNEL_3
 859:Drivers/STM32L1xx_HAL_Driver/Inc/stm32l1xx_ll_dma.h ****   *         @arg @ref LL_DMA_CHANNEL_4
 860:Drivers/STM32L1xx_HAL_Driver/Inc/stm32l1xx_ll_dma.h ****   *         @arg @ref LL_DMA_CHANNEL_5
 861:Drivers/STM32L1xx_HAL_Driver/Inc/stm32l1xx_ll_dma.h ****   *         @arg @ref LL_DMA_CHANNEL_6
ARM GAS  C:\Users\domen\AppData\Local\Temp\ccqUJVhq.s 			page 34


 862:Drivers/STM32L1xx_HAL_Driver/Inc/stm32l1xx_ll_dma.h ****   *         @arg @ref LL_DMA_CHANNEL_7
 863:Drivers/STM32L1xx_HAL_Driver/Inc/stm32l1xx_ll_dma.h ****   * @param  Priority This parameter can be one of the following values:
 864:Drivers/STM32L1xx_HAL_Driver/Inc/stm32l1xx_ll_dma.h ****   *         @arg @ref LL_DMA_PRIORITY_LOW
 865:Drivers/STM32L1xx_HAL_Driver/Inc/stm32l1xx_ll_dma.h ****   *         @arg @ref LL_DMA_PRIORITY_MEDIUM
 866:Drivers/STM32L1xx_HAL_Driver/Inc/stm32l1xx_ll_dma.h ****   *         @arg @ref LL_DMA_PRIORITY_HIGH
 867:Drivers/STM32L1xx_HAL_Driver/Inc/stm32l1xx_ll_dma.h ****   *         @arg @ref LL_DMA_PRIORITY_VERYHIGH
 868:Drivers/STM32L1xx_HAL_Driver/Inc/stm32l1xx_ll_dma.h ****   * @retval None
 869:Drivers/STM32L1xx_HAL_Driver/Inc/stm32l1xx_ll_dma.h ****   */
 870:Drivers/STM32L1xx_HAL_Driver/Inc/stm32l1xx_ll_dma.h **** __STATIC_INLINE void LL_DMA_SetChannelPriorityLevel(DMA_TypeDef *DMAx, uint32_t Channel, uint32_t P
 871:Drivers/STM32L1xx_HAL_Driver/Inc/stm32l1xx_ll_dma.h **** {
 872:Drivers/STM32L1xx_HAL_Driver/Inc/stm32l1xx_ll_dma.h ****   MODIFY_REG(((DMA_Channel_TypeDef *)((uint32_t)((uint32_t)DMAx + CHANNEL_OFFSET_TAB[Channel - 1U])
 873:Drivers/STM32L1xx_HAL_Driver/Inc/stm32l1xx_ll_dma.h ****              Priority);
 874:Drivers/STM32L1xx_HAL_Driver/Inc/stm32l1xx_ll_dma.h **** }
 875:Drivers/STM32L1xx_HAL_Driver/Inc/stm32l1xx_ll_dma.h **** 
 876:Drivers/STM32L1xx_HAL_Driver/Inc/stm32l1xx_ll_dma.h **** /**
 877:Drivers/STM32L1xx_HAL_Driver/Inc/stm32l1xx_ll_dma.h ****   * @brief  Get Channel priority level.
 878:Drivers/STM32L1xx_HAL_Driver/Inc/stm32l1xx_ll_dma.h ****   * @rmtoll CCR          PL            LL_DMA_GetChannelPriorityLevel
 879:Drivers/STM32L1xx_HAL_Driver/Inc/stm32l1xx_ll_dma.h ****   * @param  DMAx DMAx Instance
 880:Drivers/STM32L1xx_HAL_Driver/Inc/stm32l1xx_ll_dma.h ****   * @param  Channel This parameter can be one of the following values:
 881:Drivers/STM32L1xx_HAL_Driver/Inc/stm32l1xx_ll_dma.h ****   *         @arg @ref LL_DMA_CHANNEL_1
 882:Drivers/STM32L1xx_HAL_Driver/Inc/stm32l1xx_ll_dma.h ****   *         @arg @ref LL_DMA_CHANNEL_2
 883:Drivers/STM32L1xx_HAL_Driver/Inc/stm32l1xx_ll_dma.h ****   *         @arg @ref LL_DMA_CHANNEL_3
 884:Drivers/STM32L1xx_HAL_Driver/Inc/stm32l1xx_ll_dma.h ****   *         @arg @ref LL_DMA_CHANNEL_4
 885:Drivers/STM32L1xx_HAL_Driver/Inc/stm32l1xx_ll_dma.h ****   *         @arg @ref LL_DMA_CHANNEL_5
 886:Drivers/STM32L1xx_HAL_Driver/Inc/stm32l1xx_ll_dma.h ****   *         @arg @ref LL_DMA_CHANNEL_6
 887:Drivers/STM32L1xx_HAL_Driver/Inc/stm32l1xx_ll_dma.h ****   *         @arg @ref LL_DMA_CHANNEL_7
 888:Drivers/STM32L1xx_HAL_Driver/Inc/stm32l1xx_ll_dma.h ****   * @retval Returned value can be one of the following values:
 889:Drivers/STM32L1xx_HAL_Driver/Inc/stm32l1xx_ll_dma.h ****   *         @arg @ref LL_DMA_PRIORITY_LOW
 890:Drivers/STM32L1xx_HAL_Driver/Inc/stm32l1xx_ll_dma.h ****   *         @arg @ref LL_DMA_PRIORITY_MEDIUM
 891:Drivers/STM32L1xx_HAL_Driver/Inc/stm32l1xx_ll_dma.h ****   *         @arg @ref LL_DMA_PRIORITY_HIGH
 892:Drivers/STM32L1xx_HAL_Driver/Inc/stm32l1xx_ll_dma.h ****   *         @arg @ref LL_DMA_PRIORITY_VERYHIGH
 893:Drivers/STM32L1xx_HAL_Driver/Inc/stm32l1xx_ll_dma.h ****   */
 894:Drivers/STM32L1xx_HAL_Driver/Inc/stm32l1xx_ll_dma.h **** __STATIC_INLINE uint32_t LL_DMA_GetChannelPriorityLevel(DMA_TypeDef *DMAx, uint32_t Channel)
 895:Drivers/STM32L1xx_HAL_Driver/Inc/stm32l1xx_ll_dma.h **** {
 896:Drivers/STM32L1xx_HAL_Driver/Inc/stm32l1xx_ll_dma.h ****   return (READ_BIT(((DMA_Channel_TypeDef *)((uint32_t)((uint32_t)DMAx + CHANNEL_OFFSET_TAB[Channel 
 897:Drivers/STM32L1xx_HAL_Driver/Inc/stm32l1xx_ll_dma.h ****                    DMA_CCR_PL));
 898:Drivers/STM32L1xx_HAL_Driver/Inc/stm32l1xx_ll_dma.h **** }
 899:Drivers/STM32L1xx_HAL_Driver/Inc/stm32l1xx_ll_dma.h **** 
 900:Drivers/STM32L1xx_HAL_Driver/Inc/stm32l1xx_ll_dma.h **** /**
 901:Drivers/STM32L1xx_HAL_Driver/Inc/stm32l1xx_ll_dma.h ****   * @brief  Set Number of data to transfer.
 902:Drivers/STM32L1xx_HAL_Driver/Inc/stm32l1xx_ll_dma.h ****   * @note   This action has no effect if
 903:Drivers/STM32L1xx_HAL_Driver/Inc/stm32l1xx_ll_dma.h ****   *         channel is enabled.
 904:Drivers/STM32L1xx_HAL_Driver/Inc/stm32l1xx_ll_dma.h ****   * @rmtoll CNDTR        NDT           LL_DMA_SetDataLength
 905:Drivers/STM32L1xx_HAL_Driver/Inc/stm32l1xx_ll_dma.h ****   * @param  DMAx DMAx Instance
 906:Drivers/STM32L1xx_HAL_Driver/Inc/stm32l1xx_ll_dma.h ****   * @param  Channel This parameter can be one of the following values:
 907:Drivers/STM32L1xx_HAL_Driver/Inc/stm32l1xx_ll_dma.h ****   *         @arg @ref LL_DMA_CHANNEL_1
 908:Drivers/STM32L1xx_HAL_Driver/Inc/stm32l1xx_ll_dma.h ****   *         @arg @ref LL_DMA_CHANNEL_2
 909:Drivers/STM32L1xx_HAL_Driver/Inc/stm32l1xx_ll_dma.h ****   *         @arg @ref LL_DMA_CHANNEL_3
 910:Drivers/STM32L1xx_HAL_Driver/Inc/stm32l1xx_ll_dma.h ****   *         @arg @ref LL_DMA_CHANNEL_4
 911:Drivers/STM32L1xx_HAL_Driver/Inc/stm32l1xx_ll_dma.h ****   *         @arg @ref LL_DMA_CHANNEL_5
 912:Drivers/STM32L1xx_HAL_Driver/Inc/stm32l1xx_ll_dma.h ****   *         @arg @ref LL_DMA_CHANNEL_6
 913:Drivers/STM32L1xx_HAL_Driver/Inc/stm32l1xx_ll_dma.h ****   *         @arg @ref LL_DMA_CHANNEL_7
 914:Drivers/STM32L1xx_HAL_Driver/Inc/stm32l1xx_ll_dma.h ****   * @param  NbData Between Min_Data = 0 and Max_Data = 0x0000FFFF
 915:Drivers/STM32L1xx_HAL_Driver/Inc/stm32l1xx_ll_dma.h ****   * @retval None
 916:Drivers/STM32L1xx_HAL_Driver/Inc/stm32l1xx_ll_dma.h ****   */
 917:Drivers/STM32L1xx_HAL_Driver/Inc/stm32l1xx_ll_dma.h **** __STATIC_INLINE void LL_DMA_SetDataLength(DMA_TypeDef *DMAx, uint32_t Channel, uint32_t NbData)
 918:Drivers/STM32L1xx_HAL_Driver/Inc/stm32l1xx_ll_dma.h **** {
ARM GAS  C:\Users\domen\AppData\Local\Temp\ccqUJVhq.s 			page 35


 919:Drivers/STM32L1xx_HAL_Driver/Inc/stm32l1xx_ll_dma.h ****   MODIFY_REG(((DMA_Channel_TypeDef *)((uint32_t)((uint32_t)DMAx + CHANNEL_OFFSET_TAB[Channel - 1U])
 920:Drivers/STM32L1xx_HAL_Driver/Inc/stm32l1xx_ll_dma.h ****              DMA_CNDTR_NDT, NbData);
 921:Drivers/STM32L1xx_HAL_Driver/Inc/stm32l1xx_ll_dma.h **** }
 922:Drivers/STM32L1xx_HAL_Driver/Inc/stm32l1xx_ll_dma.h **** 
 923:Drivers/STM32L1xx_HAL_Driver/Inc/stm32l1xx_ll_dma.h **** /**
 924:Drivers/STM32L1xx_HAL_Driver/Inc/stm32l1xx_ll_dma.h ****   * @brief  Get Number of data to transfer.
 925:Drivers/STM32L1xx_HAL_Driver/Inc/stm32l1xx_ll_dma.h ****   * @note   Once the channel is enabled, the return value indicate the
 926:Drivers/STM32L1xx_HAL_Driver/Inc/stm32l1xx_ll_dma.h ****   *         remaining bytes to be transmitted.
 927:Drivers/STM32L1xx_HAL_Driver/Inc/stm32l1xx_ll_dma.h ****   * @rmtoll CNDTR        NDT           LL_DMA_GetDataLength
 928:Drivers/STM32L1xx_HAL_Driver/Inc/stm32l1xx_ll_dma.h ****   * @param  DMAx DMAx Instance
 929:Drivers/STM32L1xx_HAL_Driver/Inc/stm32l1xx_ll_dma.h ****   * @param  Channel This parameter can be one of the following values:
 930:Drivers/STM32L1xx_HAL_Driver/Inc/stm32l1xx_ll_dma.h ****   *         @arg @ref LL_DMA_CHANNEL_1
 931:Drivers/STM32L1xx_HAL_Driver/Inc/stm32l1xx_ll_dma.h ****   *         @arg @ref LL_DMA_CHANNEL_2
 932:Drivers/STM32L1xx_HAL_Driver/Inc/stm32l1xx_ll_dma.h ****   *         @arg @ref LL_DMA_CHANNEL_3
 933:Drivers/STM32L1xx_HAL_Driver/Inc/stm32l1xx_ll_dma.h ****   *         @arg @ref LL_DMA_CHANNEL_4
 934:Drivers/STM32L1xx_HAL_Driver/Inc/stm32l1xx_ll_dma.h ****   *         @arg @ref LL_DMA_CHANNEL_5
 935:Drivers/STM32L1xx_HAL_Driver/Inc/stm32l1xx_ll_dma.h ****   *         @arg @ref LL_DMA_CHANNEL_6
 936:Drivers/STM32L1xx_HAL_Driver/Inc/stm32l1xx_ll_dma.h ****   *         @arg @ref LL_DMA_CHANNEL_7
 937:Drivers/STM32L1xx_HAL_Driver/Inc/stm32l1xx_ll_dma.h ****   * @retval Between Min_Data = 0 and Max_Data = 0xFFFFFFFF
 938:Drivers/STM32L1xx_HAL_Driver/Inc/stm32l1xx_ll_dma.h ****   */
 939:Drivers/STM32L1xx_HAL_Driver/Inc/stm32l1xx_ll_dma.h **** __STATIC_INLINE uint32_t LL_DMA_GetDataLength(DMA_TypeDef *DMAx, uint32_t Channel)
 940:Drivers/STM32L1xx_HAL_Driver/Inc/stm32l1xx_ll_dma.h **** {
 941:Drivers/STM32L1xx_HAL_Driver/Inc/stm32l1xx_ll_dma.h ****   return (READ_BIT(((DMA_Channel_TypeDef *)((uint32_t)((uint32_t)DMAx + CHANNEL_OFFSET_TAB[Channel 
 942:Drivers/STM32L1xx_HAL_Driver/Inc/stm32l1xx_ll_dma.h ****                    DMA_CNDTR_NDT));
 943:Drivers/STM32L1xx_HAL_Driver/Inc/stm32l1xx_ll_dma.h **** }
 944:Drivers/STM32L1xx_HAL_Driver/Inc/stm32l1xx_ll_dma.h **** 
 945:Drivers/STM32L1xx_HAL_Driver/Inc/stm32l1xx_ll_dma.h **** /**
 946:Drivers/STM32L1xx_HAL_Driver/Inc/stm32l1xx_ll_dma.h ****   * @brief  Configure the Source and Destination addresses.
 947:Drivers/STM32L1xx_HAL_Driver/Inc/stm32l1xx_ll_dma.h ****   * @note   This API must not be called when the DMA channel is enabled.
 948:Drivers/STM32L1xx_HAL_Driver/Inc/stm32l1xx_ll_dma.h ****   * @note   Each IP using DMA provides an API to get directly the register adress (LL_PPP_DMA_GetRe
 949:Drivers/STM32L1xx_HAL_Driver/Inc/stm32l1xx_ll_dma.h ****   * @rmtoll CPAR         PA            LL_DMA_ConfigAddresses\n
 950:Drivers/STM32L1xx_HAL_Driver/Inc/stm32l1xx_ll_dma.h ****   *         CMAR         MA            LL_DMA_ConfigAddresses
 951:Drivers/STM32L1xx_HAL_Driver/Inc/stm32l1xx_ll_dma.h ****   * @param  DMAx DMAx Instance
 952:Drivers/STM32L1xx_HAL_Driver/Inc/stm32l1xx_ll_dma.h ****   * @param  Channel This parameter can be one of the following values:
 953:Drivers/STM32L1xx_HAL_Driver/Inc/stm32l1xx_ll_dma.h ****   *         @arg @ref LL_DMA_CHANNEL_1
 954:Drivers/STM32L1xx_HAL_Driver/Inc/stm32l1xx_ll_dma.h ****   *         @arg @ref LL_DMA_CHANNEL_2
 955:Drivers/STM32L1xx_HAL_Driver/Inc/stm32l1xx_ll_dma.h ****   *         @arg @ref LL_DMA_CHANNEL_3
 956:Drivers/STM32L1xx_HAL_Driver/Inc/stm32l1xx_ll_dma.h ****   *         @arg @ref LL_DMA_CHANNEL_4
 957:Drivers/STM32L1xx_HAL_Driver/Inc/stm32l1xx_ll_dma.h ****   *         @arg @ref LL_DMA_CHANNEL_5
 958:Drivers/STM32L1xx_HAL_Driver/Inc/stm32l1xx_ll_dma.h ****   *         @arg @ref LL_DMA_CHANNEL_6
 959:Drivers/STM32L1xx_HAL_Driver/Inc/stm32l1xx_ll_dma.h ****   *         @arg @ref LL_DMA_CHANNEL_7
 960:Drivers/STM32L1xx_HAL_Driver/Inc/stm32l1xx_ll_dma.h ****   * @param  SrcAddress Between Min_Data = 0 and Max_Data = 0xFFFFFFFF
 961:Drivers/STM32L1xx_HAL_Driver/Inc/stm32l1xx_ll_dma.h ****   * @param  DstAddress Between Min_Data = 0 and Max_Data = 0xFFFFFFFF
 962:Drivers/STM32L1xx_HAL_Driver/Inc/stm32l1xx_ll_dma.h ****   * @param  Direction This parameter can be one of the following values:
 963:Drivers/STM32L1xx_HAL_Driver/Inc/stm32l1xx_ll_dma.h ****   *         @arg @ref LL_DMA_DIRECTION_PERIPH_TO_MEMORY
 964:Drivers/STM32L1xx_HAL_Driver/Inc/stm32l1xx_ll_dma.h ****   *         @arg @ref LL_DMA_DIRECTION_MEMORY_TO_PERIPH
 965:Drivers/STM32L1xx_HAL_Driver/Inc/stm32l1xx_ll_dma.h ****   *         @arg @ref LL_DMA_DIRECTION_MEMORY_TO_MEMORY
 966:Drivers/STM32L1xx_HAL_Driver/Inc/stm32l1xx_ll_dma.h ****   * @retval None
 967:Drivers/STM32L1xx_HAL_Driver/Inc/stm32l1xx_ll_dma.h ****   */
 968:Drivers/STM32L1xx_HAL_Driver/Inc/stm32l1xx_ll_dma.h **** __STATIC_INLINE void LL_DMA_ConfigAddresses(DMA_TypeDef *DMAx, uint32_t Channel, uint32_t SrcAddres
 969:Drivers/STM32L1xx_HAL_Driver/Inc/stm32l1xx_ll_dma.h ****                                             uint32_t DstAddress, uint32_t Direction)
 970:Drivers/STM32L1xx_HAL_Driver/Inc/stm32l1xx_ll_dma.h **** {
 971:Drivers/STM32L1xx_HAL_Driver/Inc/stm32l1xx_ll_dma.h ****   /* Direction Memory to Periph */
 972:Drivers/STM32L1xx_HAL_Driver/Inc/stm32l1xx_ll_dma.h ****   if (Direction == LL_DMA_DIRECTION_MEMORY_TO_PERIPH)
 973:Drivers/STM32L1xx_HAL_Driver/Inc/stm32l1xx_ll_dma.h ****   {
 974:Drivers/STM32L1xx_HAL_Driver/Inc/stm32l1xx_ll_dma.h ****     WRITE_REG(((DMA_Channel_TypeDef *)((uint32_t)((uint32_t)DMAx + CHANNEL_OFFSET_TAB[Channel - 1U]
 975:Drivers/STM32L1xx_HAL_Driver/Inc/stm32l1xx_ll_dma.h ****     WRITE_REG(((DMA_Channel_TypeDef *)((uint32_t)((uint32_t)DMAx + CHANNEL_OFFSET_TAB[Channel - 1U]
ARM GAS  C:\Users\domen\AppData\Local\Temp\ccqUJVhq.s 			page 36


 976:Drivers/STM32L1xx_HAL_Driver/Inc/stm32l1xx_ll_dma.h ****   }
 977:Drivers/STM32L1xx_HAL_Driver/Inc/stm32l1xx_ll_dma.h ****   /* Direction Periph to Memory and Memory to Memory */
 978:Drivers/STM32L1xx_HAL_Driver/Inc/stm32l1xx_ll_dma.h ****   else
 979:Drivers/STM32L1xx_HAL_Driver/Inc/stm32l1xx_ll_dma.h ****   {
 980:Drivers/STM32L1xx_HAL_Driver/Inc/stm32l1xx_ll_dma.h ****     WRITE_REG(((DMA_Channel_TypeDef *)((uint32_t)((uint32_t)DMAx + CHANNEL_OFFSET_TAB[Channel - 1U]
 981:Drivers/STM32L1xx_HAL_Driver/Inc/stm32l1xx_ll_dma.h ****     WRITE_REG(((DMA_Channel_TypeDef *)((uint32_t)((uint32_t)DMAx + CHANNEL_OFFSET_TAB[Channel - 1U]
 982:Drivers/STM32L1xx_HAL_Driver/Inc/stm32l1xx_ll_dma.h ****   }
 983:Drivers/STM32L1xx_HAL_Driver/Inc/stm32l1xx_ll_dma.h **** }
 984:Drivers/STM32L1xx_HAL_Driver/Inc/stm32l1xx_ll_dma.h **** 
 985:Drivers/STM32L1xx_HAL_Driver/Inc/stm32l1xx_ll_dma.h **** /**
 986:Drivers/STM32L1xx_HAL_Driver/Inc/stm32l1xx_ll_dma.h ****   * @brief  Set the Memory address.
 987:Drivers/STM32L1xx_HAL_Driver/Inc/stm32l1xx_ll_dma.h ****   * @note   Interface used for direction LL_DMA_DIRECTION_PERIPH_TO_MEMORY or LL_DMA_DIRECTION_MEMO
 988:Drivers/STM32L1xx_HAL_Driver/Inc/stm32l1xx_ll_dma.h ****   * @note   This API must not be called when the DMA channel is enabled.
 989:Drivers/STM32L1xx_HAL_Driver/Inc/stm32l1xx_ll_dma.h ****   * @rmtoll CMAR         MA            LL_DMA_SetMemoryAddress
 990:Drivers/STM32L1xx_HAL_Driver/Inc/stm32l1xx_ll_dma.h ****   * @param  DMAx DMAx Instance
 991:Drivers/STM32L1xx_HAL_Driver/Inc/stm32l1xx_ll_dma.h ****   * @param  Channel This parameter can be one of the following values:
 992:Drivers/STM32L1xx_HAL_Driver/Inc/stm32l1xx_ll_dma.h ****   *         @arg @ref LL_DMA_CHANNEL_1
 993:Drivers/STM32L1xx_HAL_Driver/Inc/stm32l1xx_ll_dma.h ****   *         @arg @ref LL_DMA_CHANNEL_2
 994:Drivers/STM32L1xx_HAL_Driver/Inc/stm32l1xx_ll_dma.h ****   *         @arg @ref LL_DMA_CHANNEL_3
 995:Drivers/STM32L1xx_HAL_Driver/Inc/stm32l1xx_ll_dma.h ****   *         @arg @ref LL_DMA_CHANNEL_4
 996:Drivers/STM32L1xx_HAL_Driver/Inc/stm32l1xx_ll_dma.h ****   *         @arg @ref LL_DMA_CHANNEL_5
 997:Drivers/STM32L1xx_HAL_Driver/Inc/stm32l1xx_ll_dma.h ****   *         @arg @ref LL_DMA_CHANNEL_6
 998:Drivers/STM32L1xx_HAL_Driver/Inc/stm32l1xx_ll_dma.h ****   *         @arg @ref LL_DMA_CHANNEL_7
 999:Drivers/STM32L1xx_HAL_Driver/Inc/stm32l1xx_ll_dma.h ****   * @param  MemoryAddress Between Min_Data = 0 and Max_Data = 0xFFFFFFFF
1000:Drivers/STM32L1xx_HAL_Driver/Inc/stm32l1xx_ll_dma.h ****   * @retval None
1001:Drivers/STM32L1xx_HAL_Driver/Inc/stm32l1xx_ll_dma.h ****   */
1002:Drivers/STM32L1xx_HAL_Driver/Inc/stm32l1xx_ll_dma.h **** __STATIC_INLINE void LL_DMA_SetMemoryAddress(DMA_TypeDef *DMAx, uint32_t Channel, uint32_t MemoryAd
1003:Drivers/STM32L1xx_HAL_Driver/Inc/stm32l1xx_ll_dma.h **** {
1004:Drivers/STM32L1xx_HAL_Driver/Inc/stm32l1xx_ll_dma.h ****   WRITE_REG(((DMA_Channel_TypeDef *)((uint32_t)((uint32_t)DMAx + CHANNEL_OFFSET_TAB[Channel - 1U]))
1005:Drivers/STM32L1xx_HAL_Driver/Inc/stm32l1xx_ll_dma.h **** }
1006:Drivers/STM32L1xx_HAL_Driver/Inc/stm32l1xx_ll_dma.h **** 
1007:Drivers/STM32L1xx_HAL_Driver/Inc/stm32l1xx_ll_dma.h **** /**
1008:Drivers/STM32L1xx_HAL_Driver/Inc/stm32l1xx_ll_dma.h ****   * @brief  Set the Peripheral address.
1009:Drivers/STM32L1xx_HAL_Driver/Inc/stm32l1xx_ll_dma.h ****   * @note   Interface used for direction LL_DMA_DIRECTION_PERIPH_TO_MEMORY or LL_DMA_DIRECTION_MEMO
1010:Drivers/STM32L1xx_HAL_Driver/Inc/stm32l1xx_ll_dma.h ****   * @note   This API must not be called when the DMA channel is enabled.
1011:Drivers/STM32L1xx_HAL_Driver/Inc/stm32l1xx_ll_dma.h ****   * @rmtoll CPAR         PA            LL_DMA_SetPeriphAddress
1012:Drivers/STM32L1xx_HAL_Driver/Inc/stm32l1xx_ll_dma.h ****   * @param  DMAx DMAx Instance
1013:Drivers/STM32L1xx_HAL_Driver/Inc/stm32l1xx_ll_dma.h ****   * @param  Channel This parameter can be one of the following values:
1014:Drivers/STM32L1xx_HAL_Driver/Inc/stm32l1xx_ll_dma.h ****   *         @arg @ref LL_DMA_CHANNEL_1
1015:Drivers/STM32L1xx_HAL_Driver/Inc/stm32l1xx_ll_dma.h ****   *         @arg @ref LL_DMA_CHANNEL_2
1016:Drivers/STM32L1xx_HAL_Driver/Inc/stm32l1xx_ll_dma.h ****   *         @arg @ref LL_DMA_CHANNEL_3
1017:Drivers/STM32L1xx_HAL_Driver/Inc/stm32l1xx_ll_dma.h ****   *         @arg @ref LL_DMA_CHANNEL_4
1018:Drivers/STM32L1xx_HAL_Driver/Inc/stm32l1xx_ll_dma.h ****   *         @arg @ref LL_DMA_CHANNEL_5
1019:Drivers/STM32L1xx_HAL_Driver/Inc/stm32l1xx_ll_dma.h ****   *         @arg @ref LL_DMA_CHANNEL_6
1020:Drivers/STM32L1xx_HAL_Driver/Inc/stm32l1xx_ll_dma.h ****   *         @arg @ref LL_DMA_CHANNEL_7
1021:Drivers/STM32L1xx_HAL_Driver/Inc/stm32l1xx_ll_dma.h ****   * @param  PeriphAddress Between Min_Data = 0 and Max_Data = 0xFFFFFFFF
1022:Drivers/STM32L1xx_HAL_Driver/Inc/stm32l1xx_ll_dma.h ****   * @retval None
1023:Drivers/STM32L1xx_HAL_Driver/Inc/stm32l1xx_ll_dma.h ****   */
1024:Drivers/STM32L1xx_HAL_Driver/Inc/stm32l1xx_ll_dma.h **** __STATIC_INLINE void LL_DMA_SetPeriphAddress(DMA_TypeDef *DMAx, uint32_t Channel, uint32_t PeriphAd
1025:Drivers/STM32L1xx_HAL_Driver/Inc/stm32l1xx_ll_dma.h **** {
1026:Drivers/STM32L1xx_HAL_Driver/Inc/stm32l1xx_ll_dma.h ****   WRITE_REG(((DMA_Channel_TypeDef *)((uint32_t)((uint32_t)DMAx + CHANNEL_OFFSET_TAB[Channel - 1U]))
1027:Drivers/STM32L1xx_HAL_Driver/Inc/stm32l1xx_ll_dma.h **** }
1028:Drivers/STM32L1xx_HAL_Driver/Inc/stm32l1xx_ll_dma.h **** 
1029:Drivers/STM32L1xx_HAL_Driver/Inc/stm32l1xx_ll_dma.h **** /**
1030:Drivers/STM32L1xx_HAL_Driver/Inc/stm32l1xx_ll_dma.h ****   * @brief  Get Memory address.
1031:Drivers/STM32L1xx_HAL_Driver/Inc/stm32l1xx_ll_dma.h ****   * @note   Interface used for direction LL_DMA_DIRECTION_PERIPH_TO_MEMORY or LL_DMA_DIRECTION_MEMO
1032:Drivers/STM32L1xx_HAL_Driver/Inc/stm32l1xx_ll_dma.h ****   * @rmtoll CMAR         MA            LL_DMA_GetMemoryAddress
ARM GAS  C:\Users\domen\AppData\Local\Temp\ccqUJVhq.s 			page 37


1033:Drivers/STM32L1xx_HAL_Driver/Inc/stm32l1xx_ll_dma.h ****   * @param  DMAx DMAx Instance
1034:Drivers/STM32L1xx_HAL_Driver/Inc/stm32l1xx_ll_dma.h ****   * @param  Channel This parameter can be one of the following values:
1035:Drivers/STM32L1xx_HAL_Driver/Inc/stm32l1xx_ll_dma.h ****   *         @arg @ref LL_DMA_CHANNEL_1
1036:Drivers/STM32L1xx_HAL_Driver/Inc/stm32l1xx_ll_dma.h ****   *         @arg @ref LL_DMA_CHANNEL_2
1037:Drivers/STM32L1xx_HAL_Driver/Inc/stm32l1xx_ll_dma.h ****   *         @arg @ref LL_DMA_CHANNEL_3
1038:Drivers/STM32L1xx_HAL_Driver/Inc/stm32l1xx_ll_dma.h ****   *         @arg @ref LL_DMA_CHANNEL_4
1039:Drivers/STM32L1xx_HAL_Driver/Inc/stm32l1xx_ll_dma.h ****   *         @arg @ref LL_DMA_CHANNEL_5
1040:Drivers/STM32L1xx_HAL_Driver/Inc/stm32l1xx_ll_dma.h ****   *         @arg @ref LL_DMA_CHANNEL_6
1041:Drivers/STM32L1xx_HAL_Driver/Inc/stm32l1xx_ll_dma.h ****   *         @arg @ref LL_DMA_CHANNEL_7
1042:Drivers/STM32L1xx_HAL_Driver/Inc/stm32l1xx_ll_dma.h ****   * @retval Between Min_Data = 0 and Max_Data = 0xFFFFFFFF
1043:Drivers/STM32L1xx_HAL_Driver/Inc/stm32l1xx_ll_dma.h ****   */
1044:Drivers/STM32L1xx_HAL_Driver/Inc/stm32l1xx_ll_dma.h **** __STATIC_INLINE uint32_t LL_DMA_GetMemoryAddress(DMA_TypeDef *DMAx, uint32_t Channel)
1045:Drivers/STM32L1xx_HAL_Driver/Inc/stm32l1xx_ll_dma.h **** {
1046:Drivers/STM32L1xx_HAL_Driver/Inc/stm32l1xx_ll_dma.h ****   return (READ_REG(((DMA_Channel_TypeDef *)((uint32_t)((uint32_t)DMAx + CHANNEL_OFFSET_TAB[Channel 
1047:Drivers/STM32L1xx_HAL_Driver/Inc/stm32l1xx_ll_dma.h **** }
1048:Drivers/STM32L1xx_HAL_Driver/Inc/stm32l1xx_ll_dma.h **** 
1049:Drivers/STM32L1xx_HAL_Driver/Inc/stm32l1xx_ll_dma.h **** /**
1050:Drivers/STM32L1xx_HAL_Driver/Inc/stm32l1xx_ll_dma.h ****   * @brief  Get Peripheral address.
1051:Drivers/STM32L1xx_HAL_Driver/Inc/stm32l1xx_ll_dma.h ****   * @note   Interface used for direction LL_DMA_DIRECTION_PERIPH_TO_MEMORY or LL_DMA_DIRECTION_MEMO
1052:Drivers/STM32L1xx_HAL_Driver/Inc/stm32l1xx_ll_dma.h ****   * @rmtoll CPAR         PA            LL_DMA_GetPeriphAddress
1053:Drivers/STM32L1xx_HAL_Driver/Inc/stm32l1xx_ll_dma.h ****   * @param  DMAx DMAx Instance
1054:Drivers/STM32L1xx_HAL_Driver/Inc/stm32l1xx_ll_dma.h ****   * @param  Channel This parameter can be one of the following values:
1055:Drivers/STM32L1xx_HAL_Driver/Inc/stm32l1xx_ll_dma.h ****   *         @arg @ref LL_DMA_CHANNEL_1
1056:Drivers/STM32L1xx_HAL_Driver/Inc/stm32l1xx_ll_dma.h ****   *         @arg @ref LL_DMA_CHANNEL_2
1057:Drivers/STM32L1xx_HAL_Driver/Inc/stm32l1xx_ll_dma.h ****   *         @arg @ref LL_DMA_CHANNEL_3
1058:Drivers/STM32L1xx_HAL_Driver/Inc/stm32l1xx_ll_dma.h ****   *         @arg @ref LL_DMA_CHANNEL_4
1059:Drivers/STM32L1xx_HAL_Driver/Inc/stm32l1xx_ll_dma.h ****   *         @arg @ref LL_DMA_CHANNEL_5
1060:Drivers/STM32L1xx_HAL_Driver/Inc/stm32l1xx_ll_dma.h ****   *         @arg @ref LL_DMA_CHANNEL_6
1061:Drivers/STM32L1xx_HAL_Driver/Inc/stm32l1xx_ll_dma.h ****   *         @arg @ref LL_DMA_CHANNEL_7
1062:Drivers/STM32L1xx_HAL_Driver/Inc/stm32l1xx_ll_dma.h ****   * @retval Between Min_Data = 0 and Max_Data = 0xFFFFFFFF
1063:Drivers/STM32L1xx_HAL_Driver/Inc/stm32l1xx_ll_dma.h ****   */
1064:Drivers/STM32L1xx_HAL_Driver/Inc/stm32l1xx_ll_dma.h **** __STATIC_INLINE uint32_t LL_DMA_GetPeriphAddress(DMA_TypeDef *DMAx, uint32_t Channel)
1065:Drivers/STM32L1xx_HAL_Driver/Inc/stm32l1xx_ll_dma.h **** {
1066:Drivers/STM32L1xx_HAL_Driver/Inc/stm32l1xx_ll_dma.h ****   return (READ_REG(((DMA_Channel_TypeDef *)((uint32_t)((uint32_t)DMAx + CHANNEL_OFFSET_TAB[Channel 
1067:Drivers/STM32L1xx_HAL_Driver/Inc/stm32l1xx_ll_dma.h **** }
1068:Drivers/STM32L1xx_HAL_Driver/Inc/stm32l1xx_ll_dma.h **** 
1069:Drivers/STM32L1xx_HAL_Driver/Inc/stm32l1xx_ll_dma.h **** /**
1070:Drivers/STM32L1xx_HAL_Driver/Inc/stm32l1xx_ll_dma.h ****   * @brief  Set the Memory to Memory Source address.
1071:Drivers/STM32L1xx_HAL_Driver/Inc/stm32l1xx_ll_dma.h ****   * @note   Interface used for direction LL_DMA_DIRECTION_MEMORY_TO_MEMORY only.
1072:Drivers/STM32L1xx_HAL_Driver/Inc/stm32l1xx_ll_dma.h ****   * @note   This API must not be called when the DMA channel is enabled.
1073:Drivers/STM32L1xx_HAL_Driver/Inc/stm32l1xx_ll_dma.h ****   * @rmtoll CPAR         PA            LL_DMA_SetM2MSrcAddress
1074:Drivers/STM32L1xx_HAL_Driver/Inc/stm32l1xx_ll_dma.h ****   * @param  DMAx DMAx Instance
1075:Drivers/STM32L1xx_HAL_Driver/Inc/stm32l1xx_ll_dma.h ****   * @param  Channel This parameter can be one of the following values:
1076:Drivers/STM32L1xx_HAL_Driver/Inc/stm32l1xx_ll_dma.h ****   *         @arg @ref LL_DMA_CHANNEL_1
1077:Drivers/STM32L1xx_HAL_Driver/Inc/stm32l1xx_ll_dma.h ****   *         @arg @ref LL_DMA_CHANNEL_2
1078:Drivers/STM32L1xx_HAL_Driver/Inc/stm32l1xx_ll_dma.h ****   *         @arg @ref LL_DMA_CHANNEL_3
1079:Drivers/STM32L1xx_HAL_Driver/Inc/stm32l1xx_ll_dma.h ****   *         @arg @ref LL_DMA_CHANNEL_4
1080:Drivers/STM32L1xx_HAL_Driver/Inc/stm32l1xx_ll_dma.h ****   *         @arg @ref LL_DMA_CHANNEL_5
1081:Drivers/STM32L1xx_HAL_Driver/Inc/stm32l1xx_ll_dma.h ****   *         @arg @ref LL_DMA_CHANNEL_6
1082:Drivers/STM32L1xx_HAL_Driver/Inc/stm32l1xx_ll_dma.h ****   *         @arg @ref LL_DMA_CHANNEL_7
1083:Drivers/STM32L1xx_HAL_Driver/Inc/stm32l1xx_ll_dma.h ****   * @param  MemoryAddress Between Min_Data = 0 and Max_Data = 0xFFFFFFFF
1084:Drivers/STM32L1xx_HAL_Driver/Inc/stm32l1xx_ll_dma.h ****   * @retval None
1085:Drivers/STM32L1xx_HAL_Driver/Inc/stm32l1xx_ll_dma.h ****   */
1086:Drivers/STM32L1xx_HAL_Driver/Inc/stm32l1xx_ll_dma.h **** __STATIC_INLINE void LL_DMA_SetM2MSrcAddress(DMA_TypeDef *DMAx, uint32_t Channel, uint32_t MemoryAd
1087:Drivers/STM32L1xx_HAL_Driver/Inc/stm32l1xx_ll_dma.h **** {
1088:Drivers/STM32L1xx_HAL_Driver/Inc/stm32l1xx_ll_dma.h ****   WRITE_REG(((DMA_Channel_TypeDef *)((uint32_t)((uint32_t)DMAx + CHANNEL_OFFSET_TAB[Channel - 1U]))
1089:Drivers/STM32L1xx_HAL_Driver/Inc/stm32l1xx_ll_dma.h **** }
ARM GAS  C:\Users\domen\AppData\Local\Temp\ccqUJVhq.s 			page 38


1090:Drivers/STM32L1xx_HAL_Driver/Inc/stm32l1xx_ll_dma.h **** 
1091:Drivers/STM32L1xx_HAL_Driver/Inc/stm32l1xx_ll_dma.h **** /**
1092:Drivers/STM32L1xx_HAL_Driver/Inc/stm32l1xx_ll_dma.h ****   * @brief  Set the Memory to Memory Destination address.
1093:Drivers/STM32L1xx_HAL_Driver/Inc/stm32l1xx_ll_dma.h ****   * @note   Interface used for direction LL_DMA_DIRECTION_MEMORY_TO_MEMORY only.
1094:Drivers/STM32L1xx_HAL_Driver/Inc/stm32l1xx_ll_dma.h ****   * @note   This API must not be called when the DMA channel is enabled.
1095:Drivers/STM32L1xx_HAL_Driver/Inc/stm32l1xx_ll_dma.h ****   * @rmtoll CMAR         MA            LL_DMA_SetM2MDstAddress
1096:Drivers/STM32L1xx_HAL_Driver/Inc/stm32l1xx_ll_dma.h ****   * @param  DMAx DMAx Instance
1097:Drivers/STM32L1xx_HAL_Driver/Inc/stm32l1xx_ll_dma.h ****   * @param  Channel This parameter can be one of the following values:
1098:Drivers/STM32L1xx_HAL_Driver/Inc/stm32l1xx_ll_dma.h ****   *         @arg @ref LL_DMA_CHANNEL_1
1099:Drivers/STM32L1xx_HAL_Driver/Inc/stm32l1xx_ll_dma.h ****   *         @arg @ref LL_DMA_CHANNEL_2
1100:Drivers/STM32L1xx_HAL_Driver/Inc/stm32l1xx_ll_dma.h ****   *         @arg @ref LL_DMA_CHANNEL_3
1101:Drivers/STM32L1xx_HAL_Driver/Inc/stm32l1xx_ll_dma.h ****   *         @arg @ref LL_DMA_CHANNEL_4
1102:Drivers/STM32L1xx_HAL_Driver/Inc/stm32l1xx_ll_dma.h ****   *         @arg @ref LL_DMA_CHANNEL_5
1103:Drivers/STM32L1xx_HAL_Driver/Inc/stm32l1xx_ll_dma.h ****   *         @arg @ref LL_DMA_CHANNEL_6
1104:Drivers/STM32L1xx_HAL_Driver/Inc/stm32l1xx_ll_dma.h ****   *         @arg @ref LL_DMA_CHANNEL_7
1105:Drivers/STM32L1xx_HAL_Driver/Inc/stm32l1xx_ll_dma.h ****   * @param  MemoryAddress Between Min_Data = 0 and Max_Data = 0xFFFFFFFF
1106:Drivers/STM32L1xx_HAL_Driver/Inc/stm32l1xx_ll_dma.h ****   * @retval None
1107:Drivers/STM32L1xx_HAL_Driver/Inc/stm32l1xx_ll_dma.h ****   */
1108:Drivers/STM32L1xx_HAL_Driver/Inc/stm32l1xx_ll_dma.h **** __STATIC_INLINE void LL_DMA_SetM2MDstAddress(DMA_TypeDef *DMAx, uint32_t Channel, uint32_t MemoryAd
1109:Drivers/STM32L1xx_HAL_Driver/Inc/stm32l1xx_ll_dma.h **** {
1110:Drivers/STM32L1xx_HAL_Driver/Inc/stm32l1xx_ll_dma.h ****   WRITE_REG(((DMA_Channel_TypeDef *)((uint32_t)((uint32_t)DMAx + CHANNEL_OFFSET_TAB[Channel - 1U]))
1111:Drivers/STM32L1xx_HAL_Driver/Inc/stm32l1xx_ll_dma.h **** }
1112:Drivers/STM32L1xx_HAL_Driver/Inc/stm32l1xx_ll_dma.h **** 
1113:Drivers/STM32L1xx_HAL_Driver/Inc/stm32l1xx_ll_dma.h **** /**
1114:Drivers/STM32L1xx_HAL_Driver/Inc/stm32l1xx_ll_dma.h ****   * @brief  Get the Memory to Memory Source address.
1115:Drivers/STM32L1xx_HAL_Driver/Inc/stm32l1xx_ll_dma.h ****   * @note   Interface used for direction LL_DMA_DIRECTION_MEMORY_TO_MEMORY only.
1116:Drivers/STM32L1xx_HAL_Driver/Inc/stm32l1xx_ll_dma.h ****   * @rmtoll CPAR         PA            LL_DMA_GetM2MSrcAddress
1117:Drivers/STM32L1xx_HAL_Driver/Inc/stm32l1xx_ll_dma.h ****   * @param  DMAx DMAx Instance
1118:Drivers/STM32L1xx_HAL_Driver/Inc/stm32l1xx_ll_dma.h ****   * @param  Channel This parameter can be one of the following values:
1119:Drivers/STM32L1xx_HAL_Driver/Inc/stm32l1xx_ll_dma.h ****   *         @arg @ref LL_DMA_CHANNEL_1
1120:Drivers/STM32L1xx_HAL_Driver/Inc/stm32l1xx_ll_dma.h ****   *         @arg @ref LL_DMA_CHANNEL_2
1121:Drivers/STM32L1xx_HAL_Driver/Inc/stm32l1xx_ll_dma.h ****   *         @arg @ref LL_DMA_CHANNEL_3
1122:Drivers/STM32L1xx_HAL_Driver/Inc/stm32l1xx_ll_dma.h ****   *         @arg @ref LL_DMA_CHANNEL_4
1123:Drivers/STM32L1xx_HAL_Driver/Inc/stm32l1xx_ll_dma.h ****   *         @arg @ref LL_DMA_CHANNEL_5
1124:Drivers/STM32L1xx_HAL_Driver/Inc/stm32l1xx_ll_dma.h ****   *         @arg @ref LL_DMA_CHANNEL_6
1125:Drivers/STM32L1xx_HAL_Driver/Inc/stm32l1xx_ll_dma.h ****   *         @arg @ref LL_DMA_CHANNEL_7
1126:Drivers/STM32L1xx_HAL_Driver/Inc/stm32l1xx_ll_dma.h ****   * @retval Between Min_Data = 0 and Max_Data = 0xFFFFFFFF
1127:Drivers/STM32L1xx_HAL_Driver/Inc/stm32l1xx_ll_dma.h ****   */
1128:Drivers/STM32L1xx_HAL_Driver/Inc/stm32l1xx_ll_dma.h **** __STATIC_INLINE uint32_t LL_DMA_GetM2MSrcAddress(DMA_TypeDef *DMAx, uint32_t Channel)
1129:Drivers/STM32L1xx_HAL_Driver/Inc/stm32l1xx_ll_dma.h **** {
1130:Drivers/STM32L1xx_HAL_Driver/Inc/stm32l1xx_ll_dma.h ****   return (READ_REG(((DMA_Channel_TypeDef *)((uint32_t)((uint32_t)DMAx + CHANNEL_OFFSET_TAB[Channel 
1131:Drivers/STM32L1xx_HAL_Driver/Inc/stm32l1xx_ll_dma.h **** }
1132:Drivers/STM32L1xx_HAL_Driver/Inc/stm32l1xx_ll_dma.h **** 
1133:Drivers/STM32L1xx_HAL_Driver/Inc/stm32l1xx_ll_dma.h **** /**
1134:Drivers/STM32L1xx_HAL_Driver/Inc/stm32l1xx_ll_dma.h ****   * @brief  Get the Memory to Memory Destination address.
1135:Drivers/STM32L1xx_HAL_Driver/Inc/stm32l1xx_ll_dma.h ****   * @note   Interface used for direction LL_DMA_DIRECTION_MEMORY_TO_MEMORY only.
1136:Drivers/STM32L1xx_HAL_Driver/Inc/stm32l1xx_ll_dma.h ****   * @rmtoll CMAR         MA            LL_DMA_GetM2MDstAddress
1137:Drivers/STM32L1xx_HAL_Driver/Inc/stm32l1xx_ll_dma.h ****   * @param  DMAx DMAx Instance
1138:Drivers/STM32L1xx_HAL_Driver/Inc/stm32l1xx_ll_dma.h ****   * @param  Channel This parameter can be one of the following values:
1139:Drivers/STM32L1xx_HAL_Driver/Inc/stm32l1xx_ll_dma.h ****   *         @arg @ref LL_DMA_CHANNEL_1
1140:Drivers/STM32L1xx_HAL_Driver/Inc/stm32l1xx_ll_dma.h ****   *         @arg @ref LL_DMA_CHANNEL_2
1141:Drivers/STM32L1xx_HAL_Driver/Inc/stm32l1xx_ll_dma.h ****   *         @arg @ref LL_DMA_CHANNEL_3
1142:Drivers/STM32L1xx_HAL_Driver/Inc/stm32l1xx_ll_dma.h ****   *         @arg @ref LL_DMA_CHANNEL_4
1143:Drivers/STM32L1xx_HAL_Driver/Inc/stm32l1xx_ll_dma.h ****   *         @arg @ref LL_DMA_CHANNEL_5
1144:Drivers/STM32L1xx_HAL_Driver/Inc/stm32l1xx_ll_dma.h ****   *         @arg @ref LL_DMA_CHANNEL_6
1145:Drivers/STM32L1xx_HAL_Driver/Inc/stm32l1xx_ll_dma.h ****   *         @arg @ref LL_DMA_CHANNEL_7
1146:Drivers/STM32L1xx_HAL_Driver/Inc/stm32l1xx_ll_dma.h ****   * @retval Between Min_Data = 0 and Max_Data = 0xFFFFFFFF
ARM GAS  C:\Users\domen\AppData\Local\Temp\ccqUJVhq.s 			page 39


1147:Drivers/STM32L1xx_HAL_Driver/Inc/stm32l1xx_ll_dma.h ****   */
1148:Drivers/STM32L1xx_HAL_Driver/Inc/stm32l1xx_ll_dma.h **** __STATIC_INLINE uint32_t LL_DMA_GetM2MDstAddress(DMA_TypeDef *DMAx, uint32_t Channel)
1149:Drivers/STM32L1xx_HAL_Driver/Inc/stm32l1xx_ll_dma.h **** {
1150:Drivers/STM32L1xx_HAL_Driver/Inc/stm32l1xx_ll_dma.h ****   return (READ_REG(((DMA_Channel_TypeDef *)((uint32_t)((uint32_t)DMAx + CHANNEL_OFFSET_TAB[Channel 
1151:Drivers/STM32L1xx_HAL_Driver/Inc/stm32l1xx_ll_dma.h **** }
1152:Drivers/STM32L1xx_HAL_Driver/Inc/stm32l1xx_ll_dma.h **** 
1153:Drivers/STM32L1xx_HAL_Driver/Inc/stm32l1xx_ll_dma.h **** 
1154:Drivers/STM32L1xx_HAL_Driver/Inc/stm32l1xx_ll_dma.h **** /**
1155:Drivers/STM32L1xx_HAL_Driver/Inc/stm32l1xx_ll_dma.h ****   * @}
1156:Drivers/STM32L1xx_HAL_Driver/Inc/stm32l1xx_ll_dma.h ****   */
1157:Drivers/STM32L1xx_HAL_Driver/Inc/stm32l1xx_ll_dma.h **** 
1158:Drivers/STM32L1xx_HAL_Driver/Inc/stm32l1xx_ll_dma.h **** /** @defgroup DMA_LL_EF_FLAG_Management FLAG_Management
1159:Drivers/STM32L1xx_HAL_Driver/Inc/stm32l1xx_ll_dma.h ****   * @{
1160:Drivers/STM32L1xx_HAL_Driver/Inc/stm32l1xx_ll_dma.h ****   */
1161:Drivers/STM32L1xx_HAL_Driver/Inc/stm32l1xx_ll_dma.h **** 
1162:Drivers/STM32L1xx_HAL_Driver/Inc/stm32l1xx_ll_dma.h **** /**
1163:Drivers/STM32L1xx_HAL_Driver/Inc/stm32l1xx_ll_dma.h ****   * @brief  Get Channel 1 global interrupt flag.
1164:Drivers/STM32L1xx_HAL_Driver/Inc/stm32l1xx_ll_dma.h ****   * @rmtoll ISR          GIF1          LL_DMA_IsActiveFlag_GI1
1165:Drivers/STM32L1xx_HAL_Driver/Inc/stm32l1xx_ll_dma.h ****   * @param  DMAx DMAx Instance
1166:Drivers/STM32L1xx_HAL_Driver/Inc/stm32l1xx_ll_dma.h ****   * @retval State of bit (1 or 0).
1167:Drivers/STM32L1xx_HAL_Driver/Inc/stm32l1xx_ll_dma.h ****   */
1168:Drivers/STM32L1xx_HAL_Driver/Inc/stm32l1xx_ll_dma.h **** __STATIC_INLINE uint32_t LL_DMA_IsActiveFlag_GI1(DMA_TypeDef *DMAx)
1169:Drivers/STM32L1xx_HAL_Driver/Inc/stm32l1xx_ll_dma.h **** {
1170:Drivers/STM32L1xx_HAL_Driver/Inc/stm32l1xx_ll_dma.h ****   return (READ_BIT(DMAx->ISR, DMA_ISR_GIF1) == (DMA_ISR_GIF1));
1171:Drivers/STM32L1xx_HAL_Driver/Inc/stm32l1xx_ll_dma.h **** }
1172:Drivers/STM32L1xx_HAL_Driver/Inc/stm32l1xx_ll_dma.h **** 
1173:Drivers/STM32L1xx_HAL_Driver/Inc/stm32l1xx_ll_dma.h **** /**
1174:Drivers/STM32L1xx_HAL_Driver/Inc/stm32l1xx_ll_dma.h ****   * @brief  Get Channel 2 global interrupt flag.
1175:Drivers/STM32L1xx_HAL_Driver/Inc/stm32l1xx_ll_dma.h ****   * @rmtoll ISR          GIF2          LL_DMA_IsActiveFlag_GI2
1176:Drivers/STM32L1xx_HAL_Driver/Inc/stm32l1xx_ll_dma.h ****   * @param  DMAx DMAx Instance
1177:Drivers/STM32L1xx_HAL_Driver/Inc/stm32l1xx_ll_dma.h ****   * @retval State of bit (1 or 0).
1178:Drivers/STM32L1xx_HAL_Driver/Inc/stm32l1xx_ll_dma.h ****   */
1179:Drivers/STM32L1xx_HAL_Driver/Inc/stm32l1xx_ll_dma.h **** __STATIC_INLINE uint32_t LL_DMA_IsActiveFlag_GI2(DMA_TypeDef *DMAx)
1180:Drivers/STM32L1xx_HAL_Driver/Inc/stm32l1xx_ll_dma.h **** {
1181:Drivers/STM32L1xx_HAL_Driver/Inc/stm32l1xx_ll_dma.h ****   return (READ_BIT(DMAx->ISR, DMA_ISR_GIF2) == (DMA_ISR_GIF2));
1182:Drivers/STM32L1xx_HAL_Driver/Inc/stm32l1xx_ll_dma.h **** }
1183:Drivers/STM32L1xx_HAL_Driver/Inc/stm32l1xx_ll_dma.h **** 
1184:Drivers/STM32L1xx_HAL_Driver/Inc/stm32l1xx_ll_dma.h **** /**
1185:Drivers/STM32L1xx_HAL_Driver/Inc/stm32l1xx_ll_dma.h ****   * @brief  Get Channel 3 global interrupt flag.
1186:Drivers/STM32L1xx_HAL_Driver/Inc/stm32l1xx_ll_dma.h ****   * @rmtoll ISR          GIF3          LL_DMA_IsActiveFlag_GI3
1187:Drivers/STM32L1xx_HAL_Driver/Inc/stm32l1xx_ll_dma.h ****   * @param  DMAx DMAx Instance
1188:Drivers/STM32L1xx_HAL_Driver/Inc/stm32l1xx_ll_dma.h ****   * @retval State of bit (1 or 0).
1189:Drivers/STM32L1xx_HAL_Driver/Inc/stm32l1xx_ll_dma.h ****   */
1190:Drivers/STM32L1xx_HAL_Driver/Inc/stm32l1xx_ll_dma.h **** __STATIC_INLINE uint32_t LL_DMA_IsActiveFlag_GI3(DMA_TypeDef *DMAx)
1191:Drivers/STM32L1xx_HAL_Driver/Inc/stm32l1xx_ll_dma.h **** {
1192:Drivers/STM32L1xx_HAL_Driver/Inc/stm32l1xx_ll_dma.h ****   return (READ_BIT(DMAx->ISR, DMA_ISR_GIF3) == (DMA_ISR_GIF3));
1193:Drivers/STM32L1xx_HAL_Driver/Inc/stm32l1xx_ll_dma.h **** }
1194:Drivers/STM32L1xx_HAL_Driver/Inc/stm32l1xx_ll_dma.h **** 
1195:Drivers/STM32L1xx_HAL_Driver/Inc/stm32l1xx_ll_dma.h **** /**
1196:Drivers/STM32L1xx_HAL_Driver/Inc/stm32l1xx_ll_dma.h ****   * @brief  Get Channel 4 global interrupt flag.
1197:Drivers/STM32L1xx_HAL_Driver/Inc/stm32l1xx_ll_dma.h ****   * @rmtoll ISR          GIF4          LL_DMA_IsActiveFlag_GI4
1198:Drivers/STM32L1xx_HAL_Driver/Inc/stm32l1xx_ll_dma.h ****   * @param  DMAx DMAx Instance
1199:Drivers/STM32L1xx_HAL_Driver/Inc/stm32l1xx_ll_dma.h ****   * @retval State of bit (1 or 0).
1200:Drivers/STM32L1xx_HAL_Driver/Inc/stm32l1xx_ll_dma.h ****   */
1201:Drivers/STM32L1xx_HAL_Driver/Inc/stm32l1xx_ll_dma.h **** __STATIC_INLINE uint32_t LL_DMA_IsActiveFlag_GI4(DMA_TypeDef *DMAx)
1202:Drivers/STM32L1xx_HAL_Driver/Inc/stm32l1xx_ll_dma.h **** {
1203:Drivers/STM32L1xx_HAL_Driver/Inc/stm32l1xx_ll_dma.h ****   return (READ_BIT(DMAx->ISR, DMA_ISR_GIF4) == (DMA_ISR_GIF4));
ARM GAS  C:\Users\domen\AppData\Local\Temp\ccqUJVhq.s 			page 40


1204:Drivers/STM32L1xx_HAL_Driver/Inc/stm32l1xx_ll_dma.h **** }
1205:Drivers/STM32L1xx_HAL_Driver/Inc/stm32l1xx_ll_dma.h **** 
1206:Drivers/STM32L1xx_HAL_Driver/Inc/stm32l1xx_ll_dma.h **** /**
1207:Drivers/STM32L1xx_HAL_Driver/Inc/stm32l1xx_ll_dma.h ****   * @brief  Get Channel 5 global interrupt flag.
1208:Drivers/STM32L1xx_HAL_Driver/Inc/stm32l1xx_ll_dma.h ****   * @rmtoll ISR          GIF5          LL_DMA_IsActiveFlag_GI5
1209:Drivers/STM32L1xx_HAL_Driver/Inc/stm32l1xx_ll_dma.h ****   * @param  DMAx DMAx Instance
1210:Drivers/STM32L1xx_HAL_Driver/Inc/stm32l1xx_ll_dma.h ****   * @retval State of bit (1 or 0).
1211:Drivers/STM32L1xx_HAL_Driver/Inc/stm32l1xx_ll_dma.h ****   */
1212:Drivers/STM32L1xx_HAL_Driver/Inc/stm32l1xx_ll_dma.h **** __STATIC_INLINE uint32_t LL_DMA_IsActiveFlag_GI5(DMA_TypeDef *DMAx)
1213:Drivers/STM32L1xx_HAL_Driver/Inc/stm32l1xx_ll_dma.h **** {
1214:Drivers/STM32L1xx_HAL_Driver/Inc/stm32l1xx_ll_dma.h ****   return (READ_BIT(DMAx->ISR, DMA_ISR_GIF5) == (DMA_ISR_GIF5));
1215:Drivers/STM32L1xx_HAL_Driver/Inc/stm32l1xx_ll_dma.h **** }
1216:Drivers/STM32L1xx_HAL_Driver/Inc/stm32l1xx_ll_dma.h **** 
1217:Drivers/STM32L1xx_HAL_Driver/Inc/stm32l1xx_ll_dma.h **** /**
1218:Drivers/STM32L1xx_HAL_Driver/Inc/stm32l1xx_ll_dma.h ****   * @brief  Get Channel 6 global interrupt flag.
1219:Drivers/STM32L1xx_HAL_Driver/Inc/stm32l1xx_ll_dma.h ****   * @rmtoll ISR          GIF6          LL_DMA_IsActiveFlag_GI6
1220:Drivers/STM32L1xx_HAL_Driver/Inc/stm32l1xx_ll_dma.h ****   * @param  DMAx DMAx Instance
1221:Drivers/STM32L1xx_HAL_Driver/Inc/stm32l1xx_ll_dma.h ****   * @retval State of bit (1 or 0).
1222:Drivers/STM32L1xx_HAL_Driver/Inc/stm32l1xx_ll_dma.h ****   */
1223:Drivers/STM32L1xx_HAL_Driver/Inc/stm32l1xx_ll_dma.h **** __STATIC_INLINE uint32_t LL_DMA_IsActiveFlag_GI6(DMA_TypeDef *DMAx)
1224:Drivers/STM32L1xx_HAL_Driver/Inc/stm32l1xx_ll_dma.h **** {
1225:Drivers/STM32L1xx_HAL_Driver/Inc/stm32l1xx_ll_dma.h ****   return (READ_BIT(DMAx->ISR, DMA_ISR_GIF6) == (DMA_ISR_GIF6));
1226:Drivers/STM32L1xx_HAL_Driver/Inc/stm32l1xx_ll_dma.h **** }
1227:Drivers/STM32L1xx_HAL_Driver/Inc/stm32l1xx_ll_dma.h **** 
1228:Drivers/STM32L1xx_HAL_Driver/Inc/stm32l1xx_ll_dma.h **** /**
1229:Drivers/STM32L1xx_HAL_Driver/Inc/stm32l1xx_ll_dma.h ****   * @brief  Get Channel 7 global interrupt flag.
1230:Drivers/STM32L1xx_HAL_Driver/Inc/stm32l1xx_ll_dma.h ****   * @rmtoll ISR          GIF7          LL_DMA_IsActiveFlag_GI7
1231:Drivers/STM32L1xx_HAL_Driver/Inc/stm32l1xx_ll_dma.h ****   * @param  DMAx DMAx Instance
1232:Drivers/STM32L1xx_HAL_Driver/Inc/stm32l1xx_ll_dma.h ****   * @retval State of bit (1 or 0).
1233:Drivers/STM32L1xx_HAL_Driver/Inc/stm32l1xx_ll_dma.h ****   */
1234:Drivers/STM32L1xx_HAL_Driver/Inc/stm32l1xx_ll_dma.h **** __STATIC_INLINE uint32_t LL_DMA_IsActiveFlag_GI7(DMA_TypeDef *DMAx)
1235:Drivers/STM32L1xx_HAL_Driver/Inc/stm32l1xx_ll_dma.h **** {
1236:Drivers/STM32L1xx_HAL_Driver/Inc/stm32l1xx_ll_dma.h ****   return (READ_BIT(DMAx->ISR, DMA_ISR_GIF7) == (DMA_ISR_GIF7));
1237:Drivers/STM32L1xx_HAL_Driver/Inc/stm32l1xx_ll_dma.h **** }
1238:Drivers/STM32L1xx_HAL_Driver/Inc/stm32l1xx_ll_dma.h **** 
1239:Drivers/STM32L1xx_HAL_Driver/Inc/stm32l1xx_ll_dma.h **** /**
1240:Drivers/STM32L1xx_HAL_Driver/Inc/stm32l1xx_ll_dma.h ****   * @brief  Get Channel 1 transfer complete flag.
1241:Drivers/STM32L1xx_HAL_Driver/Inc/stm32l1xx_ll_dma.h ****   * @rmtoll ISR          TCIF1         LL_DMA_IsActiveFlag_TC1
1242:Drivers/STM32L1xx_HAL_Driver/Inc/stm32l1xx_ll_dma.h ****   * @param  DMAx DMAx Instance
1243:Drivers/STM32L1xx_HAL_Driver/Inc/stm32l1xx_ll_dma.h ****   * @retval State of bit (1 or 0).
1244:Drivers/STM32L1xx_HAL_Driver/Inc/stm32l1xx_ll_dma.h ****   */
1245:Drivers/STM32L1xx_HAL_Driver/Inc/stm32l1xx_ll_dma.h **** __STATIC_INLINE uint32_t LL_DMA_IsActiveFlag_TC1(DMA_TypeDef *DMAx)
1246:Drivers/STM32L1xx_HAL_Driver/Inc/stm32l1xx_ll_dma.h **** {
1247:Drivers/STM32L1xx_HAL_Driver/Inc/stm32l1xx_ll_dma.h ****   return (READ_BIT(DMAx->ISR, DMA_ISR_TCIF1) == (DMA_ISR_TCIF1));
1248:Drivers/STM32L1xx_HAL_Driver/Inc/stm32l1xx_ll_dma.h **** }
1249:Drivers/STM32L1xx_HAL_Driver/Inc/stm32l1xx_ll_dma.h **** 
1250:Drivers/STM32L1xx_HAL_Driver/Inc/stm32l1xx_ll_dma.h **** /**
1251:Drivers/STM32L1xx_HAL_Driver/Inc/stm32l1xx_ll_dma.h ****   * @brief  Get Channel 2 transfer complete flag.
1252:Drivers/STM32L1xx_HAL_Driver/Inc/stm32l1xx_ll_dma.h ****   * @rmtoll ISR          TCIF2         LL_DMA_IsActiveFlag_TC2
1253:Drivers/STM32L1xx_HAL_Driver/Inc/stm32l1xx_ll_dma.h ****   * @param  DMAx DMAx Instance
1254:Drivers/STM32L1xx_HAL_Driver/Inc/stm32l1xx_ll_dma.h ****   * @retval State of bit (1 or 0).
1255:Drivers/STM32L1xx_HAL_Driver/Inc/stm32l1xx_ll_dma.h ****   */
1256:Drivers/STM32L1xx_HAL_Driver/Inc/stm32l1xx_ll_dma.h **** __STATIC_INLINE uint32_t LL_DMA_IsActiveFlag_TC2(DMA_TypeDef *DMAx)
1257:Drivers/STM32L1xx_HAL_Driver/Inc/stm32l1xx_ll_dma.h **** {
1258:Drivers/STM32L1xx_HAL_Driver/Inc/stm32l1xx_ll_dma.h ****   return (READ_BIT(DMAx->ISR, DMA_ISR_TCIF2) == (DMA_ISR_TCIF2));
1259:Drivers/STM32L1xx_HAL_Driver/Inc/stm32l1xx_ll_dma.h **** }
1260:Drivers/STM32L1xx_HAL_Driver/Inc/stm32l1xx_ll_dma.h **** 
ARM GAS  C:\Users\domen\AppData\Local\Temp\ccqUJVhq.s 			page 41


1261:Drivers/STM32L1xx_HAL_Driver/Inc/stm32l1xx_ll_dma.h **** /**
1262:Drivers/STM32L1xx_HAL_Driver/Inc/stm32l1xx_ll_dma.h ****   * @brief  Get Channel 3 transfer complete flag.
1263:Drivers/STM32L1xx_HAL_Driver/Inc/stm32l1xx_ll_dma.h ****   * @rmtoll ISR          TCIF3         LL_DMA_IsActiveFlag_TC3
1264:Drivers/STM32L1xx_HAL_Driver/Inc/stm32l1xx_ll_dma.h ****   * @param  DMAx DMAx Instance
1265:Drivers/STM32L1xx_HAL_Driver/Inc/stm32l1xx_ll_dma.h ****   * @retval State of bit (1 or 0).
1266:Drivers/STM32L1xx_HAL_Driver/Inc/stm32l1xx_ll_dma.h ****   */
1267:Drivers/STM32L1xx_HAL_Driver/Inc/stm32l1xx_ll_dma.h **** __STATIC_INLINE uint32_t LL_DMA_IsActiveFlag_TC3(DMA_TypeDef *DMAx)
1268:Drivers/STM32L1xx_HAL_Driver/Inc/stm32l1xx_ll_dma.h **** {
1269:Drivers/STM32L1xx_HAL_Driver/Inc/stm32l1xx_ll_dma.h ****   return (READ_BIT(DMAx->ISR, DMA_ISR_TCIF3) == (DMA_ISR_TCIF3));
1270:Drivers/STM32L1xx_HAL_Driver/Inc/stm32l1xx_ll_dma.h **** }
1271:Drivers/STM32L1xx_HAL_Driver/Inc/stm32l1xx_ll_dma.h **** 
1272:Drivers/STM32L1xx_HAL_Driver/Inc/stm32l1xx_ll_dma.h **** /**
1273:Drivers/STM32L1xx_HAL_Driver/Inc/stm32l1xx_ll_dma.h ****   * @brief  Get Channel 4 transfer complete flag.
1274:Drivers/STM32L1xx_HAL_Driver/Inc/stm32l1xx_ll_dma.h ****   * @rmtoll ISR          TCIF4         LL_DMA_IsActiveFlag_TC4
1275:Drivers/STM32L1xx_HAL_Driver/Inc/stm32l1xx_ll_dma.h ****   * @param  DMAx DMAx Instance
1276:Drivers/STM32L1xx_HAL_Driver/Inc/stm32l1xx_ll_dma.h ****   * @retval State of bit (1 or 0).
1277:Drivers/STM32L1xx_HAL_Driver/Inc/stm32l1xx_ll_dma.h ****   */
1278:Drivers/STM32L1xx_HAL_Driver/Inc/stm32l1xx_ll_dma.h **** __STATIC_INLINE uint32_t LL_DMA_IsActiveFlag_TC4(DMA_TypeDef *DMAx)
1279:Drivers/STM32L1xx_HAL_Driver/Inc/stm32l1xx_ll_dma.h **** {
1280:Drivers/STM32L1xx_HAL_Driver/Inc/stm32l1xx_ll_dma.h ****   return (READ_BIT(DMAx->ISR, DMA_ISR_TCIF4) == (DMA_ISR_TCIF4));
1281:Drivers/STM32L1xx_HAL_Driver/Inc/stm32l1xx_ll_dma.h **** }
1282:Drivers/STM32L1xx_HAL_Driver/Inc/stm32l1xx_ll_dma.h **** 
1283:Drivers/STM32L1xx_HAL_Driver/Inc/stm32l1xx_ll_dma.h **** /**
1284:Drivers/STM32L1xx_HAL_Driver/Inc/stm32l1xx_ll_dma.h ****   * @brief  Get Channel 5 transfer complete flag.
1285:Drivers/STM32L1xx_HAL_Driver/Inc/stm32l1xx_ll_dma.h ****   * @rmtoll ISR          TCIF5         LL_DMA_IsActiveFlag_TC5
1286:Drivers/STM32L1xx_HAL_Driver/Inc/stm32l1xx_ll_dma.h ****   * @param  DMAx DMAx Instance
1287:Drivers/STM32L1xx_HAL_Driver/Inc/stm32l1xx_ll_dma.h ****   * @retval State of bit (1 or 0).
1288:Drivers/STM32L1xx_HAL_Driver/Inc/stm32l1xx_ll_dma.h ****   */
1289:Drivers/STM32L1xx_HAL_Driver/Inc/stm32l1xx_ll_dma.h **** __STATIC_INLINE uint32_t LL_DMA_IsActiveFlag_TC5(DMA_TypeDef *DMAx)
1290:Drivers/STM32L1xx_HAL_Driver/Inc/stm32l1xx_ll_dma.h **** {
1291:Drivers/STM32L1xx_HAL_Driver/Inc/stm32l1xx_ll_dma.h ****   return (READ_BIT(DMAx->ISR, DMA_ISR_TCIF5) == (DMA_ISR_TCIF5));
1292:Drivers/STM32L1xx_HAL_Driver/Inc/stm32l1xx_ll_dma.h **** }
1293:Drivers/STM32L1xx_HAL_Driver/Inc/stm32l1xx_ll_dma.h **** 
1294:Drivers/STM32L1xx_HAL_Driver/Inc/stm32l1xx_ll_dma.h **** /**
1295:Drivers/STM32L1xx_HAL_Driver/Inc/stm32l1xx_ll_dma.h ****   * @brief  Get Channel 6 transfer complete flag.
1296:Drivers/STM32L1xx_HAL_Driver/Inc/stm32l1xx_ll_dma.h ****   * @rmtoll ISR          TCIF6         LL_DMA_IsActiveFlag_TC6
1297:Drivers/STM32L1xx_HAL_Driver/Inc/stm32l1xx_ll_dma.h ****   * @param  DMAx DMAx Instance
1298:Drivers/STM32L1xx_HAL_Driver/Inc/stm32l1xx_ll_dma.h ****   * @retval State of bit (1 or 0).
1299:Drivers/STM32L1xx_HAL_Driver/Inc/stm32l1xx_ll_dma.h ****   */
1300:Drivers/STM32L1xx_HAL_Driver/Inc/stm32l1xx_ll_dma.h **** __STATIC_INLINE uint32_t LL_DMA_IsActiveFlag_TC6(DMA_TypeDef *DMAx)
1301:Drivers/STM32L1xx_HAL_Driver/Inc/stm32l1xx_ll_dma.h **** {
1302:Drivers/STM32L1xx_HAL_Driver/Inc/stm32l1xx_ll_dma.h ****   return (READ_BIT(DMAx->ISR, DMA_ISR_TCIF6) == (DMA_ISR_TCIF6));
1303:Drivers/STM32L1xx_HAL_Driver/Inc/stm32l1xx_ll_dma.h **** }
1304:Drivers/STM32L1xx_HAL_Driver/Inc/stm32l1xx_ll_dma.h **** 
1305:Drivers/STM32L1xx_HAL_Driver/Inc/stm32l1xx_ll_dma.h **** /**
1306:Drivers/STM32L1xx_HAL_Driver/Inc/stm32l1xx_ll_dma.h ****   * @brief  Get Channel 7 transfer complete flag.
1307:Drivers/STM32L1xx_HAL_Driver/Inc/stm32l1xx_ll_dma.h ****   * @rmtoll ISR          TCIF7         LL_DMA_IsActiveFlag_TC7
1308:Drivers/STM32L1xx_HAL_Driver/Inc/stm32l1xx_ll_dma.h ****   * @param  DMAx DMAx Instance
1309:Drivers/STM32L1xx_HAL_Driver/Inc/stm32l1xx_ll_dma.h ****   * @retval State of bit (1 or 0).
1310:Drivers/STM32L1xx_HAL_Driver/Inc/stm32l1xx_ll_dma.h ****   */
1311:Drivers/STM32L1xx_HAL_Driver/Inc/stm32l1xx_ll_dma.h **** __STATIC_INLINE uint32_t LL_DMA_IsActiveFlag_TC7(DMA_TypeDef *DMAx)
1312:Drivers/STM32L1xx_HAL_Driver/Inc/stm32l1xx_ll_dma.h **** {
1313:Drivers/STM32L1xx_HAL_Driver/Inc/stm32l1xx_ll_dma.h ****   return (READ_BIT(DMAx->ISR, DMA_ISR_TCIF7) == (DMA_ISR_TCIF7));
1314:Drivers/STM32L1xx_HAL_Driver/Inc/stm32l1xx_ll_dma.h **** }
1315:Drivers/STM32L1xx_HAL_Driver/Inc/stm32l1xx_ll_dma.h **** 
1316:Drivers/STM32L1xx_HAL_Driver/Inc/stm32l1xx_ll_dma.h **** /**
1317:Drivers/STM32L1xx_HAL_Driver/Inc/stm32l1xx_ll_dma.h ****   * @brief  Get Channel 1 half transfer flag.
ARM GAS  C:\Users\domen\AppData\Local\Temp\ccqUJVhq.s 			page 42


1318:Drivers/STM32L1xx_HAL_Driver/Inc/stm32l1xx_ll_dma.h ****   * @rmtoll ISR          HTIF1         LL_DMA_IsActiveFlag_HT1
1319:Drivers/STM32L1xx_HAL_Driver/Inc/stm32l1xx_ll_dma.h ****   * @param  DMAx DMAx Instance
1320:Drivers/STM32L1xx_HAL_Driver/Inc/stm32l1xx_ll_dma.h ****   * @retval State of bit (1 or 0).
1321:Drivers/STM32L1xx_HAL_Driver/Inc/stm32l1xx_ll_dma.h ****   */
1322:Drivers/STM32L1xx_HAL_Driver/Inc/stm32l1xx_ll_dma.h **** __STATIC_INLINE uint32_t LL_DMA_IsActiveFlag_HT1(DMA_TypeDef *DMAx)
1323:Drivers/STM32L1xx_HAL_Driver/Inc/stm32l1xx_ll_dma.h **** {
1324:Drivers/STM32L1xx_HAL_Driver/Inc/stm32l1xx_ll_dma.h ****   return (READ_BIT(DMAx->ISR, DMA_ISR_HTIF1) == (DMA_ISR_HTIF1));
1325:Drivers/STM32L1xx_HAL_Driver/Inc/stm32l1xx_ll_dma.h **** }
1326:Drivers/STM32L1xx_HAL_Driver/Inc/stm32l1xx_ll_dma.h **** 
1327:Drivers/STM32L1xx_HAL_Driver/Inc/stm32l1xx_ll_dma.h **** /**
1328:Drivers/STM32L1xx_HAL_Driver/Inc/stm32l1xx_ll_dma.h ****   * @brief  Get Channel 2 half transfer flag.
1329:Drivers/STM32L1xx_HAL_Driver/Inc/stm32l1xx_ll_dma.h ****   * @rmtoll ISR          HTIF2         LL_DMA_IsActiveFlag_HT2
1330:Drivers/STM32L1xx_HAL_Driver/Inc/stm32l1xx_ll_dma.h ****   * @param  DMAx DMAx Instance
1331:Drivers/STM32L1xx_HAL_Driver/Inc/stm32l1xx_ll_dma.h ****   * @retval State of bit (1 or 0).
1332:Drivers/STM32L1xx_HAL_Driver/Inc/stm32l1xx_ll_dma.h ****   */
1333:Drivers/STM32L1xx_HAL_Driver/Inc/stm32l1xx_ll_dma.h **** __STATIC_INLINE uint32_t LL_DMA_IsActiveFlag_HT2(DMA_TypeDef *DMAx)
1334:Drivers/STM32L1xx_HAL_Driver/Inc/stm32l1xx_ll_dma.h **** {
1335:Drivers/STM32L1xx_HAL_Driver/Inc/stm32l1xx_ll_dma.h ****   return (READ_BIT(DMAx->ISR, DMA_ISR_HTIF2) == (DMA_ISR_HTIF2));
1336:Drivers/STM32L1xx_HAL_Driver/Inc/stm32l1xx_ll_dma.h **** }
1337:Drivers/STM32L1xx_HAL_Driver/Inc/stm32l1xx_ll_dma.h **** 
1338:Drivers/STM32L1xx_HAL_Driver/Inc/stm32l1xx_ll_dma.h **** /**
1339:Drivers/STM32L1xx_HAL_Driver/Inc/stm32l1xx_ll_dma.h ****   * @brief  Get Channel 3 half transfer flag.
1340:Drivers/STM32L1xx_HAL_Driver/Inc/stm32l1xx_ll_dma.h ****   * @rmtoll ISR          HTIF3         LL_DMA_IsActiveFlag_HT3
1341:Drivers/STM32L1xx_HAL_Driver/Inc/stm32l1xx_ll_dma.h ****   * @param  DMAx DMAx Instance
1342:Drivers/STM32L1xx_HAL_Driver/Inc/stm32l1xx_ll_dma.h ****   * @retval State of bit (1 or 0).
1343:Drivers/STM32L1xx_HAL_Driver/Inc/stm32l1xx_ll_dma.h ****   */
1344:Drivers/STM32L1xx_HAL_Driver/Inc/stm32l1xx_ll_dma.h **** __STATIC_INLINE uint32_t LL_DMA_IsActiveFlag_HT3(DMA_TypeDef *DMAx)
1345:Drivers/STM32L1xx_HAL_Driver/Inc/stm32l1xx_ll_dma.h **** {
1346:Drivers/STM32L1xx_HAL_Driver/Inc/stm32l1xx_ll_dma.h ****   return (READ_BIT(DMAx->ISR, DMA_ISR_HTIF3) == (DMA_ISR_HTIF3));
1347:Drivers/STM32L1xx_HAL_Driver/Inc/stm32l1xx_ll_dma.h **** }
1348:Drivers/STM32L1xx_HAL_Driver/Inc/stm32l1xx_ll_dma.h **** 
1349:Drivers/STM32L1xx_HAL_Driver/Inc/stm32l1xx_ll_dma.h **** /**
1350:Drivers/STM32L1xx_HAL_Driver/Inc/stm32l1xx_ll_dma.h ****   * @brief  Get Channel 4 half transfer flag.
1351:Drivers/STM32L1xx_HAL_Driver/Inc/stm32l1xx_ll_dma.h ****   * @rmtoll ISR          HTIF4         LL_DMA_IsActiveFlag_HT4
1352:Drivers/STM32L1xx_HAL_Driver/Inc/stm32l1xx_ll_dma.h ****   * @param  DMAx DMAx Instance
1353:Drivers/STM32L1xx_HAL_Driver/Inc/stm32l1xx_ll_dma.h ****   * @retval State of bit (1 or 0).
1354:Drivers/STM32L1xx_HAL_Driver/Inc/stm32l1xx_ll_dma.h ****   */
1355:Drivers/STM32L1xx_HAL_Driver/Inc/stm32l1xx_ll_dma.h **** __STATIC_INLINE uint32_t LL_DMA_IsActiveFlag_HT4(DMA_TypeDef *DMAx)
1356:Drivers/STM32L1xx_HAL_Driver/Inc/stm32l1xx_ll_dma.h **** {
1357:Drivers/STM32L1xx_HAL_Driver/Inc/stm32l1xx_ll_dma.h ****   return (READ_BIT(DMAx->ISR, DMA_ISR_HTIF4) == (DMA_ISR_HTIF4));
1358:Drivers/STM32L1xx_HAL_Driver/Inc/stm32l1xx_ll_dma.h **** }
1359:Drivers/STM32L1xx_HAL_Driver/Inc/stm32l1xx_ll_dma.h **** 
1360:Drivers/STM32L1xx_HAL_Driver/Inc/stm32l1xx_ll_dma.h **** /**
1361:Drivers/STM32L1xx_HAL_Driver/Inc/stm32l1xx_ll_dma.h ****   * @brief  Get Channel 5 half transfer flag.
1362:Drivers/STM32L1xx_HAL_Driver/Inc/stm32l1xx_ll_dma.h ****   * @rmtoll ISR          HTIF5         LL_DMA_IsActiveFlag_HT5
1363:Drivers/STM32L1xx_HAL_Driver/Inc/stm32l1xx_ll_dma.h ****   * @param  DMAx DMAx Instance
1364:Drivers/STM32L1xx_HAL_Driver/Inc/stm32l1xx_ll_dma.h ****   * @retval State of bit (1 or 0).
1365:Drivers/STM32L1xx_HAL_Driver/Inc/stm32l1xx_ll_dma.h ****   */
1366:Drivers/STM32L1xx_HAL_Driver/Inc/stm32l1xx_ll_dma.h **** __STATIC_INLINE uint32_t LL_DMA_IsActiveFlag_HT5(DMA_TypeDef *DMAx)
1367:Drivers/STM32L1xx_HAL_Driver/Inc/stm32l1xx_ll_dma.h **** {
1368:Drivers/STM32L1xx_HAL_Driver/Inc/stm32l1xx_ll_dma.h ****   return (READ_BIT(DMAx->ISR, DMA_ISR_HTIF5) == (DMA_ISR_HTIF5));
1369:Drivers/STM32L1xx_HAL_Driver/Inc/stm32l1xx_ll_dma.h **** }
1370:Drivers/STM32L1xx_HAL_Driver/Inc/stm32l1xx_ll_dma.h **** 
1371:Drivers/STM32L1xx_HAL_Driver/Inc/stm32l1xx_ll_dma.h **** /**
1372:Drivers/STM32L1xx_HAL_Driver/Inc/stm32l1xx_ll_dma.h ****   * @brief  Get Channel 6 half transfer flag.
1373:Drivers/STM32L1xx_HAL_Driver/Inc/stm32l1xx_ll_dma.h ****   * @rmtoll ISR          HTIF6         LL_DMA_IsActiveFlag_HT6
1374:Drivers/STM32L1xx_HAL_Driver/Inc/stm32l1xx_ll_dma.h ****   * @param  DMAx DMAx Instance
ARM GAS  C:\Users\domen\AppData\Local\Temp\ccqUJVhq.s 			page 43


1375:Drivers/STM32L1xx_HAL_Driver/Inc/stm32l1xx_ll_dma.h ****   * @retval State of bit (1 or 0).
1376:Drivers/STM32L1xx_HAL_Driver/Inc/stm32l1xx_ll_dma.h ****   */
1377:Drivers/STM32L1xx_HAL_Driver/Inc/stm32l1xx_ll_dma.h **** __STATIC_INLINE uint32_t LL_DMA_IsActiveFlag_HT6(DMA_TypeDef *DMAx)
1378:Drivers/STM32L1xx_HAL_Driver/Inc/stm32l1xx_ll_dma.h **** {
1379:Drivers/STM32L1xx_HAL_Driver/Inc/stm32l1xx_ll_dma.h ****   return (READ_BIT(DMAx->ISR, DMA_ISR_HTIF6) == (DMA_ISR_HTIF6));
1380:Drivers/STM32L1xx_HAL_Driver/Inc/stm32l1xx_ll_dma.h **** }
1381:Drivers/STM32L1xx_HAL_Driver/Inc/stm32l1xx_ll_dma.h **** 
1382:Drivers/STM32L1xx_HAL_Driver/Inc/stm32l1xx_ll_dma.h **** /**
1383:Drivers/STM32L1xx_HAL_Driver/Inc/stm32l1xx_ll_dma.h ****   * @brief  Get Channel 7 half transfer flag.
1384:Drivers/STM32L1xx_HAL_Driver/Inc/stm32l1xx_ll_dma.h ****   * @rmtoll ISR          HTIF7         LL_DMA_IsActiveFlag_HT7
1385:Drivers/STM32L1xx_HAL_Driver/Inc/stm32l1xx_ll_dma.h ****   * @param  DMAx DMAx Instance
1386:Drivers/STM32L1xx_HAL_Driver/Inc/stm32l1xx_ll_dma.h ****   * @retval State of bit (1 or 0).
1387:Drivers/STM32L1xx_HAL_Driver/Inc/stm32l1xx_ll_dma.h ****   */
1388:Drivers/STM32L1xx_HAL_Driver/Inc/stm32l1xx_ll_dma.h **** __STATIC_INLINE uint32_t LL_DMA_IsActiveFlag_HT7(DMA_TypeDef *DMAx)
1389:Drivers/STM32L1xx_HAL_Driver/Inc/stm32l1xx_ll_dma.h **** {
1390:Drivers/STM32L1xx_HAL_Driver/Inc/stm32l1xx_ll_dma.h ****   return (READ_BIT(DMAx->ISR, DMA_ISR_HTIF7) == (DMA_ISR_HTIF7));
1391:Drivers/STM32L1xx_HAL_Driver/Inc/stm32l1xx_ll_dma.h **** }
1392:Drivers/STM32L1xx_HAL_Driver/Inc/stm32l1xx_ll_dma.h **** 
1393:Drivers/STM32L1xx_HAL_Driver/Inc/stm32l1xx_ll_dma.h **** /**
1394:Drivers/STM32L1xx_HAL_Driver/Inc/stm32l1xx_ll_dma.h ****   * @brief  Get Channel 1 transfer error flag.
1395:Drivers/STM32L1xx_HAL_Driver/Inc/stm32l1xx_ll_dma.h ****   * @rmtoll ISR          TEIF1         LL_DMA_IsActiveFlag_TE1
1396:Drivers/STM32L1xx_HAL_Driver/Inc/stm32l1xx_ll_dma.h ****   * @param  DMAx DMAx Instance
1397:Drivers/STM32L1xx_HAL_Driver/Inc/stm32l1xx_ll_dma.h ****   * @retval State of bit (1 or 0).
1398:Drivers/STM32L1xx_HAL_Driver/Inc/stm32l1xx_ll_dma.h ****   */
1399:Drivers/STM32L1xx_HAL_Driver/Inc/stm32l1xx_ll_dma.h **** __STATIC_INLINE uint32_t LL_DMA_IsActiveFlag_TE1(DMA_TypeDef *DMAx)
1400:Drivers/STM32L1xx_HAL_Driver/Inc/stm32l1xx_ll_dma.h **** {
1401:Drivers/STM32L1xx_HAL_Driver/Inc/stm32l1xx_ll_dma.h ****   return (READ_BIT(DMAx->ISR, DMA_ISR_TEIF1) == (DMA_ISR_TEIF1));
1402:Drivers/STM32L1xx_HAL_Driver/Inc/stm32l1xx_ll_dma.h **** }
1403:Drivers/STM32L1xx_HAL_Driver/Inc/stm32l1xx_ll_dma.h **** 
1404:Drivers/STM32L1xx_HAL_Driver/Inc/stm32l1xx_ll_dma.h **** /**
1405:Drivers/STM32L1xx_HAL_Driver/Inc/stm32l1xx_ll_dma.h ****   * @brief  Get Channel 2 transfer error flag.
1406:Drivers/STM32L1xx_HAL_Driver/Inc/stm32l1xx_ll_dma.h ****   * @rmtoll ISR          TEIF2         LL_DMA_IsActiveFlag_TE2
1407:Drivers/STM32L1xx_HAL_Driver/Inc/stm32l1xx_ll_dma.h ****   * @param  DMAx DMAx Instance
1408:Drivers/STM32L1xx_HAL_Driver/Inc/stm32l1xx_ll_dma.h ****   * @retval State of bit (1 or 0).
1409:Drivers/STM32L1xx_HAL_Driver/Inc/stm32l1xx_ll_dma.h ****   */
1410:Drivers/STM32L1xx_HAL_Driver/Inc/stm32l1xx_ll_dma.h **** __STATIC_INLINE uint32_t LL_DMA_IsActiveFlag_TE2(DMA_TypeDef *DMAx)
1411:Drivers/STM32L1xx_HAL_Driver/Inc/stm32l1xx_ll_dma.h **** {
1412:Drivers/STM32L1xx_HAL_Driver/Inc/stm32l1xx_ll_dma.h ****   return (READ_BIT(DMAx->ISR, DMA_ISR_TEIF2) == (DMA_ISR_TEIF2));
1413:Drivers/STM32L1xx_HAL_Driver/Inc/stm32l1xx_ll_dma.h **** }
1414:Drivers/STM32L1xx_HAL_Driver/Inc/stm32l1xx_ll_dma.h **** 
1415:Drivers/STM32L1xx_HAL_Driver/Inc/stm32l1xx_ll_dma.h **** /**
1416:Drivers/STM32L1xx_HAL_Driver/Inc/stm32l1xx_ll_dma.h ****   * @brief  Get Channel 3 transfer error flag.
1417:Drivers/STM32L1xx_HAL_Driver/Inc/stm32l1xx_ll_dma.h ****   * @rmtoll ISR          TEIF3         LL_DMA_IsActiveFlag_TE3
1418:Drivers/STM32L1xx_HAL_Driver/Inc/stm32l1xx_ll_dma.h ****   * @param  DMAx DMAx Instance
1419:Drivers/STM32L1xx_HAL_Driver/Inc/stm32l1xx_ll_dma.h ****   * @retval State of bit (1 or 0).
1420:Drivers/STM32L1xx_HAL_Driver/Inc/stm32l1xx_ll_dma.h ****   */
1421:Drivers/STM32L1xx_HAL_Driver/Inc/stm32l1xx_ll_dma.h **** __STATIC_INLINE uint32_t LL_DMA_IsActiveFlag_TE3(DMA_TypeDef *DMAx)
1422:Drivers/STM32L1xx_HAL_Driver/Inc/stm32l1xx_ll_dma.h **** {
1423:Drivers/STM32L1xx_HAL_Driver/Inc/stm32l1xx_ll_dma.h ****   return (READ_BIT(DMAx->ISR, DMA_ISR_TEIF3) == (DMA_ISR_TEIF3));
1424:Drivers/STM32L1xx_HAL_Driver/Inc/stm32l1xx_ll_dma.h **** }
1425:Drivers/STM32L1xx_HAL_Driver/Inc/stm32l1xx_ll_dma.h **** 
1426:Drivers/STM32L1xx_HAL_Driver/Inc/stm32l1xx_ll_dma.h **** /**
1427:Drivers/STM32L1xx_HAL_Driver/Inc/stm32l1xx_ll_dma.h ****   * @brief  Get Channel 4 transfer error flag.
1428:Drivers/STM32L1xx_HAL_Driver/Inc/stm32l1xx_ll_dma.h ****   * @rmtoll ISR          TEIF4         LL_DMA_IsActiveFlag_TE4
1429:Drivers/STM32L1xx_HAL_Driver/Inc/stm32l1xx_ll_dma.h ****   * @param  DMAx DMAx Instance
1430:Drivers/STM32L1xx_HAL_Driver/Inc/stm32l1xx_ll_dma.h ****   * @retval State of bit (1 or 0).
1431:Drivers/STM32L1xx_HAL_Driver/Inc/stm32l1xx_ll_dma.h ****   */
ARM GAS  C:\Users\domen\AppData\Local\Temp\ccqUJVhq.s 			page 44


1432:Drivers/STM32L1xx_HAL_Driver/Inc/stm32l1xx_ll_dma.h **** __STATIC_INLINE uint32_t LL_DMA_IsActiveFlag_TE4(DMA_TypeDef *DMAx)
1433:Drivers/STM32L1xx_HAL_Driver/Inc/stm32l1xx_ll_dma.h **** {
1434:Drivers/STM32L1xx_HAL_Driver/Inc/stm32l1xx_ll_dma.h ****   return (READ_BIT(DMAx->ISR, DMA_ISR_TEIF4) == (DMA_ISR_TEIF4));
1435:Drivers/STM32L1xx_HAL_Driver/Inc/stm32l1xx_ll_dma.h **** }
1436:Drivers/STM32L1xx_HAL_Driver/Inc/stm32l1xx_ll_dma.h **** 
1437:Drivers/STM32L1xx_HAL_Driver/Inc/stm32l1xx_ll_dma.h **** /**
1438:Drivers/STM32L1xx_HAL_Driver/Inc/stm32l1xx_ll_dma.h ****   * @brief  Get Channel 5 transfer error flag.
1439:Drivers/STM32L1xx_HAL_Driver/Inc/stm32l1xx_ll_dma.h ****   * @rmtoll ISR          TEIF5         LL_DMA_IsActiveFlag_TE5
1440:Drivers/STM32L1xx_HAL_Driver/Inc/stm32l1xx_ll_dma.h ****   * @param  DMAx DMAx Instance
1441:Drivers/STM32L1xx_HAL_Driver/Inc/stm32l1xx_ll_dma.h ****   * @retval State of bit (1 or 0).
1442:Drivers/STM32L1xx_HAL_Driver/Inc/stm32l1xx_ll_dma.h ****   */
1443:Drivers/STM32L1xx_HAL_Driver/Inc/stm32l1xx_ll_dma.h **** __STATIC_INLINE uint32_t LL_DMA_IsActiveFlag_TE5(DMA_TypeDef *DMAx)
1444:Drivers/STM32L1xx_HAL_Driver/Inc/stm32l1xx_ll_dma.h **** {
1445:Drivers/STM32L1xx_HAL_Driver/Inc/stm32l1xx_ll_dma.h ****   return (READ_BIT(DMAx->ISR, DMA_ISR_TEIF5) == (DMA_ISR_TEIF5));
1446:Drivers/STM32L1xx_HAL_Driver/Inc/stm32l1xx_ll_dma.h **** }
1447:Drivers/STM32L1xx_HAL_Driver/Inc/stm32l1xx_ll_dma.h **** 
1448:Drivers/STM32L1xx_HAL_Driver/Inc/stm32l1xx_ll_dma.h **** /**
1449:Drivers/STM32L1xx_HAL_Driver/Inc/stm32l1xx_ll_dma.h ****   * @brief  Get Channel 6 transfer error flag.
1450:Drivers/STM32L1xx_HAL_Driver/Inc/stm32l1xx_ll_dma.h ****   * @rmtoll ISR          TEIF6         LL_DMA_IsActiveFlag_TE6
1451:Drivers/STM32L1xx_HAL_Driver/Inc/stm32l1xx_ll_dma.h ****   * @param  DMAx DMAx Instance
1452:Drivers/STM32L1xx_HAL_Driver/Inc/stm32l1xx_ll_dma.h ****   * @retval State of bit (1 or 0).
1453:Drivers/STM32L1xx_HAL_Driver/Inc/stm32l1xx_ll_dma.h ****   */
1454:Drivers/STM32L1xx_HAL_Driver/Inc/stm32l1xx_ll_dma.h **** __STATIC_INLINE uint32_t LL_DMA_IsActiveFlag_TE6(DMA_TypeDef *DMAx)
1455:Drivers/STM32L1xx_HAL_Driver/Inc/stm32l1xx_ll_dma.h **** {
1456:Drivers/STM32L1xx_HAL_Driver/Inc/stm32l1xx_ll_dma.h ****   return (READ_BIT(DMAx->ISR, DMA_ISR_TEIF6) == (DMA_ISR_TEIF6));
1457:Drivers/STM32L1xx_HAL_Driver/Inc/stm32l1xx_ll_dma.h **** }
1458:Drivers/STM32L1xx_HAL_Driver/Inc/stm32l1xx_ll_dma.h **** 
1459:Drivers/STM32L1xx_HAL_Driver/Inc/stm32l1xx_ll_dma.h **** /**
1460:Drivers/STM32L1xx_HAL_Driver/Inc/stm32l1xx_ll_dma.h ****   * @brief  Get Channel 7 transfer error flag.
1461:Drivers/STM32L1xx_HAL_Driver/Inc/stm32l1xx_ll_dma.h ****   * @rmtoll ISR          TEIF7         LL_DMA_IsActiveFlag_TE7
1462:Drivers/STM32L1xx_HAL_Driver/Inc/stm32l1xx_ll_dma.h ****   * @param  DMAx DMAx Instance
1463:Drivers/STM32L1xx_HAL_Driver/Inc/stm32l1xx_ll_dma.h ****   * @retval State of bit (1 or 0).
1464:Drivers/STM32L1xx_HAL_Driver/Inc/stm32l1xx_ll_dma.h ****   */
1465:Drivers/STM32L1xx_HAL_Driver/Inc/stm32l1xx_ll_dma.h **** __STATIC_INLINE uint32_t LL_DMA_IsActiveFlag_TE7(DMA_TypeDef *DMAx)
1466:Drivers/STM32L1xx_HAL_Driver/Inc/stm32l1xx_ll_dma.h **** {
1467:Drivers/STM32L1xx_HAL_Driver/Inc/stm32l1xx_ll_dma.h ****   return (READ_BIT(DMAx->ISR, DMA_ISR_TEIF7) == (DMA_ISR_TEIF7));
1468:Drivers/STM32L1xx_HAL_Driver/Inc/stm32l1xx_ll_dma.h **** }
1469:Drivers/STM32L1xx_HAL_Driver/Inc/stm32l1xx_ll_dma.h **** 
1470:Drivers/STM32L1xx_HAL_Driver/Inc/stm32l1xx_ll_dma.h **** /**
1471:Drivers/STM32L1xx_HAL_Driver/Inc/stm32l1xx_ll_dma.h ****   * @brief  Clear Channel 1 global interrupt flag.
1472:Drivers/STM32L1xx_HAL_Driver/Inc/stm32l1xx_ll_dma.h ****   * @rmtoll IFCR         CGIF1         LL_DMA_ClearFlag_GI1
1473:Drivers/STM32L1xx_HAL_Driver/Inc/stm32l1xx_ll_dma.h ****   * @param  DMAx DMAx Instance
1474:Drivers/STM32L1xx_HAL_Driver/Inc/stm32l1xx_ll_dma.h ****   * @retval None
1475:Drivers/STM32L1xx_HAL_Driver/Inc/stm32l1xx_ll_dma.h ****   */
1476:Drivers/STM32L1xx_HAL_Driver/Inc/stm32l1xx_ll_dma.h **** __STATIC_INLINE void LL_DMA_ClearFlag_GI1(DMA_TypeDef *DMAx)
 353              		.loc 3 1476 22 view .LVU91
 354              	.LBB41:
1477:Drivers/STM32L1xx_HAL_Driver/Inc/stm32l1xx_ll_dma.h **** {
1478:Drivers/STM32L1xx_HAL_Driver/Inc/stm32l1xx_ll_dma.h ****   SET_BIT(DMAx->IFCR, DMA_IFCR_CGIF1);
 355              		.loc 3 1478 3 view .LVU92
 356 014c 6368     		ldr	r3, [r4, #4]
 357              	.LVL14:
 358              		.loc 3 1478 3 is_stmt 0 view .LVU93
 359 014e 43F00103 		orr	r3, r3, #1
 360 0152 6360     		str	r3, [r4, #4]
 361              	.LBE41:
 362              	.LBE40:
ARM GAS  C:\Users\domen\AppData\Local\Temp\ccqUJVhq.s 			page 45


 154:Drivers/STM32L1xx_HAL_Driver/Src/stm32l1xx_ll_dma.c **** 
 363              		.loc 1 154 15 view .LVU94
 364 0154 1046     		mov	r0, r2
 365              	.LVL15:
 366              	.L7:
 243:Drivers/STM32L1xx_HAL_Driver/Src/stm32l1xx_ll_dma.c ****     }
 244:Drivers/STM32L1xx_HAL_Driver/Src/stm32l1xx_ll_dma.c ****   }
 245:Drivers/STM32L1xx_HAL_Driver/Src/stm32l1xx_ll_dma.c **** 
 246:Drivers/STM32L1xx_HAL_Driver/Src/stm32l1xx_ll_dma.c ****   return status;
 367              		.loc 1 246 3 is_stmt 1 view .LVU95
 247:Drivers/STM32L1xx_HAL_Driver/Src/stm32l1xx_ll_dma.c **** }
 368              		.loc 1 247 1 is_stmt 0 view .LVU96
 369 0156 38BD     		pop	{r3, r4, r5, pc}
 370              	.LVL16:
 371              	.L56:
 212:Drivers/STM32L1xx_HAL_Driver/Src/stm32l1xx_ll_dma.c ****     }
 372              		.loc 1 212 7 is_stmt 1 view .LVU97
 373              	.LBB42:
 374              	.LBI42:
1479:Drivers/STM32L1xx_HAL_Driver/Inc/stm32l1xx_ll_dma.h **** }
1480:Drivers/STM32L1xx_HAL_Driver/Inc/stm32l1xx_ll_dma.h **** 
1481:Drivers/STM32L1xx_HAL_Driver/Inc/stm32l1xx_ll_dma.h **** /**
1482:Drivers/STM32L1xx_HAL_Driver/Inc/stm32l1xx_ll_dma.h ****   * @brief  Clear Channel 2 global interrupt flag.
1483:Drivers/STM32L1xx_HAL_Driver/Inc/stm32l1xx_ll_dma.h ****   * @rmtoll IFCR         CGIF2         LL_DMA_ClearFlag_GI2
1484:Drivers/STM32L1xx_HAL_Driver/Inc/stm32l1xx_ll_dma.h ****   * @param  DMAx DMAx Instance
1485:Drivers/STM32L1xx_HAL_Driver/Inc/stm32l1xx_ll_dma.h ****   * @retval None
1486:Drivers/STM32L1xx_HAL_Driver/Inc/stm32l1xx_ll_dma.h ****   */
1487:Drivers/STM32L1xx_HAL_Driver/Inc/stm32l1xx_ll_dma.h **** __STATIC_INLINE void LL_DMA_ClearFlag_GI2(DMA_TypeDef *DMAx)
 375              		.loc 3 1487 22 view .LVU98
 376              	.LBB43:
1488:Drivers/STM32L1xx_HAL_Driver/Inc/stm32l1xx_ll_dma.h **** {
1489:Drivers/STM32L1xx_HAL_Driver/Inc/stm32l1xx_ll_dma.h ****   SET_BIT(DMAx->IFCR, DMA_IFCR_CGIF2);
 377              		.loc 3 1489 3 view .LVU99
 378 0158 6368     		ldr	r3, [r4, #4]
 379              	.LVL17:
 380              		.loc 3 1489 3 is_stmt 0 view .LVU100
 381 015a 43F01003 		orr	r3, r3, #16
 382 015e 6360     		str	r3, [r4, #4]
 383              	.LBE43:
 384              	.LBE42:
 154:Drivers/STM32L1xx_HAL_Driver/Src/stm32l1xx_ll_dma.c **** 
 385              		.loc 1 154 15 view .LVU101
 386 0160 0020     		movs	r0, #0
 387 0162 F8E7     		b	.L7
 388              	.LVL18:
 389              	.L57:
 217:Drivers/STM32L1xx_HAL_Driver/Src/stm32l1xx_ll_dma.c ****     }
 390              		.loc 1 217 7 is_stmt 1 view .LVU102
 391              	.LBB44:
 392              	.LBI44:
1490:Drivers/STM32L1xx_HAL_Driver/Inc/stm32l1xx_ll_dma.h **** }
1491:Drivers/STM32L1xx_HAL_Driver/Inc/stm32l1xx_ll_dma.h **** 
1492:Drivers/STM32L1xx_HAL_Driver/Inc/stm32l1xx_ll_dma.h **** /**
1493:Drivers/STM32L1xx_HAL_Driver/Inc/stm32l1xx_ll_dma.h ****   * @brief  Clear Channel 3 global interrupt flag.
1494:Drivers/STM32L1xx_HAL_Driver/Inc/stm32l1xx_ll_dma.h ****   * @rmtoll IFCR         CGIF3         LL_DMA_ClearFlag_GI3
1495:Drivers/STM32L1xx_HAL_Driver/Inc/stm32l1xx_ll_dma.h ****   * @param  DMAx DMAx Instance
1496:Drivers/STM32L1xx_HAL_Driver/Inc/stm32l1xx_ll_dma.h ****   * @retval None
ARM GAS  C:\Users\domen\AppData\Local\Temp\ccqUJVhq.s 			page 46


1497:Drivers/STM32L1xx_HAL_Driver/Inc/stm32l1xx_ll_dma.h ****   */
1498:Drivers/STM32L1xx_HAL_Driver/Inc/stm32l1xx_ll_dma.h **** __STATIC_INLINE void LL_DMA_ClearFlag_GI3(DMA_TypeDef *DMAx)
 393              		.loc 3 1498 22 view .LVU103
 394              	.LBB45:
1499:Drivers/STM32L1xx_HAL_Driver/Inc/stm32l1xx_ll_dma.h **** {
1500:Drivers/STM32L1xx_HAL_Driver/Inc/stm32l1xx_ll_dma.h ****   SET_BIT(DMAx->IFCR, DMA_IFCR_CGIF3);
 395              		.loc 3 1500 3 view .LVU104
 396 0164 6368     		ldr	r3, [r4, #4]
 397              	.LVL19:
 398              		.loc 3 1500 3 is_stmt 0 view .LVU105
 399 0166 43F48073 		orr	r3, r3, #256
 400 016a 6360     		str	r3, [r4, #4]
 401              	.LBE45:
 402              	.LBE44:
 154:Drivers/STM32L1xx_HAL_Driver/Src/stm32l1xx_ll_dma.c **** 
 403              		.loc 1 154 15 view .LVU106
 404 016c 0020     		movs	r0, #0
 405 016e F2E7     		b	.L7
 406              	.LVL20:
 407              	.L58:
 222:Drivers/STM32L1xx_HAL_Driver/Src/stm32l1xx_ll_dma.c ****     }
 408              		.loc 1 222 7 is_stmt 1 view .LVU107
 409              	.LBB46:
 410              	.LBI46:
1501:Drivers/STM32L1xx_HAL_Driver/Inc/stm32l1xx_ll_dma.h **** }
1502:Drivers/STM32L1xx_HAL_Driver/Inc/stm32l1xx_ll_dma.h **** 
1503:Drivers/STM32L1xx_HAL_Driver/Inc/stm32l1xx_ll_dma.h **** /**
1504:Drivers/STM32L1xx_HAL_Driver/Inc/stm32l1xx_ll_dma.h ****   * @brief  Clear Channel 4 global interrupt flag.
1505:Drivers/STM32L1xx_HAL_Driver/Inc/stm32l1xx_ll_dma.h ****   * @rmtoll IFCR         CGIF4         LL_DMA_ClearFlag_GI4
1506:Drivers/STM32L1xx_HAL_Driver/Inc/stm32l1xx_ll_dma.h ****   * @param  DMAx DMAx Instance
1507:Drivers/STM32L1xx_HAL_Driver/Inc/stm32l1xx_ll_dma.h ****   * @retval None
1508:Drivers/STM32L1xx_HAL_Driver/Inc/stm32l1xx_ll_dma.h ****   */
1509:Drivers/STM32L1xx_HAL_Driver/Inc/stm32l1xx_ll_dma.h **** __STATIC_INLINE void LL_DMA_ClearFlag_GI4(DMA_TypeDef *DMAx)
 411              		.loc 3 1509 22 view .LVU108
 412              	.LBB47:
1510:Drivers/STM32L1xx_HAL_Driver/Inc/stm32l1xx_ll_dma.h **** {
1511:Drivers/STM32L1xx_HAL_Driver/Inc/stm32l1xx_ll_dma.h ****   SET_BIT(DMAx->IFCR, DMA_IFCR_CGIF4);
 413              		.loc 3 1511 3 view .LVU109
 414 0170 6368     		ldr	r3, [r4, #4]
 415              	.LVL21:
 416              		.loc 3 1511 3 is_stmt 0 view .LVU110
 417 0172 43F48053 		orr	r3, r3, #4096
 418 0176 6360     		str	r3, [r4, #4]
 419              	.LBE47:
 420              	.LBE46:
 154:Drivers/STM32L1xx_HAL_Driver/Src/stm32l1xx_ll_dma.c **** 
 421              		.loc 1 154 15 view .LVU111
 422 0178 0020     		movs	r0, #0
 423 017a ECE7     		b	.L7
 424              	.LVL22:
 425              	.L59:
 227:Drivers/STM32L1xx_HAL_Driver/Src/stm32l1xx_ll_dma.c ****     }
 426              		.loc 1 227 7 is_stmt 1 view .LVU112
 427              	.LBB48:
 428              	.LBI48:
1512:Drivers/STM32L1xx_HAL_Driver/Inc/stm32l1xx_ll_dma.h **** }
1513:Drivers/STM32L1xx_HAL_Driver/Inc/stm32l1xx_ll_dma.h **** 
ARM GAS  C:\Users\domen\AppData\Local\Temp\ccqUJVhq.s 			page 47


1514:Drivers/STM32L1xx_HAL_Driver/Inc/stm32l1xx_ll_dma.h **** /**
1515:Drivers/STM32L1xx_HAL_Driver/Inc/stm32l1xx_ll_dma.h ****   * @brief  Clear Channel 5 global interrupt flag.
1516:Drivers/STM32L1xx_HAL_Driver/Inc/stm32l1xx_ll_dma.h ****   * @rmtoll IFCR         CGIF5         LL_DMA_ClearFlag_GI5
1517:Drivers/STM32L1xx_HAL_Driver/Inc/stm32l1xx_ll_dma.h ****   * @param  DMAx DMAx Instance
1518:Drivers/STM32L1xx_HAL_Driver/Inc/stm32l1xx_ll_dma.h ****   * @retval None
1519:Drivers/STM32L1xx_HAL_Driver/Inc/stm32l1xx_ll_dma.h ****   */
1520:Drivers/STM32L1xx_HAL_Driver/Inc/stm32l1xx_ll_dma.h **** __STATIC_INLINE void LL_DMA_ClearFlag_GI5(DMA_TypeDef *DMAx)
 429              		.loc 3 1520 22 view .LVU113
 430              	.LBB49:
1521:Drivers/STM32L1xx_HAL_Driver/Inc/stm32l1xx_ll_dma.h **** {
1522:Drivers/STM32L1xx_HAL_Driver/Inc/stm32l1xx_ll_dma.h ****   SET_BIT(DMAx->IFCR, DMA_IFCR_CGIF5);
 431              		.loc 3 1522 3 view .LVU114
 432 017c 6368     		ldr	r3, [r4, #4]
 433              	.LVL23:
 434              		.loc 3 1522 3 is_stmt 0 view .LVU115
 435 017e 43F48033 		orr	r3, r3, #65536
 436 0182 6360     		str	r3, [r4, #4]
 437              	.LBE49:
 438              	.LBE48:
 154:Drivers/STM32L1xx_HAL_Driver/Src/stm32l1xx_ll_dma.c **** 
 439              		.loc 1 154 15 view .LVU116
 440 0184 0020     		movs	r0, #0
 441 0186 E6E7     		b	.L7
 442              	.LVL24:
 443              	.L60:
 233:Drivers/STM32L1xx_HAL_Driver/Src/stm32l1xx_ll_dma.c ****     }
 444              		.loc 1 233 7 is_stmt 1 view .LVU117
 445              	.LBB50:
 446              	.LBI50:
1523:Drivers/STM32L1xx_HAL_Driver/Inc/stm32l1xx_ll_dma.h **** }
1524:Drivers/STM32L1xx_HAL_Driver/Inc/stm32l1xx_ll_dma.h **** 
1525:Drivers/STM32L1xx_HAL_Driver/Inc/stm32l1xx_ll_dma.h **** /**
1526:Drivers/STM32L1xx_HAL_Driver/Inc/stm32l1xx_ll_dma.h ****   * @brief  Clear Channel 6 global interrupt flag.
1527:Drivers/STM32L1xx_HAL_Driver/Inc/stm32l1xx_ll_dma.h ****   * @rmtoll IFCR         CGIF6         LL_DMA_ClearFlag_GI6
1528:Drivers/STM32L1xx_HAL_Driver/Inc/stm32l1xx_ll_dma.h ****   * @param  DMAx DMAx Instance
