ARM GAS  C:\Users\domen\AppData\Local\Temp\ccQylUhh.s 			page 1


   1              		.cpu cortex-m3
   2              		.eabi_attribute 20, 1
   3              		.eabi_attribute 21, 1
   4              		.eabi_attribute 23, 3
   5              		.eabi_attribute 24, 1
   6              		.eabi_attribute 25, 1
   7              		.eabi_attribute 26, 1
   8              		.eabi_attribute 30, 1
   9              		.eabi_attribute 34, 1
  10              		.eabi_attribute 18, 4
  11              		.file	"stm32l1xx_ll_gpio.c"
  12              		.text
  13              	.Ltext0:
  14              		.cfi_sections	.debug_frame
  15              		.section	.text.LL_GPIO_DeInit,"ax",%progbits
  16              		.align	1
  17              		.global	LL_GPIO_DeInit
  18              		.arch armv7-m
  19              		.syntax unified
  20              		.thumb
  21              		.thumb_func
  22              		.fpu softvfp
  24              	LL_GPIO_DeInit:
  25              	.LVL0:
  26              	.LFB116:
  27              		.file 1 "Drivers/STM32L1xx_HAL_Driver/Src/stm32l1xx_ll_gpio.c"
   1:Drivers/STM32L1xx_HAL_Driver/Src/stm32l1xx_ll_gpio.c **** /**
   2:Drivers/STM32L1xx_HAL_Driver/Src/stm32l1xx_ll_gpio.c ****   ******************************************************************************
   3:Drivers/STM32L1xx_HAL_Driver/Src/stm32l1xx_ll_gpio.c ****   * @file    stm32l1xx_ll_gpio.c
   4:Drivers/STM32L1xx_HAL_Driver/Src/stm32l1xx_ll_gpio.c ****   * @author  MCD Application Team
   5:Drivers/STM32L1xx_HAL_Driver/Src/stm32l1xx_ll_gpio.c ****   * @brief   GPIO LL module driver.
   6:Drivers/STM32L1xx_HAL_Driver/Src/stm32l1xx_ll_gpio.c ****   ******************************************************************************
   7:Drivers/STM32L1xx_HAL_Driver/Src/stm32l1xx_ll_gpio.c ****   * @attention
   8:Drivers/STM32L1xx_HAL_Driver/Src/stm32l1xx_ll_gpio.c ****   *
   9:Drivers/STM32L1xx_HAL_Driver/Src/stm32l1xx_ll_gpio.c ****   * <h2><center>&copy; Copyright (c) 2017 STMicroelectronics.
  10:Drivers/STM32L1xx_HAL_Driver/Src/stm32l1xx_ll_gpio.c ****   * All rights reserved.</center></h2>
  11:Drivers/STM32L1xx_HAL_Driver/Src/stm32l1xx_ll_gpio.c ****   *
  12:Drivers/STM32L1xx_HAL_Driver/Src/stm32l1xx_ll_gpio.c ****   * This software component is licensed by ST under BSD 3-Clause license,
  13:Drivers/STM32L1xx_HAL_Driver/Src/stm32l1xx_ll_gpio.c ****   * the "License"; You may not use this file except in compliance with the
  14:Drivers/STM32L1xx_HAL_Driver/Src/stm32l1xx_ll_gpio.c ****   * License. You may obtain a copy of the License at:
  15:Drivers/STM32L1xx_HAL_Driver/Src/stm32l1xx_ll_gpio.c ****   *                        opensource.org/licenses/BSD-3-Clause
  16:Drivers/STM32L1xx_HAL_Driver/Src/stm32l1xx_ll_gpio.c ****   *
  17:Drivers/STM32L1xx_HAL_Driver/Src/stm32l1xx_ll_gpio.c ****   ******************************************************************************
  18:Drivers/STM32L1xx_HAL_Driver/Src/stm32l1xx_ll_gpio.c ****   */
  19:Drivers/STM32L1xx_HAL_Driver/Src/stm32l1xx_ll_gpio.c **** #if defined(USE_FULL_LL_DRIVER)
  20:Drivers/STM32L1xx_HAL_Driver/Src/stm32l1xx_ll_gpio.c **** 
  21:Drivers/STM32L1xx_HAL_Driver/Src/stm32l1xx_ll_gpio.c **** /* Includes ------------------------------------------------------------------*/
  22:Drivers/STM32L1xx_HAL_Driver/Src/stm32l1xx_ll_gpio.c **** #include "stm32l1xx_ll_gpio.h"
  23:Drivers/STM32L1xx_HAL_Driver/Src/stm32l1xx_ll_gpio.c **** #include "stm32l1xx_ll_bus.h"
  24:Drivers/STM32L1xx_HAL_Driver/Src/stm32l1xx_ll_gpio.c **** #ifdef  USE_FULL_ASSERT
  25:Drivers/STM32L1xx_HAL_Driver/Src/stm32l1xx_ll_gpio.c **** #include "stm32_assert.h"
  26:Drivers/STM32L1xx_HAL_Driver/Src/stm32l1xx_ll_gpio.c **** #else
  27:Drivers/STM32L1xx_HAL_Driver/Src/stm32l1xx_ll_gpio.c **** #define assert_param(expr) ((void)0U)
  28:Drivers/STM32L1xx_HAL_Driver/Src/stm32l1xx_ll_gpio.c **** #endif
  29:Drivers/STM32L1xx_HAL_Driver/Src/stm32l1xx_ll_gpio.c **** 
  30:Drivers/STM32L1xx_HAL_Driver/Src/stm32l1xx_ll_gpio.c **** /** @addtogroup STM32L1xx_LL_Driver
  31:Drivers/STM32L1xx_HAL_Driver/Src/stm32l1xx_ll_gpio.c ****   * @{
ARM GAS  C:\Users\domen\AppData\Local\Temp\ccQylUhh.s 			page 2


  32:Drivers/STM32L1xx_HAL_Driver/Src/stm32l1xx_ll_gpio.c ****   */
  33:Drivers/STM32L1xx_HAL_Driver/Src/stm32l1xx_ll_gpio.c **** 
  34:Drivers/STM32L1xx_HAL_Driver/Src/stm32l1xx_ll_gpio.c **** #if defined (GPIOA) || defined (GPIOB) || defined (GPIOC) || defined (GPIOD) || defined (GPIOE) || 
  35:Drivers/STM32L1xx_HAL_Driver/Src/stm32l1xx_ll_gpio.c **** 
  36:Drivers/STM32L1xx_HAL_Driver/Src/stm32l1xx_ll_gpio.c **** /** @addtogroup GPIO_LL
  37:Drivers/STM32L1xx_HAL_Driver/Src/stm32l1xx_ll_gpio.c ****   * @{
  38:Drivers/STM32L1xx_HAL_Driver/Src/stm32l1xx_ll_gpio.c ****   */
  39:Drivers/STM32L1xx_HAL_Driver/Src/stm32l1xx_ll_gpio.c **** 
  40:Drivers/STM32L1xx_HAL_Driver/Src/stm32l1xx_ll_gpio.c **** /* Private types -------------------------------------------------------------*/
  41:Drivers/STM32L1xx_HAL_Driver/Src/stm32l1xx_ll_gpio.c **** /* Private variables ---------------------------------------------------------*/
  42:Drivers/STM32L1xx_HAL_Driver/Src/stm32l1xx_ll_gpio.c **** /* Private constants ---------------------------------------------------------*/
  43:Drivers/STM32L1xx_HAL_Driver/Src/stm32l1xx_ll_gpio.c **** /* Private macros ------------------------------------------------------------*/
  44:Drivers/STM32L1xx_HAL_Driver/Src/stm32l1xx_ll_gpio.c **** /** @addtogroup GPIO_LL_Private_Macros
  45:Drivers/STM32L1xx_HAL_Driver/Src/stm32l1xx_ll_gpio.c ****   * @{
  46:Drivers/STM32L1xx_HAL_Driver/Src/stm32l1xx_ll_gpio.c ****   */
  47:Drivers/STM32L1xx_HAL_Driver/Src/stm32l1xx_ll_gpio.c **** #define IS_LL_GPIO_PIN(__VALUE__)          (((0x00000000U) < (__VALUE__)) && ((__VALUE__) <= (LL_GP
  48:Drivers/STM32L1xx_HAL_Driver/Src/stm32l1xx_ll_gpio.c **** 
  49:Drivers/STM32L1xx_HAL_Driver/Src/stm32l1xx_ll_gpio.c **** #define IS_LL_GPIO_MODE(__VALUE__)         (((__VALUE__) == LL_GPIO_MODE_INPUT)     ||\
  50:Drivers/STM32L1xx_HAL_Driver/Src/stm32l1xx_ll_gpio.c ****                                             ((__VALUE__) == LL_GPIO_MODE_OUTPUT)    ||\
  51:Drivers/STM32L1xx_HAL_Driver/Src/stm32l1xx_ll_gpio.c ****                                             ((__VALUE__) == LL_GPIO_MODE_ALTERNATE) ||\
  52:Drivers/STM32L1xx_HAL_Driver/Src/stm32l1xx_ll_gpio.c ****                                             ((__VALUE__) == LL_GPIO_MODE_ANALOG))
  53:Drivers/STM32L1xx_HAL_Driver/Src/stm32l1xx_ll_gpio.c **** 
  54:Drivers/STM32L1xx_HAL_Driver/Src/stm32l1xx_ll_gpio.c **** #define IS_LL_GPIO_OUTPUT_TYPE(__VALUE__)  (((__VALUE__) == LL_GPIO_OUTPUT_PUSHPULL)  ||\
  55:Drivers/STM32L1xx_HAL_Driver/Src/stm32l1xx_ll_gpio.c ****                                             ((__VALUE__) == LL_GPIO_OUTPUT_OPENDRAIN))
  56:Drivers/STM32L1xx_HAL_Driver/Src/stm32l1xx_ll_gpio.c **** 
  57:Drivers/STM32L1xx_HAL_Driver/Src/stm32l1xx_ll_gpio.c **** #define IS_LL_GPIO_SPEED(__VALUE__)        (((__VALUE__) == LL_GPIO_SPEED_FREQ_LOW)       ||\
  58:Drivers/STM32L1xx_HAL_Driver/Src/stm32l1xx_ll_gpio.c ****                                             ((__VALUE__) == LL_GPIO_SPEED_FREQ_MEDIUM)    ||\
  59:Drivers/STM32L1xx_HAL_Driver/Src/stm32l1xx_ll_gpio.c ****                                             ((__VALUE__) == LL_GPIO_SPEED_FREQ_HIGH)      ||\
  60:Drivers/STM32L1xx_HAL_Driver/Src/stm32l1xx_ll_gpio.c ****                                             ((__VALUE__) == LL_GPIO_SPEED_FREQ_VERY_HIGH))
  61:Drivers/STM32L1xx_HAL_Driver/Src/stm32l1xx_ll_gpio.c **** 
  62:Drivers/STM32L1xx_HAL_Driver/Src/stm32l1xx_ll_gpio.c **** #define IS_LL_GPIO_PULL(__VALUE__)         (((__VALUE__) == LL_GPIO_PULL_NO)   ||\
  63:Drivers/STM32L1xx_HAL_Driver/Src/stm32l1xx_ll_gpio.c ****                                             ((__VALUE__) == LL_GPIO_PULL_UP)   ||\
  64:Drivers/STM32L1xx_HAL_Driver/Src/stm32l1xx_ll_gpio.c ****                                             ((__VALUE__) == LL_GPIO_PULL_DOWN))
  65:Drivers/STM32L1xx_HAL_Driver/Src/stm32l1xx_ll_gpio.c **** 
  66:Drivers/STM32L1xx_HAL_Driver/Src/stm32l1xx_ll_gpio.c **** #define IS_LL_GPIO_ALTERNATE(__VALUE__)    (((__VALUE__) == LL_GPIO_AF_0  )   ||\
  67:Drivers/STM32L1xx_HAL_Driver/Src/stm32l1xx_ll_gpio.c ****                                             ((__VALUE__) == LL_GPIO_AF_1  )   ||\
  68:Drivers/STM32L1xx_HAL_Driver/Src/stm32l1xx_ll_gpio.c ****                                             ((__VALUE__) == LL_GPIO_AF_2  )   ||\
  69:Drivers/STM32L1xx_HAL_Driver/Src/stm32l1xx_ll_gpio.c ****                                             ((__VALUE__) == LL_GPIO_AF_3  )   ||\
  70:Drivers/STM32L1xx_HAL_Driver/Src/stm32l1xx_ll_gpio.c ****                                             ((__VALUE__) == LL_GPIO_AF_4  )   ||\
  71:Drivers/STM32L1xx_HAL_Driver/Src/stm32l1xx_ll_gpio.c ****                                             ((__VALUE__) == LL_GPIO_AF_5  )   ||\
  72:Drivers/STM32L1xx_HAL_Driver/Src/stm32l1xx_ll_gpio.c ****                                             ((__VALUE__) == LL_GPIO_AF_6  )   ||\
  73:Drivers/STM32L1xx_HAL_Driver/Src/stm32l1xx_ll_gpio.c ****                                             ((__VALUE__) == LL_GPIO_AF_7  )   ||\
  74:Drivers/STM32L1xx_HAL_Driver/Src/stm32l1xx_ll_gpio.c ****                                             ((__VALUE__) == LL_GPIO_AF_8  )   ||\
  75:Drivers/STM32L1xx_HAL_Driver/Src/stm32l1xx_ll_gpio.c ****                                             ((__VALUE__) == LL_GPIO_AF_9  )   ||\
  76:Drivers/STM32L1xx_HAL_Driver/Src/stm32l1xx_ll_gpio.c ****                                             ((__VALUE__) == LL_GPIO_AF_10 )   ||\
  77:Drivers/STM32L1xx_HAL_Driver/Src/stm32l1xx_ll_gpio.c ****                                             ((__VALUE__) == LL_GPIO_AF_11 )   ||\
  78:Drivers/STM32L1xx_HAL_Driver/Src/stm32l1xx_ll_gpio.c ****                                             ((__VALUE__) == LL_GPIO_AF_12 )   ||\
  79:Drivers/STM32L1xx_HAL_Driver/Src/stm32l1xx_ll_gpio.c ****                                             ((__VALUE__) == LL_GPIO_AF_13 )   ||\
  80:Drivers/STM32L1xx_HAL_Driver/Src/stm32l1xx_ll_gpio.c ****                                             ((__VALUE__) == LL_GPIO_AF_14 )   ||\
  81:Drivers/STM32L1xx_HAL_Driver/Src/stm32l1xx_ll_gpio.c ****                                             ((__VALUE__) == LL_GPIO_AF_15 ))
  82:Drivers/STM32L1xx_HAL_Driver/Src/stm32l1xx_ll_gpio.c **** /**
  83:Drivers/STM32L1xx_HAL_Driver/Src/stm32l1xx_ll_gpio.c ****   * @}
  84:Drivers/STM32L1xx_HAL_Driver/Src/stm32l1xx_ll_gpio.c ****   */
  85:Drivers/STM32L1xx_HAL_Driver/Src/stm32l1xx_ll_gpio.c **** 
  86:Drivers/STM32L1xx_HAL_Driver/Src/stm32l1xx_ll_gpio.c **** /* Private function prototypes -----------------------------------------------*/
  87:Drivers/STM32L1xx_HAL_Driver/Src/stm32l1xx_ll_gpio.c **** 
  88:Drivers/STM32L1xx_HAL_Driver/Src/stm32l1xx_ll_gpio.c **** /* Exported functions --------------------------------------------------------*/
ARM GAS  C:\Users\domen\AppData\Local\Temp\ccQylUhh.s 			page 3


  89:Drivers/STM32L1xx_HAL_Driver/Src/stm32l1xx_ll_gpio.c **** /** @addtogroup GPIO_LL_Exported_Functions
  90:Drivers/STM32L1xx_HAL_Driver/Src/stm32l1xx_ll_gpio.c ****   * @{
  91:Drivers/STM32L1xx_HAL_Driver/Src/stm32l1xx_ll_gpio.c ****   */
  92:Drivers/STM32L1xx_HAL_Driver/Src/stm32l1xx_ll_gpio.c **** 
  93:Drivers/STM32L1xx_HAL_Driver/Src/stm32l1xx_ll_gpio.c **** /** @addtogroup GPIO_LL_EF_Init
  94:Drivers/STM32L1xx_HAL_Driver/Src/stm32l1xx_ll_gpio.c ****   * @{
  95:Drivers/STM32L1xx_HAL_Driver/Src/stm32l1xx_ll_gpio.c ****   */
  96:Drivers/STM32L1xx_HAL_Driver/Src/stm32l1xx_ll_gpio.c **** 
  97:Drivers/STM32L1xx_HAL_Driver/Src/stm32l1xx_ll_gpio.c **** /**
  98:Drivers/STM32L1xx_HAL_Driver/Src/stm32l1xx_ll_gpio.c ****   * @brief  De-initialize GPIO registers (Registers restored to their default values).
  99:Drivers/STM32L1xx_HAL_Driver/Src/stm32l1xx_ll_gpio.c ****   * @param  GPIOx GPIO Port
 100:Drivers/STM32L1xx_HAL_Driver/Src/stm32l1xx_ll_gpio.c ****   * @retval An ErrorStatus enumeration value:
 101:Drivers/STM32L1xx_HAL_Driver/Src/stm32l1xx_ll_gpio.c ****   *          - SUCCESS: GPIO registers are de-initialized
 102:Drivers/STM32L1xx_HAL_Driver/Src/stm32l1xx_ll_gpio.c ****   *          - ERROR:   Wrong GPIO Port
 103:Drivers/STM32L1xx_HAL_Driver/Src/stm32l1xx_ll_gpio.c ****   */
 104:Drivers/STM32L1xx_HAL_Driver/Src/stm32l1xx_ll_gpio.c **** ErrorStatus LL_GPIO_DeInit(GPIO_TypeDef *GPIOx)
 105:Drivers/STM32L1xx_HAL_Driver/Src/stm32l1xx_ll_gpio.c **** {
  28              		.loc 1 105 1 view -0
  29              		.cfi_startproc
  30              		@ args = 0, pretend = 0, frame = 0
  31              		@ frame_needed = 0, uses_anonymous_args = 0
  32              		.loc 1 105 1 is_stmt 0 view .LVU1
  33 0000 10B5     		push	{r4, lr}
  34              	.LCFI0:
  35              		.cfi_def_cfa_offset 8
  36              		.cfi_offset 4, -8
  37              		.cfi_offset 14, -4
  38 0002 0446     		mov	r4, r0
 106:Drivers/STM32L1xx_HAL_Driver/Src/stm32l1xx_ll_gpio.c ****   ErrorStatus status = SUCCESS;
  39              		.loc 1 106 3 is_stmt 1 view .LVU2
  40              	.LVL1:
 107:Drivers/STM32L1xx_HAL_Driver/Src/stm32l1xx_ll_gpio.c **** 
 108:Drivers/STM32L1xx_HAL_Driver/Src/stm32l1xx_ll_gpio.c ****   /* Check the parameters */
 109:Drivers/STM32L1xx_HAL_Driver/Src/stm32l1xx_ll_gpio.c ****   assert_param(IS_GPIO_ALL_INSTANCE(GPIOx));
  41              		.loc 1 109 3 view .LVU3
  42 0004 314B     		ldr	r3, .L15
  43 0006 9842     		cmp	r0, r3
  44 0008 13D0     		beq	.L2
  45              		.loc 1 109 3 is_stmt 0 discriminator 1 view .LVU4
  46 000a 03F58063 		add	r3, r3, #1024
  47 000e 9842     		cmp	r0, r3
  48 0010 0FD0     		beq	.L2
  49              		.loc 1 109 3 discriminator 2 view .LVU5
  50 0012 03F58063 		add	r3, r3, #1024
  51 0016 9842     		cmp	r0, r3
  52 0018 0BD0     		beq	.L2
  53              		.loc 1 109 3 discriminator 3 view .LVU6
  54 001a 03F58063 		add	r3, r3, #1024
  55 001e 9842     		cmp	r0, r3
  56 0020 07D0     		beq	.L2
  57              		.loc 1 109 3 discriminator 4 view .LVU7
  58 0022 03F50063 		add	r3, r3, #2048
  59 0026 9842     		cmp	r0, r3
  60 0028 03D0     		beq	.L2
  61              		.loc 1 109 3 discriminator 5 view .LVU8
  62 002a 6D21     		movs	r1, #109
  63 002c 2848     		ldr	r0, .L15+4
ARM GAS  C:\Users\domen\AppData\Local\Temp\ccQylUhh.s 			page 4


  64              	.LVL2:
  65              		.loc 1 109 3 discriminator 5 view .LVU9
  66 002e FFF7FEFF 		bl	assert_failed
  67              	.LVL3:
  68              	.L2:
 110:Drivers/STM32L1xx_HAL_Driver/Src/stm32l1xx_ll_gpio.c **** 
 111:Drivers/STM32L1xx_HAL_Driver/Src/stm32l1xx_ll_gpio.c ****   /* Force and Release reset on clock of GPIOx Port */
 112:Drivers/STM32L1xx_HAL_Driver/Src/stm32l1xx_ll_gpio.c ****   if (GPIOx == GPIOA)
  69              		.loc 1 112 3 is_stmt 1 view .LVU10
  70              		.loc 1 112 6 is_stmt 0 view .LVU11
  71 0032 264B     		ldr	r3, .L15
  72 0034 9C42     		cmp	r4, r3
  73 0036 0DD0     		beq	.L10
 113:Drivers/STM32L1xx_HAL_Driver/Src/stm32l1xx_ll_gpio.c ****   {
 114:Drivers/STM32L1xx_HAL_Driver/Src/stm32l1xx_ll_gpio.c ****     LL_AHB1_GRP1_ForceReset(LL_AHB1_GRP1_PERIPH_GPIOA);
 115:Drivers/STM32L1xx_HAL_Driver/Src/stm32l1xx_ll_gpio.c ****     LL_AHB1_GRP1_ReleaseReset(LL_AHB1_GRP1_PERIPH_GPIOA);
 116:Drivers/STM32L1xx_HAL_Driver/Src/stm32l1xx_ll_gpio.c ****   }
 117:Drivers/STM32L1xx_HAL_Driver/Src/stm32l1xx_ll_gpio.c ****   else if (GPIOx == GPIOB)
  74              		.loc 1 117 8 is_stmt 1 view .LVU12
  75              		.loc 1 117 11 is_stmt 0 view .LVU13
  76 0038 264B     		ldr	r3, .L15+8
  77 003a 9C42     		cmp	r4, r3
  78 003c 16D0     		beq	.L11
 118:Drivers/STM32L1xx_HAL_Driver/Src/stm32l1xx_ll_gpio.c ****   {
 119:Drivers/STM32L1xx_HAL_Driver/Src/stm32l1xx_ll_gpio.c ****     LL_AHB1_GRP1_ForceReset(LL_AHB1_GRP1_PERIPH_GPIOB);
 120:Drivers/STM32L1xx_HAL_Driver/Src/stm32l1xx_ll_gpio.c ****     LL_AHB1_GRP1_ReleaseReset(LL_AHB1_GRP1_PERIPH_GPIOB);
 121:Drivers/STM32L1xx_HAL_Driver/Src/stm32l1xx_ll_gpio.c ****   }
 122:Drivers/STM32L1xx_HAL_Driver/Src/stm32l1xx_ll_gpio.c ****   else if (GPIOx == GPIOC)
  79              		.loc 1 122 8 is_stmt 1 view .LVU14
  80              		.loc 1 122 11 is_stmt 0 view .LVU15
  81 003e 264B     		ldr	r3, .L15+12
  82 0040 9C42     		cmp	r4, r3
  83 0042 1FD0     		beq	.L12
 123:Drivers/STM32L1xx_HAL_Driver/Src/stm32l1xx_ll_gpio.c ****   {
 124:Drivers/STM32L1xx_HAL_Driver/Src/stm32l1xx_ll_gpio.c ****     LL_AHB1_GRP1_ForceReset(LL_AHB1_GRP1_PERIPH_GPIOC);
 125:Drivers/STM32L1xx_HAL_Driver/Src/stm32l1xx_ll_gpio.c ****     LL_AHB1_GRP1_ReleaseReset(LL_AHB1_GRP1_PERIPH_GPIOC);
 126:Drivers/STM32L1xx_HAL_Driver/Src/stm32l1xx_ll_gpio.c ****   }
 127:Drivers/STM32L1xx_HAL_Driver/Src/stm32l1xx_ll_gpio.c **** #if defined(GPIOD)
 128:Drivers/STM32L1xx_HAL_Driver/Src/stm32l1xx_ll_gpio.c ****   else if (GPIOx == GPIOD)
  84              		.loc 1 128 8 is_stmt 1 view .LVU16
  85              		.loc 1 128 11 is_stmt 0 view .LVU17
  86 0044 254B     		ldr	r3, .L15+16
  87 0046 9C42     		cmp	r4, r3
  88 0048 28D0     		beq	.L13
 129:Drivers/STM32L1xx_HAL_Driver/Src/stm32l1xx_ll_gpio.c ****   {
 130:Drivers/STM32L1xx_HAL_Driver/Src/stm32l1xx_ll_gpio.c ****     LL_AHB1_GRP1_ForceReset(LL_AHB1_GRP1_PERIPH_GPIOD);
 131:Drivers/STM32L1xx_HAL_Driver/Src/stm32l1xx_ll_gpio.c ****     LL_AHB1_GRP1_ReleaseReset(LL_AHB1_GRP1_PERIPH_GPIOD);
 132:Drivers/STM32L1xx_HAL_Driver/Src/stm32l1xx_ll_gpio.c ****   }
 133:Drivers/STM32L1xx_HAL_Driver/Src/stm32l1xx_ll_gpio.c **** #endif /* GPIOD */
 134:Drivers/STM32L1xx_HAL_Driver/Src/stm32l1xx_ll_gpio.c **** #if defined(GPIOE)
 135:Drivers/STM32L1xx_HAL_Driver/Src/stm32l1xx_ll_gpio.c ****   else if (GPIOx == GPIOE)
 136:Drivers/STM32L1xx_HAL_Driver/Src/stm32l1xx_ll_gpio.c ****   {
 137:Drivers/STM32L1xx_HAL_Driver/Src/stm32l1xx_ll_gpio.c ****     LL_AHB1_GRP1_ForceReset(LL_AHB1_GRP1_PERIPH_GPIOE);
 138:Drivers/STM32L1xx_HAL_Driver/Src/stm32l1xx_ll_gpio.c ****     LL_AHB1_GRP1_ReleaseReset(LL_AHB1_GRP1_PERIPH_GPIOE);
 139:Drivers/STM32L1xx_HAL_Driver/Src/stm32l1xx_ll_gpio.c ****   }
 140:Drivers/STM32L1xx_HAL_Driver/Src/stm32l1xx_ll_gpio.c **** #endif /* GPIOE */
 141:Drivers/STM32L1xx_HAL_Driver/Src/stm32l1xx_ll_gpio.c **** #if defined(GPIOF)
ARM GAS  C:\Users\domen\AppData\Local\Temp\ccQylUhh.s 			page 5


 142:Drivers/STM32L1xx_HAL_Driver/Src/stm32l1xx_ll_gpio.c ****   else if (GPIOx == GPIOF)
 143:Drivers/STM32L1xx_HAL_Driver/Src/stm32l1xx_ll_gpio.c ****   {
 144:Drivers/STM32L1xx_HAL_Driver/Src/stm32l1xx_ll_gpio.c ****     LL_AHB1_GRP1_ForceReset(LL_AHB1_GRP1_PERIPH_GPIOF);
 145:Drivers/STM32L1xx_HAL_Driver/Src/stm32l1xx_ll_gpio.c ****     LL_AHB1_GRP1_ReleaseReset(LL_AHB1_GRP1_PERIPH_GPIOF);
 146:Drivers/STM32L1xx_HAL_Driver/Src/stm32l1xx_ll_gpio.c ****   }
 147:Drivers/STM32L1xx_HAL_Driver/Src/stm32l1xx_ll_gpio.c **** #endif /* GPIOF */
 148:Drivers/STM32L1xx_HAL_Driver/Src/stm32l1xx_ll_gpio.c **** #if defined(GPIOG)
 149:Drivers/STM32L1xx_HAL_Driver/Src/stm32l1xx_ll_gpio.c ****   else if (GPIOx == GPIOG)
 150:Drivers/STM32L1xx_HAL_Driver/Src/stm32l1xx_ll_gpio.c ****   {
 151:Drivers/STM32L1xx_HAL_Driver/Src/stm32l1xx_ll_gpio.c ****     LL_AHB1_GRP1_ForceReset(LL_AHB1_GRP1_PERIPH_GPIOG);
 152:Drivers/STM32L1xx_HAL_Driver/Src/stm32l1xx_ll_gpio.c ****     LL_AHB1_GRP1_ReleaseReset(LL_AHB1_GRP1_PERIPH_GPIOG);
 153:Drivers/STM32L1xx_HAL_Driver/Src/stm32l1xx_ll_gpio.c ****   }
 154:Drivers/STM32L1xx_HAL_Driver/Src/stm32l1xx_ll_gpio.c **** #endif /* GPIOG */
 155:Drivers/STM32L1xx_HAL_Driver/Src/stm32l1xx_ll_gpio.c **** #if defined(GPIOH)
 156:Drivers/STM32L1xx_HAL_Driver/Src/stm32l1xx_ll_gpio.c ****   else if (GPIOx == GPIOH)
  89              		.loc 1 156 8 is_stmt 1 view .LVU18
  90              		.loc 1 156 11 is_stmt 0 view .LVU19
  91 004a 254B     		ldr	r3, .L15+20
  92 004c 9C42     		cmp	r4, r3
  93 004e 31D0     		beq	.L14
 157:Drivers/STM32L1xx_HAL_Driver/Src/stm32l1xx_ll_gpio.c ****   {
 158:Drivers/STM32L1xx_HAL_Driver/Src/stm32l1xx_ll_gpio.c ****     LL_AHB1_GRP1_ForceReset(LL_AHB1_GRP1_PERIPH_GPIOH);
 159:Drivers/STM32L1xx_HAL_Driver/Src/stm32l1xx_ll_gpio.c ****     LL_AHB1_GRP1_ReleaseReset(LL_AHB1_GRP1_PERIPH_GPIOH);
 160:Drivers/STM32L1xx_HAL_Driver/Src/stm32l1xx_ll_gpio.c ****   }
 161:Drivers/STM32L1xx_HAL_Driver/Src/stm32l1xx_ll_gpio.c **** #endif /* GPIOH */
 162:Drivers/STM32L1xx_HAL_Driver/Src/stm32l1xx_ll_gpio.c ****   else
 163:Drivers/STM32L1xx_HAL_Driver/Src/stm32l1xx_ll_gpio.c ****   {
 164:Drivers/STM32L1xx_HAL_Driver/Src/stm32l1xx_ll_gpio.c ****     status = ERROR;
  94              		.loc 1 164 12 view .LVU20
  95 0050 0120     		movs	r0, #1
  96 0052 0AE0     		b	.L4
  97              	.L10:
 114:Drivers/STM32L1xx_HAL_Driver/Src/stm32l1xx_ll_gpio.c ****     LL_AHB1_GRP1_ReleaseReset(LL_AHB1_GRP1_PERIPH_GPIOA);
  98              		.loc 1 114 5 is_stmt 1 view .LVU21
  99              	.LVL4:
 100              	.LBB82:
 101              	.LBI82:
 102              		.file 2 "Drivers/STM32L1xx_HAL_Driver/Inc/stm32l1xx_ll_bus.h"
   1:Drivers/STM32L1xx_HAL_Driver/Inc/stm32l1xx_ll_bus.h **** /**
   2:Drivers/STM32L1xx_HAL_Driver/Inc/stm32l1xx_ll_bus.h ****   ******************************************************************************
   3:Drivers/STM32L1xx_HAL_Driver/Inc/stm32l1xx_ll_bus.h ****   * @file    stm32l1xx_ll_bus.h
   4:Drivers/STM32L1xx_HAL_Driver/Inc/stm32l1xx_ll_bus.h ****   * @author  MCD Application Team
   5:Drivers/STM32L1xx_HAL_Driver/Inc/stm32l1xx_ll_bus.h ****   * @brief   Header file of BUS LL module.
   6:Drivers/STM32L1xx_HAL_Driver/Inc/stm32l1xx_ll_bus.h **** 
   7:Drivers/STM32L1xx_HAL_Driver/Inc/stm32l1xx_ll_bus.h ****   @verbatim
   8:Drivers/STM32L1xx_HAL_Driver/Inc/stm32l1xx_ll_bus.h ****                       ##### RCC Limitations #####
   9:Drivers/STM32L1xx_HAL_Driver/Inc/stm32l1xx_ll_bus.h ****   ==============================================================================
  10:Drivers/STM32L1xx_HAL_Driver/Inc/stm32l1xx_ll_bus.h ****     [..]
  11:Drivers/STM32L1xx_HAL_Driver/Inc/stm32l1xx_ll_bus.h ****       A delay between an RCC peripheral clock enable and the effective peripheral
  12:Drivers/STM32L1xx_HAL_Driver/Inc/stm32l1xx_ll_bus.h ****       enabling should be taken into account in order to manage the peripheral read/write
  13:Drivers/STM32L1xx_HAL_Driver/Inc/stm32l1xx_ll_bus.h ****       from/to registers.
  14:Drivers/STM32L1xx_HAL_Driver/Inc/stm32l1xx_ll_bus.h ****       (+) This delay depends on the peripheral mapping.
  15:Drivers/STM32L1xx_HAL_Driver/Inc/stm32l1xx_ll_bus.h ****         (++) AHB & APB peripherals, 1 dummy read is necessary
  16:Drivers/STM32L1xx_HAL_Driver/Inc/stm32l1xx_ll_bus.h **** 
  17:Drivers/STM32L1xx_HAL_Driver/Inc/stm32l1xx_ll_bus.h ****     [..]
  18:Drivers/STM32L1xx_HAL_Driver/Inc/stm32l1xx_ll_bus.h ****       Workarounds:
  19:Drivers/STM32L1xx_HAL_Driver/Inc/stm32l1xx_ll_bus.h ****       (#) For AHB & APB peripherals, a dummy read to the peripheral register has been
ARM GAS  C:\Users\domen\AppData\Local\Temp\ccQylUhh.s 			page 6


  20:Drivers/STM32L1xx_HAL_Driver/Inc/stm32l1xx_ll_bus.h ****           inserted in each LL_{BUS}_GRP{x}_EnableClock() function.
  21:Drivers/STM32L1xx_HAL_Driver/Inc/stm32l1xx_ll_bus.h **** 
  22:Drivers/STM32L1xx_HAL_Driver/Inc/stm32l1xx_ll_bus.h ****   @endverbatim
  23:Drivers/STM32L1xx_HAL_Driver/Inc/stm32l1xx_ll_bus.h ****   ******************************************************************************
  24:Drivers/STM32L1xx_HAL_Driver/Inc/stm32l1xx_ll_bus.h ****   * @attention
  25:Drivers/STM32L1xx_HAL_Driver/Inc/stm32l1xx_ll_bus.h ****   *
  26:Drivers/STM32L1xx_HAL_Driver/Inc/stm32l1xx_ll_bus.h ****   * <h2><center>&copy; Copyright(c) 2017 STMicroelectronics.
  27:Drivers/STM32L1xx_HAL_Driver/Inc/stm32l1xx_ll_bus.h ****   * All rights reserved.</center></h2>
  28:Drivers/STM32L1xx_HAL_Driver/Inc/stm32l1xx_ll_bus.h ****   *
  29:Drivers/STM32L1xx_HAL_Driver/Inc/stm32l1xx_ll_bus.h ****   * This software component is licensed by ST under BSD 3-Clause license,
  30:Drivers/STM32L1xx_HAL_Driver/Inc/stm32l1xx_ll_bus.h ****   * the "License"; You may not use this file except in compliance with the
  31:Drivers/STM32L1xx_HAL_Driver/Inc/stm32l1xx_ll_bus.h ****   * License. You may obtain a copy of the License at:
  32:Drivers/STM32L1xx_HAL_Driver/Inc/stm32l1xx_ll_bus.h ****   *                        opensource.org/licenses/BSD-3-Clause
  33:Drivers/STM32L1xx_HAL_Driver/Inc/stm32l1xx_ll_bus.h ****   *
  34:Drivers/STM32L1xx_HAL_Driver/Inc/stm32l1xx_ll_bus.h ****   ******************************************************************************
  35:Drivers/STM32L1xx_HAL_Driver/Inc/stm32l1xx_ll_bus.h ****   */
  36:Drivers/STM32L1xx_HAL_Driver/Inc/stm32l1xx_ll_bus.h **** 
  37:Drivers/STM32L1xx_HAL_Driver/Inc/stm32l1xx_ll_bus.h **** /* Define to prevent recursive inclusion -------------------------------------*/
  38:Drivers/STM32L1xx_HAL_Driver/Inc/stm32l1xx_ll_bus.h **** #ifndef __STM32L1xx_LL_BUS_H
  39:Drivers/STM32L1xx_HAL_Driver/Inc/stm32l1xx_ll_bus.h **** #define __STM32L1xx_LL_BUS_H
  40:Drivers/STM32L1xx_HAL_Driver/Inc/stm32l1xx_ll_bus.h **** 
  41:Drivers/STM32L1xx_HAL_Driver/Inc/stm32l1xx_ll_bus.h **** #ifdef __cplusplus
  42:Drivers/STM32L1xx_HAL_Driver/Inc/stm32l1xx_ll_bus.h **** extern "C" {
  43:Drivers/STM32L1xx_HAL_Driver/Inc/stm32l1xx_ll_bus.h **** #endif
  44:Drivers/STM32L1xx_HAL_Driver/Inc/stm32l1xx_ll_bus.h **** 
  45:Drivers/STM32L1xx_HAL_Driver/Inc/stm32l1xx_ll_bus.h **** /* Includes ------------------------------------------------------------------*/
  46:Drivers/STM32L1xx_HAL_Driver/Inc/stm32l1xx_ll_bus.h **** #include "stm32l1xx.h"
  47:Drivers/STM32L1xx_HAL_Driver/Inc/stm32l1xx_ll_bus.h **** 
  48:Drivers/STM32L1xx_HAL_Driver/Inc/stm32l1xx_ll_bus.h **** /** @addtogroup STM32L1xx_LL_Driver
  49:Drivers/STM32L1xx_HAL_Driver/Inc/stm32l1xx_ll_bus.h ****   * @{
  50:Drivers/STM32L1xx_HAL_Driver/Inc/stm32l1xx_ll_bus.h ****   */
  51:Drivers/STM32L1xx_HAL_Driver/Inc/stm32l1xx_ll_bus.h **** 
  52:Drivers/STM32L1xx_HAL_Driver/Inc/stm32l1xx_ll_bus.h **** #if defined(RCC)
  53:Drivers/STM32L1xx_HAL_Driver/Inc/stm32l1xx_ll_bus.h **** 
  54:Drivers/STM32L1xx_HAL_Driver/Inc/stm32l1xx_ll_bus.h **** /** @defgroup BUS_LL BUS
  55:Drivers/STM32L1xx_HAL_Driver/Inc/stm32l1xx_ll_bus.h ****   * @{
  56:Drivers/STM32L1xx_HAL_Driver/Inc/stm32l1xx_ll_bus.h ****   */
  57:Drivers/STM32L1xx_HAL_Driver/Inc/stm32l1xx_ll_bus.h **** 
  58:Drivers/STM32L1xx_HAL_Driver/Inc/stm32l1xx_ll_bus.h **** /* Private types -------------------------------------------------------------*/
  59:Drivers/STM32L1xx_HAL_Driver/Inc/stm32l1xx_ll_bus.h **** /* Private variables ---------------------------------------------------------*/
  60:Drivers/STM32L1xx_HAL_Driver/Inc/stm32l1xx_ll_bus.h **** 
  61:Drivers/STM32L1xx_HAL_Driver/Inc/stm32l1xx_ll_bus.h **** /* Private constants ---------------------------------------------------------*/
  62:Drivers/STM32L1xx_HAL_Driver/Inc/stm32l1xx_ll_bus.h **** 
  63:Drivers/STM32L1xx_HAL_Driver/Inc/stm32l1xx_ll_bus.h **** /* Private macros ------------------------------------------------------------*/
  64:Drivers/STM32L1xx_HAL_Driver/Inc/stm32l1xx_ll_bus.h **** 
  65:Drivers/STM32L1xx_HAL_Driver/Inc/stm32l1xx_ll_bus.h **** /* Exported types ------------------------------------------------------------*/
  66:Drivers/STM32L1xx_HAL_Driver/Inc/stm32l1xx_ll_bus.h **** /* Exported constants --------------------------------------------------------*/
  67:Drivers/STM32L1xx_HAL_Driver/Inc/stm32l1xx_ll_bus.h **** /** @defgroup BUS_LL_Exported_Constants BUS Exported Constants
  68:Drivers/STM32L1xx_HAL_Driver/Inc/stm32l1xx_ll_bus.h ****   * @{
  69:Drivers/STM32L1xx_HAL_Driver/Inc/stm32l1xx_ll_bus.h ****   */
  70:Drivers/STM32L1xx_HAL_Driver/Inc/stm32l1xx_ll_bus.h **** 
  71:Drivers/STM32L1xx_HAL_Driver/Inc/stm32l1xx_ll_bus.h **** /** @defgroup BUS_LL_EC_AHB1_GRP1_PERIPH  AHB1 GRP1 PERIPH
  72:Drivers/STM32L1xx_HAL_Driver/Inc/stm32l1xx_ll_bus.h ****   * @{
  73:Drivers/STM32L1xx_HAL_Driver/Inc/stm32l1xx_ll_bus.h ****   */
  74:Drivers/STM32L1xx_HAL_Driver/Inc/stm32l1xx_ll_bus.h **** #define LL_AHB1_GRP1_PERIPH_ALL            0xFFFFFFFFU
  75:Drivers/STM32L1xx_HAL_Driver/Inc/stm32l1xx_ll_bus.h **** #define LL_AHB1_GRP1_PERIPH_GPIOA          RCC_AHBENR_GPIOAEN
  76:Drivers/STM32L1xx_HAL_Driver/Inc/stm32l1xx_ll_bus.h **** #define LL_AHB1_GRP1_PERIPH_GPIOB          RCC_AHBENR_GPIOBEN
ARM GAS  C:\Users\domen\AppData\Local\Temp\ccQylUhh.s 			page 7


  77:Drivers/STM32L1xx_HAL_Driver/Inc/stm32l1xx_ll_bus.h **** #define LL_AHB1_GRP1_PERIPH_GPIOC          RCC_AHBENR_GPIOCEN
  78:Drivers/STM32L1xx_HAL_Driver/Inc/stm32l1xx_ll_bus.h **** #define LL_AHB1_GRP1_PERIPH_GPIOD          RCC_AHBENR_GPIODEN
  79:Drivers/STM32L1xx_HAL_Driver/Inc/stm32l1xx_ll_bus.h **** #if defined(GPIOE)
  80:Drivers/STM32L1xx_HAL_Driver/Inc/stm32l1xx_ll_bus.h **** #define LL_AHB1_GRP1_PERIPH_GPIOE          RCC_AHBENR_GPIOEEN
  81:Drivers/STM32L1xx_HAL_Driver/Inc/stm32l1xx_ll_bus.h **** #endif/*GPIOE*/
  82:Drivers/STM32L1xx_HAL_Driver/Inc/stm32l1xx_ll_bus.h **** #define LL_AHB1_GRP1_PERIPH_GPIOH          RCC_AHBENR_GPIOHEN
  83:Drivers/STM32L1xx_HAL_Driver/Inc/stm32l1xx_ll_bus.h **** #if defined(GPIOF)
  84:Drivers/STM32L1xx_HAL_Driver/Inc/stm32l1xx_ll_bus.h **** #define LL_AHB1_GRP1_PERIPH_GPIOF          RCC_AHBENR_GPIOFEN
  85:Drivers/STM32L1xx_HAL_Driver/Inc/stm32l1xx_ll_bus.h **** #endif/*GPIOF*/
  86:Drivers/STM32L1xx_HAL_Driver/Inc/stm32l1xx_ll_bus.h **** #if defined(GPIOG)
  87:Drivers/STM32L1xx_HAL_Driver/Inc/stm32l1xx_ll_bus.h **** #define LL_AHB1_GRP1_PERIPH_GPIOG          RCC_AHBENR_GPIOGEN
  88:Drivers/STM32L1xx_HAL_Driver/Inc/stm32l1xx_ll_bus.h **** #endif/*GPIOG*/
  89:Drivers/STM32L1xx_HAL_Driver/Inc/stm32l1xx_ll_bus.h **** #define LL_AHB1_GRP1_PERIPH_SRAM           RCC_AHBLPENR_SRAMLPEN
  90:Drivers/STM32L1xx_HAL_Driver/Inc/stm32l1xx_ll_bus.h **** #define LL_AHB1_GRP1_PERIPH_CRC            RCC_AHBENR_CRCEN
  91:Drivers/STM32L1xx_HAL_Driver/Inc/stm32l1xx_ll_bus.h **** #define LL_AHB1_GRP1_PERIPH_FLASH          RCC_AHBENR_FLITFEN
  92:Drivers/STM32L1xx_HAL_Driver/Inc/stm32l1xx_ll_bus.h **** #define LL_AHB1_GRP1_PERIPH_DMA1           RCC_AHBENR_DMA1EN
  93:Drivers/STM32L1xx_HAL_Driver/Inc/stm32l1xx_ll_bus.h **** #if defined(DMA2)
  94:Drivers/STM32L1xx_HAL_Driver/Inc/stm32l1xx_ll_bus.h **** #define LL_AHB1_GRP1_PERIPH_DMA2           RCC_AHBENR_DMA2EN
  95:Drivers/STM32L1xx_HAL_Driver/Inc/stm32l1xx_ll_bus.h **** #endif/*DMA2*/
  96:Drivers/STM32L1xx_HAL_Driver/Inc/stm32l1xx_ll_bus.h **** #if defined(AES)
  97:Drivers/STM32L1xx_HAL_Driver/Inc/stm32l1xx_ll_bus.h **** #define LL_AHB1_GRP1_PERIPH_CRYP           RCC_AHBENR_AESEN
  98:Drivers/STM32L1xx_HAL_Driver/Inc/stm32l1xx_ll_bus.h **** #endif/*AES*/
  99:Drivers/STM32L1xx_HAL_Driver/Inc/stm32l1xx_ll_bus.h **** #if defined(FSMC_Bank1)
 100:Drivers/STM32L1xx_HAL_Driver/Inc/stm32l1xx_ll_bus.h **** #define LL_AHB1_GRP1_PERIPH_FSMC           RCC_AHBENR_FSMCEN
 101:Drivers/STM32L1xx_HAL_Driver/Inc/stm32l1xx_ll_bus.h **** #endif/*FSMC_Bank1*/
 102:Drivers/STM32L1xx_HAL_Driver/Inc/stm32l1xx_ll_bus.h **** /**
 103:Drivers/STM32L1xx_HAL_Driver/Inc/stm32l1xx_ll_bus.h ****   * @}
 104:Drivers/STM32L1xx_HAL_Driver/Inc/stm32l1xx_ll_bus.h ****   */
 105:Drivers/STM32L1xx_HAL_Driver/Inc/stm32l1xx_ll_bus.h **** 
 106:Drivers/STM32L1xx_HAL_Driver/Inc/stm32l1xx_ll_bus.h **** /** @defgroup BUS_LL_EC_APB1_GRP1_PERIPH  APB1 GRP1 PERIPH
 107:Drivers/STM32L1xx_HAL_Driver/Inc/stm32l1xx_ll_bus.h ****   * @{
 108:Drivers/STM32L1xx_HAL_Driver/Inc/stm32l1xx_ll_bus.h ****   */
 109:Drivers/STM32L1xx_HAL_Driver/Inc/stm32l1xx_ll_bus.h **** #define LL_APB1_GRP1_PERIPH_ALL            0xFFFFFFFFU
 110:Drivers/STM32L1xx_HAL_Driver/Inc/stm32l1xx_ll_bus.h **** #define LL_APB1_GRP1_PERIPH_TIM2           RCC_APB1ENR_TIM2EN
 111:Drivers/STM32L1xx_HAL_Driver/Inc/stm32l1xx_ll_bus.h **** #define LL_APB1_GRP1_PERIPH_TIM3           RCC_APB1ENR_TIM3EN
 112:Drivers/STM32L1xx_HAL_Driver/Inc/stm32l1xx_ll_bus.h **** #define LL_APB1_GRP1_PERIPH_TIM4           RCC_APB1ENR_TIM4EN
 113:Drivers/STM32L1xx_HAL_Driver/Inc/stm32l1xx_ll_bus.h **** #if defined(TIM5)
 114:Drivers/STM32L1xx_HAL_Driver/Inc/stm32l1xx_ll_bus.h **** #define LL_APB1_GRP1_PERIPH_TIM5           RCC_APB1ENR_TIM5EN
 115:Drivers/STM32L1xx_HAL_Driver/Inc/stm32l1xx_ll_bus.h **** #endif /*TIM5*/
 116:Drivers/STM32L1xx_HAL_Driver/Inc/stm32l1xx_ll_bus.h **** #define LL_APB1_GRP1_PERIPH_TIM6           RCC_APB1ENR_TIM6EN
 117:Drivers/STM32L1xx_HAL_Driver/Inc/stm32l1xx_ll_bus.h **** #define LL_APB1_GRP1_PERIPH_TIM7           RCC_APB1ENR_TIM7EN
 118:Drivers/STM32L1xx_HAL_Driver/Inc/stm32l1xx_ll_bus.h **** #if defined(LCD)
 119:Drivers/STM32L1xx_HAL_Driver/Inc/stm32l1xx_ll_bus.h **** #define LL_APB1_GRP1_PERIPH_LCD            RCC_APB1ENR_LCDEN
 120:Drivers/STM32L1xx_HAL_Driver/Inc/stm32l1xx_ll_bus.h **** #endif /*LCD*/
 121:Drivers/STM32L1xx_HAL_Driver/Inc/stm32l1xx_ll_bus.h **** #define LL_APB1_GRP1_PERIPH_WWDG           RCC_APB1ENR_WWDGEN
 122:Drivers/STM32L1xx_HAL_Driver/Inc/stm32l1xx_ll_bus.h **** #define LL_APB1_GRP1_PERIPH_SPI2           RCC_APB1ENR_SPI2EN
 123:Drivers/STM32L1xx_HAL_Driver/Inc/stm32l1xx_ll_bus.h **** #if defined(SPI3)
 124:Drivers/STM32L1xx_HAL_Driver/Inc/stm32l1xx_ll_bus.h **** #define LL_APB1_GRP1_PERIPH_SPI3           RCC_APB1ENR_SPI3EN
 125:Drivers/STM32L1xx_HAL_Driver/Inc/stm32l1xx_ll_bus.h **** #endif /*SPI3*/
 126:Drivers/STM32L1xx_HAL_Driver/Inc/stm32l1xx_ll_bus.h **** #define LL_APB1_GRP1_PERIPH_USART2         RCC_APB1ENR_USART2EN
 127:Drivers/STM32L1xx_HAL_Driver/Inc/stm32l1xx_ll_bus.h **** #define LL_APB1_GRP1_PERIPH_USART3         RCC_APB1ENR_USART3EN
 128:Drivers/STM32L1xx_HAL_Driver/Inc/stm32l1xx_ll_bus.h **** #if defined(UART4)
 129:Drivers/STM32L1xx_HAL_Driver/Inc/stm32l1xx_ll_bus.h **** #define LL_APB1_GRP1_PERIPH_UART4          RCC_APB1ENR_UART4EN
 130:Drivers/STM32L1xx_HAL_Driver/Inc/stm32l1xx_ll_bus.h **** #endif /*UART4*/
 131:Drivers/STM32L1xx_HAL_Driver/Inc/stm32l1xx_ll_bus.h **** #if defined(UART5)
 132:Drivers/STM32L1xx_HAL_Driver/Inc/stm32l1xx_ll_bus.h **** #define LL_APB1_GRP1_PERIPH_UART5          RCC_APB1ENR_UART5EN
 133:Drivers/STM32L1xx_HAL_Driver/Inc/stm32l1xx_ll_bus.h **** #endif /*UART5*/
ARM GAS  C:\Users\domen\AppData\Local\Temp\ccQylUhh.s 			page 8


 134:Drivers/STM32L1xx_HAL_Driver/Inc/stm32l1xx_ll_bus.h **** #define LL_APB1_GRP1_PERIPH_I2C1           RCC_APB1ENR_I2C1EN
 135:Drivers/STM32L1xx_HAL_Driver/Inc/stm32l1xx_ll_bus.h **** #define LL_APB1_GRP1_PERIPH_I2C2           RCC_APB1ENR_I2C2EN
 136:Drivers/STM32L1xx_HAL_Driver/Inc/stm32l1xx_ll_bus.h **** #define LL_APB1_GRP1_PERIPH_USB            RCC_APB1ENR_USBEN
 137:Drivers/STM32L1xx_HAL_Driver/Inc/stm32l1xx_ll_bus.h **** #define LL_APB1_GRP1_PERIPH_PWR            RCC_APB1ENR_PWREN
 138:Drivers/STM32L1xx_HAL_Driver/Inc/stm32l1xx_ll_bus.h **** #define LL_APB1_GRP1_PERIPH_DAC1           RCC_APB1ENR_DACEN
 139:Drivers/STM32L1xx_HAL_Driver/Inc/stm32l1xx_ll_bus.h **** #define LL_APB1_GRP1_PERIPH_COMP           RCC_APB1ENR_COMPEN
 140:Drivers/STM32L1xx_HAL_Driver/Inc/stm32l1xx_ll_bus.h **** #if defined(OPAMP)
 141:Drivers/STM32L1xx_HAL_Driver/Inc/stm32l1xx_ll_bus.h **** /* Note: Peripherals COMP and OPAMP share the same clock domain */
 142:Drivers/STM32L1xx_HAL_Driver/Inc/stm32l1xx_ll_bus.h **** #define LL_APB1_GRP1_PERIPH_OPAMP          LL_APB1_GRP1_PERIPH_COMP
 143:Drivers/STM32L1xx_HAL_Driver/Inc/stm32l1xx_ll_bus.h **** #endif
 144:Drivers/STM32L1xx_HAL_Driver/Inc/stm32l1xx_ll_bus.h **** /**
 145:Drivers/STM32L1xx_HAL_Driver/Inc/stm32l1xx_ll_bus.h ****   * @}
 146:Drivers/STM32L1xx_HAL_Driver/Inc/stm32l1xx_ll_bus.h ****   */
 147:Drivers/STM32L1xx_HAL_Driver/Inc/stm32l1xx_ll_bus.h **** 
 148:Drivers/STM32L1xx_HAL_Driver/Inc/stm32l1xx_ll_bus.h **** /** @defgroup BUS_LL_EC_APB2_GRP1_PERIPH  APB2 GRP1 PERIPH
 149:Drivers/STM32L1xx_HAL_Driver/Inc/stm32l1xx_ll_bus.h ****   * @{
 150:Drivers/STM32L1xx_HAL_Driver/Inc/stm32l1xx_ll_bus.h ****   */
 151:Drivers/STM32L1xx_HAL_Driver/Inc/stm32l1xx_ll_bus.h **** #define LL_APB2_GRP1_PERIPH_ALL            0xFFFFFFFFU
 152:Drivers/STM32L1xx_HAL_Driver/Inc/stm32l1xx_ll_bus.h **** #define LL_APB2_GRP1_PERIPH_SYSCFG         RCC_APB2ENR_SYSCFGEN
 153:Drivers/STM32L1xx_HAL_Driver/Inc/stm32l1xx_ll_bus.h **** #define LL_APB2_GRP1_PERIPH_TIM9           RCC_APB2ENR_TIM9EN
 154:Drivers/STM32L1xx_HAL_Driver/Inc/stm32l1xx_ll_bus.h **** #define LL_APB2_GRP1_PERIPH_TIM10          RCC_APB2ENR_TIM10EN
 155:Drivers/STM32L1xx_HAL_Driver/Inc/stm32l1xx_ll_bus.h **** #define LL_APB2_GRP1_PERIPH_TIM11          RCC_APB2ENR_TIM11EN
 156:Drivers/STM32L1xx_HAL_Driver/Inc/stm32l1xx_ll_bus.h **** #define LL_APB2_GRP1_PERIPH_ADC1           RCC_APB2ENR_ADC1EN
 157:Drivers/STM32L1xx_HAL_Driver/Inc/stm32l1xx_ll_bus.h **** #if defined(SDIO)
 158:Drivers/STM32L1xx_HAL_Driver/Inc/stm32l1xx_ll_bus.h **** #define LL_APB2_GRP1_PERIPH_SDIO           RCC_APB2ENR_SDIOEN
 159:Drivers/STM32L1xx_HAL_Driver/Inc/stm32l1xx_ll_bus.h **** #endif /*SDIO*/
 160:Drivers/STM32L1xx_HAL_Driver/Inc/stm32l1xx_ll_bus.h **** #define LL_APB2_GRP1_PERIPH_SPI1           RCC_APB2ENR_SPI1EN
 161:Drivers/STM32L1xx_HAL_Driver/Inc/stm32l1xx_ll_bus.h **** #define LL_APB2_GRP1_PERIPH_USART1         RCC_APB2ENR_USART1EN
 162:Drivers/STM32L1xx_HAL_Driver/Inc/stm32l1xx_ll_bus.h **** /**
 163:Drivers/STM32L1xx_HAL_Driver/Inc/stm32l1xx_ll_bus.h ****   * @}
 164:Drivers/STM32L1xx_HAL_Driver/Inc/stm32l1xx_ll_bus.h ****   */
 165:Drivers/STM32L1xx_HAL_Driver/Inc/stm32l1xx_ll_bus.h **** 
 166:Drivers/STM32L1xx_HAL_Driver/Inc/stm32l1xx_ll_bus.h **** /**
 167:Drivers/STM32L1xx_HAL_Driver/Inc/stm32l1xx_ll_bus.h ****   * @}
 168:Drivers/STM32L1xx_HAL_Driver/Inc/stm32l1xx_ll_bus.h ****   */
 169:Drivers/STM32L1xx_HAL_Driver/Inc/stm32l1xx_ll_bus.h **** 
 170:Drivers/STM32L1xx_HAL_Driver/Inc/stm32l1xx_ll_bus.h **** /* Exported macro ------------------------------------------------------------*/
 171:Drivers/STM32L1xx_HAL_Driver/Inc/stm32l1xx_ll_bus.h **** 
 172:Drivers/STM32L1xx_HAL_Driver/Inc/stm32l1xx_ll_bus.h **** /* Exported functions --------------------------------------------------------*/
 173:Drivers/STM32L1xx_HAL_Driver/Inc/stm32l1xx_ll_bus.h **** /** @defgroup BUS_LL_Exported_Functions BUS Exported Functions
 174:Drivers/STM32L1xx_HAL_Driver/Inc/stm32l1xx_ll_bus.h ****   * @{
 175:Drivers/STM32L1xx_HAL_Driver/Inc/stm32l1xx_ll_bus.h ****   */
 176:Drivers/STM32L1xx_HAL_Driver/Inc/stm32l1xx_ll_bus.h **** 
 177:Drivers/STM32L1xx_HAL_Driver/Inc/stm32l1xx_ll_bus.h **** /** @defgroup BUS_LL_EF_AHB1 AHB1
 178:Drivers/STM32L1xx_HAL_Driver/Inc/stm32l1xx_ll_bus.h ****   * @{
 179:Drivers/STM32L1xx_HAL_Driver/Inc/stm32l1xx_ll_bus.h ****   */
 180:Drivers/STM32L1xx_HAL_Driver/Inc/stm32l1xx_ll_bus.h **** 
 181:Drivers/STM32L1xx_HAL_Driver/Inc/stm32l1xx_ll_bus.h **** /**
 182:Drivers/STM32L1xx_HAL_Driver/Inc/stm32l1xx_ll_bus.h ****   * @brief  Enable AHB1 peripherals clock.
 183:Drivers/STM32L1xx_HAL_Driver/Inc/stm32l1xx_ll_bus.h ****   * @rmtoll AHBENR       GPIOAEN       LL_AHB1_GRP1_EnableClock\n
 184:Drivers/STM32L1xx_HAL_Driver/Inc/stm32l1xx_ll_bus.h ****   *         AHBENR       GPIOBEN       LL_AHB1_GRP1_EnableClock\n
 185:Drivers/STM32L1xx_HAL_Driver/Inc/stm32l1xx_ll_bus.h ****   *         AHBENR       GPIOCEN       LL_AHB1_GRP1_EnableClock\n
 186:Drivers/STM32L1xx_HAL_Driver/Inc/stm32l1xx_ll_bus.h ****   *         AHBENR       GPIODEN       LL_AHB1_GRP1_EnableClock\n
 187:Drivers/STM32L1xx_HAL_Driver/Inc/stm32l1xx_ll_bus.h ****   *         AHBENR       GPIOEEN       LL_AHB1_GRP1_EnableClock\n
 188:Drivers/STM32L1xx_HAL_Driver/Inc/stm32l1xx_ll_bus.h ****   *         AHBENR       GPIOHEN       LL_AHB1_GRP1_EnableClock\n
 189:Drivers/STM32L1xx_HAL_Driver/Inc/stm32l1xx_ll_bus.h ****   *         AHBENR       GPIOFEN       LL_AHB1_GRP1_EnableClock\n
 190:Drivers/STM32L1xx_HAL_Driver/Inc/stm32l1xx_ll_bus.h ****   *         AHBENR       GPIOGEN       LL_AHB1_GRP1_EnableClock\n
ARM GAS  C:\Users\domen\AppData\Local\Temp\ccQylUhh.s 			page 9


 191:Drivers/STM32L1xx_HAL_Driver/Inc/stm32l1xx_ll_bus.h ****   *         AHBENR       CRCEN         LL_AHB1_GRP1_EnableClock\n
 192:Drivers/STM32L1xx_HAL_Driver/Inc/stm32l1xx_ll_bus.h ****   *         AHBENR       FLITFEN       LL_AHB1_GRP1_EnableClock\n
 193:Drivers/STM32L1xx_HAL_Driver/Inc/stm32l1xx_ll_bus.h ****   *         AHBENR       DMA1EN        LL_AHB1_GRP1_EnableClock\n
 194:Drivers/STM32L1xx_HAL_Driver/Inc/stm32l1xx_ll_bus.h ****   *         AHBENR       DMA2EN        LL_AHB1_GRP1_EnableClock\n
 195:Drivers/STM32L1xx_HAL_Driver/Inc/stm32l1xx_ll_bus.h ****   *         AHBENR       AESEN         LL_AHB1_GRP1_EnableClock\n
 196:Drivers/STM32L1xx_HAL_Driver/Inc/stm32l1xx_ll_bus.h ****   *         AHBENR       FSMCEN        LL_AHB1_GRP1_EnableClock
 197:Drivers/STM32L1xx_HAL_Driver/Inc/stm32l1xx_ll_bus.h ****   * @param  Periphs This parameter can be a combination of the following values:
 198:Drivers/STM32L1xx_HAL_Driver/Inc/stm32l1xx_ll_bus.h ****   *         @arg @ref LL_AHB1_GRP1_PERIPH_GPIOA
 199:Drivers/STM32L1xx_HAL_Driver/Inc/stm32l1xx_ll_bus.h ****   *         @arg @ref LL_AHB1_GRP1_PERIPH_GPIOB
 200:Drivers/STM32L1xx_HAL_Driver/Inc/stm32l1xx_ll_bus.h ****   *         @arg @ref LL_AHB1_GRP1_PERIPH_GPIOC
 201:Drivers/STM32L1xx_HAL_Driver/Inc/stm32l1xx_ll_bus.h ****   *         @arg @ref LL_AHB1_GRP1_PERIPH_GPIOD
 202:Drivers/STM32L1xx_HAL_Driver/Inc/stm32l1xx_ll_bus.h ****   *         @arg @ref LL_AHB1_GRP1_PERIPH_GPIOE (*)
 203:Drivers/STM32L1xx_HAL_Driver/Inc/stm32l1xx_ll_bus.h ****   *         @arg @ref LL_AHB1_GRP1_PERIPH_GPIOH
 204:Drivers/STM32L1xx_HAL_Driver/Inc/stm32l1xx_ll_bus.h ****   *         @arg @ref LL_AHB1_GRP1_PERIPH_GPIOF (*)
 205:Drivers/STM32L1xx_HAL_Driver/Inc/stm32l1xx_ll_bus.h ****   *         @arg @ref LL_AHB1_GRP1_PERIPH_GPIOG (*)
 206:Drivers/STM32L1xx_HAL_Driver/Inc/stm32l1xx_ll_bus.h ****   *         @arg @ref LL_AHB1_GRP1_PERIPH_CRC
 207:Drivers/STM32L1xx_HAL_Driver/Inc/stm32l1xx_ll_bus.h ****   *         @arg @ref LL_AHB1_GRP1_PERIPH_FLASH
 208:Drivers/STM32L1xx_HAL_Driver/Inc/stm32l1xx_ll_bus.h ****   *         @arg @ref LL_AHB1_GRP1_PERIPH_DMA1
 209:Drivers/STM32L1xx_HAL_Driver/Inc/stm32l1xx_ll_bus.h ****   *         @arg @ref LL_AHB1_GRP1_PERIPH_DMA2 (*)
 210:Drivers/STM32L1xx_HAL_Driver/Inc/stm32l1xx_ll_bus.h ****   *         @arg @ref LL_AHB1_GRP1_PERIPH_CRYP (*)
 211:Drivers/STM32L1xx_HAL_Driver/Inc/stm32l1xx_ll_bus.h ****   *         @arg @ref LL_AHB1_GRP1_PERIPH_FSMC (*)
 212:Drivers/STM32L1xx_HAL_Driver/Inc/stm32l1xx_ll_bus.h ****   *
 213:Drivers/STM32L1xx_HAL_Driver/Inc/stm32l1xx_ll_bus.h ****   *         (*) value not defined in all devices.
 214:Drivers/STM32L1xx_HAL_Driver/Inc/stm32l1xx_ll_bus.h ****   * @retval None
 215:Drivers/STM32L1xx_HAL_Driver/Inc/stm32l1xx_ll_bus.h **** */
 216:Drivers/STM32L1xx_HAL_Driver/Inc/stm32l1xx_ll_bus.h **** __STATIC_INLINE void LL_AHB1_GRP1_EnableClock(uint32_t Periphs)
 217:Drivers/STM32L1xx_HAL_Driver/Inc/stm32l1xx_ll_bus.h **** {
 218:Drivers/STM32L1xx_HAL_Driver/Inc/stm32l1xx_ll_bus.h ****   __IO uint32_t tmpreg;
 219:Drivers/STM32L1xx_HAL_Driver/Inc/stm32l1xx_ll_bus.h ****   SET_BIT(RCC->AHBENR, Periphs);
 220:Drivers/STM32L1xx_HAL_Driver/Inc/stm32l1xx_ll_bus.h ****   /* Delay after an RCC peripheral clock enabling */
 221:Drivers/STM32L1xx_HAL_Driver/Inc/stm32l1xx_ll_bus.h ****   tmpreg = READ_BIT(RCC->AHBENR, Periphs);
 222:Drivers/STM32L1xx_HAL_Driver/Inc/stm32l1xx_ll_bus.h ****   (void)tmpreg;
 223:Drivers/STM32L1xx_HAL_Driver/Inc/stm32l1xx_ll_bus.h **** }
 224:Drivers/STM32L1xx_HAL_Driver/Inc/stm32l1xx_ll_bus.h **** 
 225:Drivers/STM32L1xx_HAL_Driver/Inc/stm32l1xx_ll_bus.h **** /**
 226:Drivers/STM32L1xx_HAL_Driver/Inc/stm32l1xx_ll_bus.h ****   * @brief  Check if AHB1 peripheral clock is enabled or not
 227:Drivers/STM32L1xx_HAL_Driver/Inc/stm32l1xx_ll_bus.h ****   * @rmtoll AHBENR       GPIOAEN       LL_AHB1_GRP1_IsEnabledClock\n
 228:Drivers/STM32L1xx_HAL_Driver/Inc/stm32l1xx_ll_bus.h ****   *         AHBENR       GPIOBEN       LL_AHB1_GRP1_IsEnabledClock\n
 229:Drivers/STM32L1xx_HAL_Driver/Inc/stm32l1xx_ll_bus.h ****   *         AHBENR       GPIOCEN       LL_AHB1_GRP1_IsEnabledClock\n
 230:Drivers/STM32L1xx_HAL_Driver/Inc/stm32l1xx_ll_bus.h ****   *         AHBENR       GPIODEN       LL_AHB1_GRP1_IsEnabledClock\n
 231:Drivers/STM32L1xx_HAL_Driver/Inc/stm32l1xx_ll_bus.h ****   *         AHBENR       GPIOEEN       LL_AHB1_GRP1_IsEnabledClock\n
 232:Drivers/STM32L1xx_HAL_Driver/Inc/stm32l1xx_ll_bus.h ****   *         AHBENR       GPIOHEN       LL_AHB1_GRP1_IsEnabledClock\n
 233:Drivers/STM32L1xx_HAL_Driver/Inc/stm32l1xx_ll_bus.h ****   *         AHBENR       GPIOFEN       LL_AHB1_GRP1_IsEnabledClock\n
 234:Drivers/STM32L1xx_HAL_Driver/Inc/stm32l1xx_ll_bus.h ****   *         AHBENR       GPIOGEN       LL_AHB1_GRP1_IsEnabledClock\n
 235:Drivers/STM32L1xx_HAL_Driver/Inc/stm32l1xx_ll_bus.h ****   *         AHBENR       CRCEN         LL_AHB1_GRP1_IsEnabledClock\n
 236:Drivers/STM32L1xx_HAL_Driver/Inc/stm32l1xx_ll_bus.h ****   *         AHBENR       FLITFEN       LL_AHB1_GRP1_IsEnabledClock\n
 237:Drivers/STM32L1xx_HAL_Driver/Inc/stm32l1xx_ll_bus.h ****   *         AHBENR       DMA1EN        LL_AHB1_GRP1_IsEnabledClock\n
 238:Drivers/STM32L1xx_HAL_Driver/Inc/stm32l1xx_ll_bus.h ****   *         AHBENR       DMA2EN        LL_AHB1_GRP1_IsEnabledClock\n
 239:Drivers/STM32L1xx_HAL_Driver/Inc/stm32l1xx_ll_bus.h ****   *         AHBENR       AESEN         LL_AHB1_GRP1_IsEnabledClock\n
 240:Drivers/STM32L1xx_HAL_Driver/Inc/stm32l1xx_ll_bus.h ****   *         AHBENR       FSMCEN        LL_AHB1_GRP1_IsEnabledClock
 241:Drivers/STM32L1xx_HAL_Driver/Inc/stm32l1xx_ll_bus.h ****   * @param  Periphs This parameter can be a combination of the following values:
 242:Drivers/STM32L1xx_HAL_Driver/Inc/stm32l1xx_ll_bus.h ****   *         @arg @ref LL_AHB1_GRP1_PERIPH_GPIOA
 243:Drivers/STM32L1xx_HAL_Driver/Inc/stm32l1xx_ll_bus.h ****   *         @arg @ref LL_AHB1_GRP1_PERIPH_GPIOB
 244:Drivers/STM32L1xx_HAL_Driver/Inc/stm32l1xx_ll_bus.h ****   *         @arg @ref LL_AHB1_GRP1_PERIPH_GPIOC
 245:Drivers/STM32L1xx_HAL_Driver/Inc/stm32l1xx_ll_bus.h ****   *         @arg @ref LL_AHB1_GRP1_PERIPH_GPIOD
 246:Drivers/STM32L1xx_HAL_Driver/Inc/stm32l1xx_ll_bus.h ****   *         @arg @ref LL_AHB1_GRP1_PERIPH_GPIOE (*)
 247:Drivers/STM32L1xx_HAL_Driver/Inc/stm32l1xx_ll_bus.h ****   *         @arg @ref LL_AHB1_GRP1_PERIPH_GPIOH
ARM GAS  C:\Users\domen\AppData\Local\Temp\ccQylUhh.s 			page 10


 248:Drivers/STM32L1xx_HAL_Driver/Inc/stm32l1xx_ll_bus.h ****   *         @arg @ref LL_AHB1_GRP1_PERIPH_GPIOF (*)
 249:Drivers/STM32L1xx_HAL_Driver/Inc/stm32l1xx_ll_bus.h ****   *         @arg @ref LL_AHB1_GRP1_PERIPH_GPIOG (*)
 250:Drivers/STM32L1xx_HAL_Driver/Inc/stm32l1xx_ll_bus.h ****   *         @arg @ref LL_AHB1_GRP1_PERIPH_CRC
 251:Drivers/STM32L1xx_HAL_Driver/Inc/stm32l1xx_ll_bus.h ****   *         @arg @ref LL_AHB1_GRP1_PERIPH_FLASH
 252:Drivers/STM32L1xx_HAL_Driver/Inc/stm32l1xx_ll_bus.h ****   *         @arg @ref LL_AHB1_GRP1_PERIPH_DMA1
 253:Drivers/STM32L1xx_HAL_Driver/Inc/stm32l1xx_ll_bus.h ****   *         @arg @ref LL_AHB1_GRP1_PERIPH_DMA2 (*)
 254:Drivers/STM32L1xx_HAL_Driver/Inc/stm32l1xx_ll_bus.h ****   *         @arg @ref LL_AHB1_GRP1_PERIPH_CRYP (*)
 255:Drivers/STM32L1xx_HAL_Driver/Inc/stm32l1xx_ll_bus.h ****   *         @arg @ref LL_AHB1_GRP1_PERIPH_FSMC (*)
 256:Drivers/STM32L1xx_HAL_Driver/Inc/stm32l1xx_ll_bus.h ****   *
 257:Drivers/STM32L1xx_HAL_Driver/Inc/stm32l1xx_ll_bus.h ****   *         (*) value not defined in all devices.
 258:Drivers/STM32L1xx_HAL_Driver/Inc/stm32l1xx_ll_bus.h ****   * @retval State of Periphs (1 or 0).
 259:Drivers/STM32L1xx_HAL_Driver/Inc/stm32l1xx_ll_bus.h **** */
 260:Drivers/STM32L1xx_HAL_Driver/Inc/stm32l1xx_ll_bus.h **** __STATIC_INLINE uint32_t LL_AHB1_GRP1_IsEnabledClock(uint32_t Periphs)
 261:Drivers/STM32L1xx_HAL_Driver/Inc/stm32l1xx_ll_bus.h **** {
 262:Drivers/STM32L1xx_HAL_Driver/Inc/stm32l1xx_ll_bus.h ****   return ((READ_BIT(RCC->AHBENR, Periphs) == (Periphs)) ? 1UL : 0UL);
 263:Drivers/STM32L1xx_HAL_Driver/Inc/stm32l1xx_ll_bus.h **** }
 264:Drivers/STM32L1xx_HAL_Driver/Inc/stm32l1xx_ll_bus.h **** 
 265:Drivers/STM32L1xx_HAL_Driver/Inc/stm32l1xx_ll_bus.h **** /**
 266:Drivers/STM32L1xx_HAL_Driver/Inc/stm32l1xx_ll_bus.h ****   * @brief  Disable AHB1 peripherals clock.
 267:Drivers/STM32L1xx_HAL_Driver/Inc/stm32l1xx_ll_bus.h ****   * @rmtoll AHBENR       GPIOAEN       LL_AHB1_GRP1_DisableClock\n
 268:Drivers/STM32L1xx_HAL_Driver/Inc/stm32l1xx_ll_bus.h ****   *         AHBENR       GPIOBEN       LL_AHB1_GRP1_DisableClock\n
 269:Drivers/STM32L1xx_HAL_Driver/Inc/stm32l1xx_ll_bus.h ****   *         AHBENR       GPIOCEN       LL_AHB1_GRP1_DisableClock\n
 270:Drivers/STM32L1xx_HAL_Driver/Inc/stm32l1xx_ll_bus.h ****   *         AHBENR       GPIODEN       LL_AHB1_GRP1_DisableClock\n
 271:Drivers/STM32L1xx_HAL_Driver/Inc/stm32l1xx_ll_bus.h ****   *         AHBENR       GPIOEEN       LL_AHB1_GRP1_DisableClock\n
 272:Drivers/STM32L1xx_HAL_Driver/Inc/stm32l1xx_ll_bus.h ****   *         AHBENR       GPIOHEN       LL_AHB1_GRP1_DisableClock\n
 273:Drivers/STM32L1xx_HAL_Driver/Inc/stm32l1xx_ll_bus.h ****   *         AHBENR       GPIOFEN       LL_AHB1_GRP1_DisableClock\n
 274:Drivers/STM32L1xx_HAL_Driver/Inc/stm32l1xx_ll_bus.h ****   *         AHBENR       GPIOGEN       LL_AHB1_GRP1_DisableClock\n
 275:Drivers/STM32L1xx_HAL_Driver/Inc/stm32l1xx_ll_bus.h ****   *         AHBENR       CRCEN         LL_AHB1_GRP1_DisableClock\n
 276:Drivers/STM32L1xx_HAL_Driver/Inc/stm32l1xx_ll_bus.h ****   *         AHBENR       FLITFEN       LL_AHB1_GRP1_DisableClock\n
 277:Drivers/STM32L1xx_HAL_Driver/Inc/stm32l1xx_ll_bus.h ****   *         AHBENR       DMA1EN        LL_AHB1_GRP1_DisableClock\n
 278:Drivers/STM32L1xx_HAL_Driver/Inc/stm32l1xx_ll_bus.h ****   *         AHBENR       DMA2EN        LL_AHB1_GRP1_DisableClock\n
 279:Drivers/STM32L1xx_HAL_Driver/Inc/stm32l1xx_ll_bus.h ****   *         AHBENR       AESEN         LL_AHB1_GRP1_DisableClock\n
 280:Drivers/STM32L1xx_HAL_Driver/Inc/stm32l1xx_ll_bus.h ****   *         AHBENR       FSMCEN        LL_AHB1_GRP1_DisableClock
 281:Drivers/STM32L1xx_HAL_Driver/Inc/stm32l1xx_ll_bus.h ****   * @param  Periphs This parameter can be a combination of the following values:
 282:Drivers/STM32L1xx_HAL_Driver/Inc/stm32l1xx_ll_bus.h ****   *         @arg @ref LL_AHB1_GRP1_PERIPH_GPIOA
 283:Drivers/STM32L1xx_HAL_Driver/Inc/stm32l1xx_ll_bus.h ****   *         @arg @ref LL_AHB1_GRP1_PERIPH_GPIOB
 284:Drivers/STM32L1xx_HAL_Driver/Inc/stm32l1xx_ll_bus.h ****   *         @arg @ref LL_AHB1_GRP1_PERIPH_GPIOC
 285:Drivers/STM32L1xx_HAL_Driver/Inc/stm32l1xx_ll_bus.h ****   *         @arg @ref LL_AHB1_GRP1_PERIPH_GPIOD
 286:Drivers/STM32L1xx_HAL_Driver/Inc/stm32l1xx_ll_bus.h ****   *         @arg @ref LL_AHB1_GRP1_PERIPH_GPIOE (*)
 287:Drivers/STM32L1xx_HAL_Driver/Inc/stm32l1xx_ll_bus.h ****   *         @arg @ref LL_AHB1_GRP1_PERIPH_GPIOH
 288:Drivers/STM32L1xx_HAL_Driver/Inc/stm32l1xx_ll_bus.h ****   *         @arg @ref LL_AHB1_GRP1_PERIPH_GPIOF (*)
 289:Drivers/STM32L1xx_HAL_Driver/Inc/stm32l1xx_ll_bus.h ****   *         @arg @ref LL_AHB1_GRP1_PERIPH_GPIOG (*)
 290:Drivers/STM32L1xx_HAL_Driver/Inc/stm32l1xx_ll_bus.h ****   *         @arg @ref LL_AHB1_GRP1_PERIPH_CRC
 291:Drivers/STM32L1xx_HAL_Driver/Inc/stm32l1xx_ll_bus.h ****   *         @arg @ref LL_AHB1_GRP1_PERIPH_FLASH
 292:Drivers/STM32L1xx_HAL_Driver/Inc/stm32l1xx_ll_bus.h ****   *         @arg @ref LL_AHB1_GRP1_PERIPH_DMA1
 293:Drivers/STM32L1xx_HAL_Driver/Inc/stm32l1xx_ll_bus.h ****   *         @arg @ref LL_AHB1_GRP1_PERIPH_DMA2 (*)
 294:Drivers/STM32L1xx_HAL_Driver/Inc/stm32l1xx_ll_bus.h ****   *         @arg @ref LL_AHB1_GRP1_PERIPH_CRYP (*)
 295:Drivers/STM32L1xx_HAL_Driver/Inc/stm32l1xx_ll_bus.h ****   *         @arg @ref LL_AHB1_GRP1_PERIPH_FSMC (*)
 296:Drivers/STM32L1xx_HAL_Driver/Inc/stm32l1xx_ll_bus.h ****   *
 297:Drivers/STM32L1xx_HAL_Driver/Inc/stm32l1xx_ll_bus.h ****   *         (*) value not defined in all devices.
 298:Drivers/STM32L1xx_HAL_Driver/Inc/stm32l1xx_ll_bus.h ****   * @retval None
 299:Drivers/STM32L1xx_HAL_Driver/Inc/stm32l1xx_ll_bus.h **** */
 300:Drivers/STM32L1xx_HAL_Driver/Inc/stm32l1xx_ll_bus.h **** __STATIC_INLINE void LL_AHB1_GRP1_DisableClock(uint32_t Periphs)
 301:Drivers/STM32L1xx_HAL_Driver/Inc/stm32l1xx_ll_bus.h **** {
 302:Drivers/STM32L1xx_HAL_Driver/Inc/stm32l1xx_ll_bus.h ****   CLEAR_BIT(RCC->AHBENR, Periphs);
 303:Drivers/STM32L1xx_HAL_Driver/Inc/stm32l1xx_ll_bus.h **** }
 304:Drivers/STM32L1xx_HAL_Driver/Inc/stm32l1xx_ll_bus.h **** 
ARM GAS  C:\Users\domen\AppData\Local\Temp\ccQylUhh.s 			page 11


 305:Drivers/STM32L1xx_HAL_Driver/Inc/stm32l1xx_ll_bus.h **** /**
 306:Drivers/STM32L1xx_HAL_Driver/Inc/stm32l1xx_ll_bus.h ****   * @brief  Force AHB1 peripherals reset.
 307:Drivers/STM32L1xx_HAL_Driver/Inc/stm32l1xx_ll_bus.h ****   * @rmtoll AHBRSTR      GPIOARST      LL_AHB1_GRP1_ForceReset\n
 308:Drivers/STM32L1xx_HAL_Driver/Inc/stm32l1xx_ll_bus.h ****   *         AHBRSTR      GPIOBRST      LL_AHB1_GRP1_ForceReset\n
 309:Drivers/STM32L1xx_HAL_Driver/Inc/stm32l1xx_ll_bus.h ****   *         AHBRSTR      GPIOCRST      LL_AHB1_GRP1_ForceReset\n
 310:Drivers/STM32L1xx_HAL_Driver/Inc/stm32l1xx_ll_bus.h ****   *         AHBRSTR      GPIODRST      LL_AHB1_GRP1_ForceReset\n
 311:Drivers/STM32L1xx_HAL_Driver/Inc/stm32l1xx_ll_bus.h ****   *         AHBRSTR      GPIOERST      LL_AHB1_GRP1_ForceReset\n
 312:Drivers/STM32L1xx_HAL_Driver/Inc/stm32l1xx_ll_bus.h ****   *         AHBRSTR      GPIOHRST      LL_AHB1_GRP1_ForceReset\n
 313:Drivers/STM32L1xx_HAL_Driver/Inc/stm32l1xx_ll_bus.h ****   *         AHBRSTR      GPIOFRST      LL_AHB1_GRP1_ForceReset\n
 314:Drivers/STM32L1xx_HAL_Driver/Inc/stm32l1xx_ll_bus.h ****   *         AHBRSTR      GPIOGRST      LL_AHB1_GRP1_ForceReset\n
 315:Drivers/STM32L1xx_HAL_Driver/Inc/stm32l1xx_ll_bus.h ****   *         AHBRSTR      CRCRST        LL_AHB1_GRP1_ForceReset\n
 316:Drivers/STM32L1xx_HAL_Driver/Inc/stm32l1xx_ll_bus.h ****   *         AHBRSTR      FLITFRST      LL_AHB1_GRP1_ForceReset\n
 317:Drivers/STM32L1xx_HAL_Driver/Inc/stm32l1xx_ll_bus.h ****   *         AHBRSTR      DMA1RST       LL_AHB1_GRP1_ForceReset\n
 318:Drivers/STM32L1xx_HAL_Driver/Inc/stm32l1xx_ll_bus.h ****   *         AHBRSTR      DMA2RST       LL_AHB1_GRP1_ForceReset\n
 319:Drivers/STM32L1xx_HAL_Driver/Inc/stm32l1xx_ll_bus.h ****   *         AHBRSTR      AESRST        LL_AHB1_GRP1_ForceReset\n
 320:Drivers/STM32L1xx_HAL_Driver/Inc/stm32l1xx_ll_bus.h ****   *         AHBRSTR      FSMCRST       LL_AHB1_GRP1_ForceReset
 321:Drivers/STM32L1xx_HAL_Driver/Inc/stm32l1xx_ll_bus.h ****   * @param  Periphs This parameter can be a combination of the following values:
 322:Drivers/STM32L1xx_HAL_Driver/Inc/stm32l1xx_ll_bus.h ****   *         @arg @ref LL_AHB1_GRP1_PERIPH_ALL
 323:Drivers/STM32L1xx_HAL_Driver/Inc/stm32l1xx_ll_bus.h ****   *         @arg @ref LL_AHB1_GRP1_PERIPH_GPIOA
 324:Drivers/STM32L1xx_HAL_Driver/Inc/stm32l1xx_ll_bus.h ****   *         @arg @ref LL_AHB1_GRP1_PERIPH_GPIOB
 325:Drivers/STM32L1xx_HAL_Driver/Inc/stm32l1xx_ll_bus.h ****   *         @arg @ref LL_AHB1_GRP1_PERIPH_GPIOC
 326:Drivers/STM32L1xx_HAL_Driver/Inc/stm32l1xx_ll_bus.h ****   *         @arg @ref LL_AHB1_GRP1_PERIPH_GPIOD
 327:Drivers/STM32L1xx_HAL_Driver/Inc/stm32l1xx_ll_bus.h ****   *         @arg @ref LL_AHB1_GRP1_PERIPH_GPIOE (*)
 328:Drivers/STM32L1xx_HAL_Driver/Inc/stm32l1xx_ll_bus.h ****   *         @arg @ref LL_AHB1_GRP1_PERIPH_GPIOH
 329:Drivers/STM32L1xx_HAL_Driver/Inc/stm32l1xx_ll_bus.h ****   *         @arg @ref LL_AHB1_GRP1_PERIPH_GPIOF (*)
 330:Drivers/STM32L1xx_HAL_Driver/Inc/stm32l1xx_ll_bus.h ****   *         @arg @ref LL_AHB1_GRP1_PERIPH_GPIOG (*)
 331:Drivers/STM32L1xx_HAL_Driver/Inc/stm32l1xx_ll_bus.h ****   *         @arg @ref LL_AHB1_GRP1_PERIPH_CRC
 332:Drivers/STM32L1xx_HAL_Driver/Inc/stm32l1xx_ll_bus.h ****   *         @arg @ref LL_AHB1_GRP1_PERIPH_FLASH
 333:Drivers/STM32L1xx_HAL_Driver/Inc/stm32l1xx_ll_bus.h ****   *         @arg @ref LL_AHB1_GRP1_PERIPH_DMA1
 334:Drivers/STM32L1xx_HAL_Driver/Inc/stm32l1xx_ll_bus.h ****   *         @arg @ref LL_AHB1_GRP1_PERIPH_DMA2 (*)
 335:Drivers/STM32L1xx_HAL_Driver/Inc/stm32l1xx_ll_bus.h ****   *         @arg @ref LL_AHB1_GRP1_PERIPH_CRYP (*)
 336:Drivers/STM32L1xx_HAL_Driver/Inc/stm32l1xx_ll_bus.h ****   *         @arg @ref LL_AHB1_GRP1_PERIPH_FSMC (*)
 337:Drivers/STM32L1xx_HAL_Driver/Inc/stm32l1xx_ll_bus.h ****   *
 338:Drivers/STM32L1xx_HAL_Driver/Inc/stm32l1xx_ll_bus.h ****   *         (*) value not defined in all devices.
 339:Drivers/STM32L1xx_HAL_Driver/Inc/stm32l1xx_ll_bus.h ****   * @retval None
 340:Drivers/STM32L1xx_HAL_Driver/Inc/stm32l1xx_ll_bus.h **** */
 341:Drivers/STM32L1xx_HAL_Driver/Inc/stm32l1xx_ll_bus.h **** __STATIC_INLINE void LL_AHB1_GRP1_ForceReset(uint32_t Periphs)
 103              		.loc 2 341 22 view .LVU22
 104              	.LBB83:
 342:Drivers/STM32L1xx_HAL_Driver/Inc/stm32l1xx_ll_bus.h **** {
 343:Drivers/STM32L1xx_HAL_Driver/Inc/stm32l1xx_ll_bus.h ****   SET_BIT(RCC->AHBRSTR, Periphs);
 105              		.loc 2 343 3 view .LVU23
 106 0054 03F56053 		add	r3, r3, #14336
 107 0058 1A69     		ldr	r2, [r3, #16]
 108 005a 42F00102 		orr	r2, r2, #1
 109 005e 1A61     		str	r2, [r3, #16]
 110              	.LVL5:
 111              		.loc 2 343 3 is_stmt 0 view .LVU24
 112              	.LBE83:
 113              	.LBE82:
 115:Drivers/STM32L1xx_HAL_Driver/Src/stm32l1xx_ll_gpio.c ****   }
 114              		.loc 1 115 5 is_stmt 1 view .LVU25
 115              	.LBB84:
 116              	.LBI84:
 344:Drivers/STM32L1xx_HAL_Driver/Inc/stm32l1xx_ll_bus.h **** }
 345:Drivers/STM32L1xx_HAL_Driver/Inc/stm32l1xx_ll_bus.h **** 
 346:Drivers/STM32L1xx_HAL_Driver/Inc/stm32l1xx_ll_bus.h **** /**
ARM GAS  C:\Users\domen\AppData\Local\Temp\ccQylUhh.s 			page 12


 347:Drivers/STM32L1xx_HAL_Driver/Inc/stm32l1xx_ll_bus.h ****   * @brief  Release AHB1 peripherals reset.
 348:Drivers/STM32L1xx_HAL_Driver/Inc/stm32l1xx_ll_bus.h ****   * @rmtoll AHBRSTR      GPIOARST      LL_AHB1_GRP1_ReleaseReset\n
 349:Drivers/STM32L1xx_HAL_Driver/Inc/stm32l1xx_ll_bus.h ****   *         AHBRSTR      GPIOBRST      LL_AHB1_GRP1_ReleaseReset\n
 350:Drivers/STM32L1xx_HAL_Driver/Inc/stm32l1xx_ll_bus.h ****   *         AHBRSTR      GPIOCRST      LL_AHB1_GRP1_ReleaseReset\n
 351:Drivers/STM32L1xx_HAL_Driver/Inc/stm32l1xx_ll_bus.h ****   *         AHBRSTR      GPIODRST      LL_AHB1_GRP1_ReleaseReset\n
 352:Drivers/STM32L1xx_HAL_Driver/Inc/stm32l1xx_ll_bus.h ****   *         AHBRSTR      GPIOERST      LL_AHB1_GRP1_ReleaseReset\n
 353:Drivers/STM32L1xx_HAL_Driver/Inc/stm32l1xx_ll_bus.h ****   *         AHBRSTR      GPIOHRST      LL_AHB1_GRP1_ReleaseReset\n
 354:Drivers/STM32L1xx_HAL_Driver/Inc/stm32l1xx_ll_bus.h ****   *         AHBRSTR      GPIOFRST      LL_AHB1_GRP1_ReleaseReset\n
 355:Drivers/STM32L1xx_HAL_Driver/Inc/stm32l1xx_ll_bus.h ****   *         AHBRSTR      GPIOGRST      LL_AHB1_GRP1_ReleaseReset\n
 356:Drivers/STM32L1xx_HAL_Driver/Inc/stm32l1xx_ll_bus.h ****   *         AHBRSTR      CRCRST        LL_AHB1_GRP1_ReleaseReset\n
 357:Drivers/STM32L1xx_HAL_Driver/Inc/stm32l1xx_ll_bus.h ****   *         AHBRSTR      FLITFRST      LL_AHB1_GRP1_ReleaseReset\n
 358:Drivers/STM32L1xx_HAL_Driver/Inc/stm32l1xx_ll_bus.h ****   *         AHBRSTR      DMA1RST       LL_AHB1_GRP1_ReleaseReset\n
 359:Drivers/STM32L1xx_HAL_Driver/Inc/stm32l1xx_ll_bus.h ****   *         AHBRSTR      DMA2RST       LL_AHB1_GRP1_ReleaseReset\n
 360:Drivers/STM32L1xx_HAL_Driver/Inc/stm32l1xx_ll_bus.h ****   *         AHBRSTR      AESRST        LL_AHB1_GRP1_ReleaseReset\n
 361:Drivers/STM32L1xx_HAL_Driver/Inc/stm32l1xx_ll_bus.h ****   *         AHBRSTR      FSMCRST       LL_AHB1_GRP1_ReleaseReset
 362:Drivers/STM32L1xx_HAL_Driver/Inc/stm32l1xx_ll_bus.h ****   * @param  Periphs This parameter can be a combination of the following values:
 363:Drivers/STM32L1xx_HAL_Driver/Inc/stm32l1xx_ll_bus.h ****   *         @arg @ref LL_AHB1_GRP1_PERIPH_ALL
 364:Drivers/STM32L1xx_HAL_Driver/Inc/stm32l1xx_ll_bus.h ****   *         @arg @ref LL_AHB1_GRP1_PERIPH_GPIOA
 365:Drivers/STM32L1xx_HAL_Driver/Inc/stm32l1xx_ll_bus.h ****   *         @arg @ref LL_AHB1_GRP1_PERIPH_GPIOB
 366:Drivers/STM32L1xx_HAL_Driver/Inc/stm32l1xx_ll_bus.h ****   *         @arg @ref LL_AHB1_GRP1_PERIPH_GPIOC
 367:Drivers/STM32L1xx_HAL_Driver/Inc/stm32l1xx_ll_bus.h ****   *         @arg @ref LL_AHB1_GRP1_PERIPH_GPIOD
 368:Drivers/STM32L1xx_HAL_Driver/Inc/stm32l1xx_ll_bus.h ****   *         @arg @ref LL_AHB1_GRP1_PERIPH_GPIOE (*)
 369:Drivers/STM32L1xx_HAL_Driver/Inc/stm32l1xx_ll_bus.h ****   *         @arg @ref LL_AHB1_GRP1_PERIPH_GPIOH
 370:Drivers/STM32L1xx_HAL_Driver/Inc/stm32l1xx_ll_bus.h ****   *         @arg @ref LL_AHB1_GRP1_PERIPH_GPIOF (*)
 371:Drivers/STM32L1xx_HAL_Driver/Inc/stm32l1xx_ll_bus.h ****   *         @arg @ref LL_AHB1_GRP1_PERIPH_GPIOG (*)
 372:Drivers/STM32L1xx_HAL_Driver/Inc/stm32l1xx_ll_bus.h ****   *         @arg @ref LL_AHB1_GRP1_PERIPH_CRC
 373:Drivers/STM32L1xx_HAL_Driver/Inc/stm32l1xx_ll_bus.h ****   *         @arg @ref LL_AHB1_GRP1_PERIPH_FLASH
 374:Drivers/STM32L1xx_HAL_Driver/Inc/stm32l1xx_ll_bus.h ****   *         @arg @ref LL_AHB1_GRP1_PERIPH_DMA1
 375:Drivers/STM32L1xx_HAL_Driver/Inc/stm32l1xx_ll_bus.h ****   *         @arg @ref LL_AHB1_GRP1_PERIPH_DMA2 (*)
 376:Drivers/STM32L1xx_HAL_Driver/Inc/stm32l1xx_ll_bus.h ****   *         @arg @ref LL_AHB1_GRP1_PERIPH_CRYP (*)
 377:Drivers/STM32L1xx_HAL_Driver/Inc/stm32l1xx_ll_bus.h ****   *         @arg @ref LL_AHB1_GRP1_PERIPH_FSMC (*)
 378:Drivers/STM32L1xx_HAL_Driver/Inc/stm32l1xx_ll_bus.h ****   *
 379:Drivers/STM32L1xx_HAL_Driver/Inc/stm32l1xx_ll_bus.h ****   *         (*) value not defined in all devices.
 380:Drivers/STM32L1xx_HAL_Driver/Inc/stm32l1xx_ll_bus.h ****   * @retval None
 381:Drivers/STM32L1xx_HAL_Driver/Inc/stm32l1xx_ll_bus.h **** */
 382:Drivers/STM32L1xx_HAL_Driver/Inc/stm32l1xx_ll_bus.h **** __STATIC_INLINE void LL_AHB1_GRP1_ReleaseReset(uint32_t Periphs)
 117              		.loc 2 382 22 view .LVU26
 118              	.LBB85:
 383:Drivers/STM32L1xx_HAL_Driver/Inc/stm32l1xx_ll_bus.h **** {
 384:Drivers/STM32L1xx_HAL_Driver/Inc/stm32l1xx_ll_bus.h ****   CLEAR_BIT(RCC->AHBRSTR, Periphs);
 119              		.loc 2 384 3 view .LVU27
 120 0060 1A69     		ldr	r2, [r3, #16]
 121 0062 22F00102 		bic	r2, r2, #1
 122 0066 1A61     		str	r2, [r3, #16]
 123              	.LBE85:
 124              	.LBE84:
 106:Drivers/STM32L1xx_HAL_Driver/Src/stm32l1xx_ll_gpio.c **** 
 125              		.loc 1 106 15 is_stmt 0 view .LVU28
 126 0068 0020     		movs	r0, #0
 127              	.LVL6:
 128              	.L4:
 165:Drivers/STM32L1xx_HAL_Driver/Src/stm32l1xx_ll_gpio.c ****   }
 166:Drivers/STM32L1xx_HAL_Driver/Src/stm32l1xx_ll_gpio.c **** 
 167:Drivers/STM32L1xx_HAL_Driver/Src/stm32l1xx_ll_gpio.c ****   return (status);
 129              		.loc 1 167 3 is_stmt 1 view .LVU29
 168:Drivers/STM32L1xx_HAL_Driver/Src/stm32l1xx_ll_gpio.c **** }
 130              		.loc 1 168 1 is_stmt 0 view .LVU30
ARM GAS  C:\Users\domen\AppData\Local\Temp\ccQylUhh.s 			page 13


 131 006a 10BD     		pop	{r4, pc}
 132              	.LVL7:
 133              	.L11:
 119:Drivers/STM32L1xx_HAL_Driver/Src/stm32l1xx_ll_gpio.c ****     LL_AHB1_GRP1_ReleaseReset(LL_AHB1_GRP1_PERIPH_GPIOB);
 134              		.loc 1 119 5 is_stmt 1 view .LVU31
 135              	.LBB86:
 136              	.LBI86:
 341:Drivers/STM32L1xx_HAL_Driver/Inc/stm32l1xx_ll_bus.h **** {
 137              		.loc 2 341 22 view .LVU32
 138              	.LBB87:
 343:Drivers/STM32L1xx_HAL_Driver/Inc/stm32l1xx_ll_bus.h **** }
 139              		.loc 2 343 3 view .LVU33
 140 006c 03F55053 		add	r3, r3, #13312
 141 0070 1A69     		ldr	r2, [r3, #16]
 142 0072 42F00202 		orr	r2, r2, #2
 143 0076 1A61     		str	r2, [r3, #16]
 144              	.LVL8:
 343:Drivers/STM32L1xx_HAL_Driver/Inc/stm32l1xx_ll_bus.h **** }
 145              		.loc 2 343 3 is_stmt 0 view .LVU34
 146              	.LBE87:
 147              	.LBE86:
 120:Drivers/STM32L1xx_HAL_Driver/Src/stm32l1xx_ll_gpio.c ****   }
 148              		.loc 1 120 5 is_stmt 1 view .LVU35
 149              	.LBB88:
 150              	.LBI88:
 382:Drivers/STM32L1xx_HAL_Driver/Inc/stm32l1xx_ll_bus.h **** {
 151              		.loc 2 382 22 view .LVU36
 152              	.LBB89:
 153              		.loc 2 384 3 view .LVU37
 154 0078 1A69     		ldr	r2, [r3, #16]
 155 007a 22F00202 		bic	r2, r2, #2
 156 007e 1A61     		str	r2, [r3, #16]
 157              	.LBE89:
 158              	.LBE88:
 106:Drivers/STM32L1xx_HAL_Driver/Src/stm32l1xx_ll_gpio.c **** 
 159              		.loc 1 106 15 is_stmt 0 view .LVU38
 160 0080 0020     		movs	r0, #0
 161 0082 F2E7     		b	.L4
 162              	.LVL9:
 163              	.L12:
 124:Drivers/STM32L1xx_HAL_Driver/Src/stm32l1xx_ll_gpio.c ****     LL_AHB1_GRP1_ReleaseReset(LL_AHB1_GRP1_PERIPH_GPIOC);
 164              		.loc 1 124 5 is_stmt 1 view .LVU39
 165              	.LBB90:
 166              	.LBI90:
 341:Drivers/STM32L1xx_HAL_Driver/Inc/stm32l1xx_ll_bus.h **** {
 167              		.loc 2 341 22 view .LVU40
 168              	.LBB91:
 343:Drivers/STM32L1xx_HAL_Driver/Inc/stm32l1xx_ll_bus.h **** }
 169              		.loc 2 343 3 view .LVU41
 170 0084 03F54053 		add	r3, r3, #12288
 171 0088 1A69     		ldr	r2, [r3, #16]
 172 008a 42F00402 		orr	r2, r2, #4
 173 008e 1A61     		str	r2, [r3, #16]
 174              	.LVL10:
 343:Drivers/STM32L1xx_HAL_Driver/Inc/stm32l1xx_ll_bus.h **** }
 175              		.loc 2 343 3 is_stmt 0 view .LVU42
 176              	.LBE91:
ARM GAS  C:\Users\domen\AppData\Local\Temp\ccQylUhh.s 			page 14


 177              	.LBE90:
 125:Drivers/STM32L1xx_HAL_Driver/Src/stm32l1xx_ll_gpio.c ****   }
 178              		.loc 1 125 5 is_stmt 1 view .LVU43
 179              	.LBB92:
 180              	.LBI92:
 382:Drivers/STM32L1xx_HAL_Driver/Inc/stm32l1xx_ll_bus.h **** {
 181              		.loc 2 382 22 view .LVU44
 182              	.LBB93:
 183              		.loc 2 384 3 view .LVU45
 184 0090 1A69     		ldr	r2, [r3, #16]
 185 0092 22F00402 		bic	r2, r2, #4
 186 0096 1A61     		str	r2, [r3, #16]
 187              	.LBE93:
 188              	.LBE92:
 106:Drivers/STM32L1xx_HAL_Driver/Src/stm32l1xx_ll_gpio.c **** 
 189              		.loc 1 106 15 is_stmt 0 view .LVU46
 190 0098 0020     		movs	r0, #0
 191 009a E6E7     		b	.L4
 192              	.LVL11:
 193              	.L13:
 130:Drivers/STM32L1xx_HAL_Driver/Src/stm32l1xx_ll_gpio.c ****     LL_AHB1_GRP1_ReleaseReset(LL_AHB1_GRP1_PERIPH_GPIOD);
 194              		.loc 1 130 5 is_stmt 1 view .LVU47
 195              	.LBB94:
 196              	.LBI94:
 341:Drivers/STM32L1xx_HAL_Driver/Inc/stm32l1xx_ll_bus.h **** {
 197              		.loc 2 341 22 view .LVU48
 198              	.LBB95:
 343:Drivers/STM32L1xx_HAL_Driver/Inc/stm32l1xx_ll_bus.h **** }
 199              		.loc 2 343 3 view .LVU49
 200 009c 03F53053 		add	r3, r3, #11264
 201 00a0 1A69     		ldr	r2, [r3, #16]
 202 00a2 42F00802 		orr	r2, r2, #8
 203 00a6 1A61     		str	r2, [r3, #16]
 204              	.LVL12:
 343:Drivers/STM32L1xx_HAL_Driver/Inc/stm32l1xx_ll_bus.h **** }
 205              		.loc 2 343 3 is_stmt 0 view .LVU50
 206              	.LBE95:
 207              	.LBE94:
 131:Drivers/STM32L1xx_HAL_Driver/Src/stm32l1xx_ll_gpio.c ****   }
 208              		.loc 1 131 5 is_stmt 1 view .LVU51
 209              	.LBB96:
 210              	.LBI96:
 382:Drivers/STM32L1xx_HAL_Driver/Inc/stm32l1xx_ll_bus.h **** {
 211              		.loc 2 382 22 view .LVU52
 212              	.LBB97:
 213              		.loc 2 384 3 view .LVU53
 214 00a8 1A69     		ldr	r2, [r3, #16]
 215 00aa 22F00802 		bic	r2, r2, #8
 216 00ae 1A61     		str	r2, [r3, #16]
 217              	.LBE97:
 218              	.LBE96:
 106:Drivers/STM32L1xx_HAL_Driver/Src/stm32l1xx_ll_gpio.c **** 
 219              		.loc 1 106 15 is_stmt 0 view .LVU54
 220 00b0 0020     		movs	r0, #0
 221 00b2 DAE7     		b	.L4
 222              	.LVL13:
 223              	.L14:
ARM GAS  C:\Users\domen\AppData\Local\Temp\ccQylUhh.s 			page 15


 158:Drivers/STM32L1xx_HAL_Driver/Src/stm32l1xx_ll_gpio.c ****     LL_AHB1_GRP1_ReleaseReset(LL_AHB1_GRP1_PERIPH_GPIOH);
 224              		.loc 1 158 5 is_stmt 1 view .LVU55
 225              	.LBB98:
 226              	.LBI98:
 341:Drivers/STM32L1xx_HAL_Driver/Inc/stm32l1xx_ll_bus.h **** {
 227              		.loc 2 341 22 view .LVU56
 228              	.LBB99:
 343:Drivers/STM32L1xx_HAL_Driver/Inc/stm32l1xx_ll_bus.h **** }
 229              		.loc 2 343 3 view .LVU57
 230 00b4 03F51053 		add	r3, r3, #9216
 231 00b8 1A69     		ldr	r2, [r3, #16]
 232 00ba 42F02002 		orr	r2, r2, #32
 233 00be 1A61     		str	r2, [r3, #16]
 234              	.LVL14:
 343:Drivers/STM32L1xx_HAL_Driver/Inc/stm32l1xx_ll_bus.h **** }
 235              		.loc 2 343 3 is_stmt 0 view .LVU58
 236              	.LBE99:
 237              	.LBE98:
 159:Drivers/STM32L1xx_HAL_Driver/Src/stm32l1xx_ll_gpio.c ****   }
 238              		.loc 1 159 5 is_stmt 1 view .LVU59
 239              	.LBB100:
 240              	.LBI100:
 382:Drivers/STM32L1xx_HAL_Driver/Inc/stm32l1xx_ll_bus.h **** {
 241              		.loc 2 382 22 view .LVU60
 242              	.LBB101:
 243              		.loc 2 384 3 view .LVU61
 244 00c0 1A69     		ldr	r2, [r3, #16]
 245 00c2 22F02002 		bic	r2, r2, #32
 246 00c6 1A61     		str	r2, [r3, #16]
 247              	.LBE101:
 248              	.LBE100:
 106:Drivers/STM32L1xx_HAL_Driver/Src/stm32l1xx_ll_gpio.c **** 
 249              		.loc 1 106 15 is_stmt 0 view .LVU62
 250 00c8 0020     		movs	r0, #0
 251 00ca CEE7     		b	.L4
 252              	.L16:
 253              		.align	2
 254              	.L15:
 255 00cc 00000240 		.word	1073872896
 256 00d0 00000000 		.word	.LC0
 257 00d4 00040240 		.word	1073873920
 258 00d8 00080240 		.word	1073874944
 259 00dc 000C0240 		.word	1073875968
 260 00e0 00140240 		.word	1073878016
 261              		.cfi_endproc
 262              	.LFE116:
 264              		.section	.text.LL_GPIO_Init,"ax",%progbits
 265              		.align	1
 266              		.global	LL_GPIO_Init
 267              		.syntax unified
 268              		.thumb
 269              		.thumb_func
 270              		.fpu softvfp
 272              	LL_GPIO_Init:
 273              	.LVL15:
 274              	.LFB117:
 169:Drivers/STM32L1xx_HAL_Driver/Src/stm32l1xx_ll_gpio.c **** 
ARM GAS  C:\Users\domen\AppData\Local\Temp\ccQylUhh.s 			page 16


 170:Drivers/STM32L1xx_HAL_Driver/Src/stm32l1xx_ll_gpio.c **** /**
 171:Drivers/STM32L1xx_HAL_Driver/Src/stm32l1xx_ll_gpio.c ****   * @brief  Initialize GPIO registers according to the specified parameters in GPIO_InitStruct.
 172:Drivers/STM32L1xx_HAL_Driver/Src/stm32l1xx_ll_gpio.c ****   * @param  GPIOx GPIO Port
 173:Drivers/STM32L1xx_HAL_Driver/Src/stm32l1xx_ll_gpio.c ****   * @param  GPIO_InitStruct pointer to a @ref LL_GPIO_InitTypeDef structure
 174:Drivers/STM32L1xx_HAL_Driver/Src/stm32l1xx_ll_gpio.c ****   *         that contains the configuration information for the specified GPIO peripheral.
 175:Drivers/STM32L1xx_HAL_Driver/Src/stm32l1xx_ll_gpio.c ****   * @retval An ErrorStatus enumeration value:
 176:Drivers/STM32L1xx_HAL_Driver/Src/stm32l1xx_ll_gpio.c ****   *          - SUCCESS: GPIO registers are initialized according to GPIO_InitStruct content
 177:Drivers/STM32L1xx_HAL_Driver/Src/stm32l1xx_ll_gpio.c ****   *          - ERROR:   Not applicable
 178:Drivers/STM32L1xx_HAL_Driver/Src/stm32l1xx_ll_gpio.c ****   */
 179:Drivers/STM32L1xx_HAL_Driver/Src/stm32l1xx_ll_gpio.c **** ErrorStatus LL_GPIO_Init(GPIO_TypeDef *GPIOx, LL_GPIO_InitTypeDef *GPIO_InitStruct)
 180:Drivers/STM32L1xx_HAL_Driver/Src/stm32l1xx_ll_gpio.c **** {
 275              		.loc 1 180 1 is_stmt 1 view -0
 276              		.cfi_startproc
 277              		@ args = 0, pretend = 0, frame = 0
 278              		@ frame_needed = 0, uses_anonymous_args = 0
 279              		.loc 1 180 1 is_stmt 0 view .LVU64
 280 0000 F8B5     		push	{r3, r4, r5, r6, r7, lr}
 281              	.LCFI1:
 282              		.cfi_def_cfa_offset 24
 283              		.cfi_offset 3, -24
 284              		.cfi_offset 4, -20
 285              		.cfi_offset 5, -16
 286              		.cfi_offset 6, -12
 287              		.cfi_offset 7, -8
 288              		.cfi_offset 14, -4
 289 0002 0746     		mov	r7, r0
 290 0004 0D46     		mov	r5, r1
 181:Drivers/STM32L1xx_HAL_Driver/Src/stm32l1xx_ll_gpio.c ****   uint32_t pinpos     = 0x00000000U;
 291              		.loc 1 181 3 is_stmt 1 view .LVU65
 292              	.LVL16:
 182:Drivers/STM32L1xx_HAL_Driver/Src/stm32l1xx_ll_gpio.c ****   uint32_t currentpin = 0x00000000U;
 293              		.loc 1 182 3 view .LVU66
 183:Drivers/STM32L1xx_HAL_Driver/Src/stm32l1xx_ll_gpio.c **** 
 184:Drivers/STM32L1xx_HAL_Driver/Src/stm32l1xx_ll_gpio.c ****   /* Check the parameters */
 185:Drivers/STM32L1xx_HAL_Driver/Src/stm32l1xx_ll_gpio.c ****   assert_param(IS_GPIO_ALL_INSTANCE(GPIOx));
 294              		.loc 1 185 3 view .LVU67
 295 0006 714B     		ldr	r3, .L41
 296 0008 9842     		cmp	r0, r3
 297 000a 13D0     		beq	.L18
 298              		.loc 1 185 3 is_stmt 0 discriminator 1 view .LVU68
 299 000c 03F58063 		add	r3, r3, #1024
 300 0010 9842     		cmp	r0, r3
 301 0012 0FD0     		beq	.L18
 302              		.loc 1 185 3 discriminator 2 view .LVU69
 303 0014 03F58063 		add	r3, r3, #1024
 304 0018 9842     		cmp	r0, r3
 305 001a 0BD0     		beq	.L18
 306              		.loc 1 185 3 discriminator 3 view .LVU70
 307 001c 03F58063 		add	r3, r3, #1024
 308 0020 9842     		cmp	r0, r3
 309 0022 07D0     		beq	.L18
 310              		.loc 1 185 3 discriminator 4 view .LVU71
 311 0024 03F50063 		add	r3, r3, #2048
 312 0028 9842     		cmp	r0, r3
 313 002a 03D0     		beq	.L18
 314              		.loc 1 185 3 discriminator 5 view .LVU72
 315 002c B921     		movs	r1, #185
ARM GAS  C:\Users\domen\AppData\Local\Temp\ccQylUhh.s 			page 17


 316              	.LVL17:
 317              		.loc 1 185 3 discriminator 5 view .LVU73
 318 002e 6848     		ldr	r0, .L41+4
 319              	.LVL18:
 320              		.loc 1 185 3 discriminator 5 view .LVU74
 321 0030 FFF7FEFF 		bl	assert_failed
 322              	.LVL19:
 323              	.L18:
 186:Drivers/STM32L1xx_HAL_Driver/Src/stm32l1xx_ll_gpio.c ****   assert_param(IS_LL_GPIO_PIN(GPIO_InitStruct->Pin));
 324              		.loc 1 186 3 is_stmt 1 view .LVU75
 325 0034 2B68     		ldr	r3, [r5]
 326 0036 013B     		subs	r3, r3, #1
 327 0038 4FF6FE72 		movw	r2, #65534
 328 003c 9342     		cmp	r3, r2
 329 003e 0BD8     		bhi	.L32
 330              	.L19:
 187:Drivers/STM32L1xx_HAL_Driver/Src/stm32l1xx_ll_gpio.c ****   assert_param(IS_LL_GPIO_MODE(GPIO_InitStruct->Mode));
 331              		.loc 1 187 3 view .LVU76
 332 0040 6B68     		ldr	r3, [r5, #4]
 333 0042 032B     		cmp	r3, #3
 334 0044 0DD8     		bhi	.L33
 335              	.L20:
 188:Drivers/STM32L1xx_HAL_Driver/Src/stm32l1xx_ll_gpio.c ****   assert_param(IS_LL_GPIO_PULL(GPIO_InitStruct->Pull));
 336              		.loc 1 188 3 view .LVU77
 337 0046 2B69     		ldr	r3, [r5, #16]
 338 0048 022B     		cmp	r3, #2
 339 004a 0FD8     		bhi	.L34
 340              	.L21:
 189:Drivers/STM32L1xx_HAL_Driver/Src/stm32l1xx_ll_gpio.c **** 
 190:Drivers/STM32L1xx_HAL_Driver/Src/stm32l1xx_ll_gpio.c ****   /* ------------------------- Configure the port pins ---------------- */
 191:Drivers/STM32L1xx_HAL_Driver/Src/stm32l1xx_ll_gpio.c ****   /* Initialize  pinpos on first pin set */
 192:Drivers/STM32L1xx_HAL_Driver/Src/stm32l1xx_ll_gpio.c ****   pinpos = POSITION_VAL(GPIO_InitStruct->Pin);
 341              		.loc 1 192 3 view .LVU78
 342              		.loc 1 192 12 is_stmt 0 view .LVU79
 343 004c 2E68     		ldr	r6, [r5]
 344              	.LVL20:
 345              	.LBB102:
 346              	.LBI102:
 347              		.file 3 "Drivers/CMSIS/Include/cmsis_gcc.h"
   1:Drivers/CMSIS/Include/cmsis_gcc.h **** /**************************************************************************//**
   2:Drivers/CMSIS/Include/cmsis_gcc.h ****  * @file     cmsis_gcc.h
   3:Drivers/CMSIS/Include/cmsis_gcc.h ****  * @brief    CMSIS compiler GCC header file
   4:Drivers/CMSIS/Include/cmsis_gcc.h ****  * @version  V5.0.4
   5:Drivers/CMSIS/Include/cmsis_gcc.h ****  * @date     09. April 2018
   6:Drivers/CMSIS/Include/cmsis_gcc.h ****  ******************************************************************************/
   7:Drivers/CMSIS/Include/cmsis_gcc.h **** /*
   8:Drivers/CMSIS/Include/cmsis_gcc.h ****  * Copyright (c) 2009-2018 Arm Limited. All rights reserved.
   9:Drivers/CMSIS/Include/cmsis_gcc.h ****  *
  10:Drivers/CMSIS/Include/cmsis_gcc.h ****  * SPDX-License-Identifier: Apache-2.0
  11:Drivers/CMSIS/Include/cmsis_gcc.h ****  *
  12:Drivers/CMSIS/Include/cmsis_gcc.h ****  * Licensed under the Apache License, Version 2.0 (the License); you may
  13:Drivers/CMSIS/Include/cmsis_gcc.h ****  * not use this file except in compliance with the License.
  14:Drivers/CMSIS/Include/cmsis_gcc.h ****  * You may obtain a copy of the License at
  15:Drivers/CMSIS/Include/cmsis_gcc.h ****  *
  16:Drivers/CMSIS/Include/cmsis_gcc.h ****  * www.apache.org/licenses/LICENSE-2.0
  17:Drivers/CMSIS/Include/cmsis_gcc.h ****  *
  18:Drivers/CMSIS/Include/cmsis_gcc.h ****  * Unless required by applicable law or agreed to in writing, software
ARM GAS  C:\Users\domen\AppData\Local\Temp\ccQylUhh.s 			page 18


  19:Drivers/CMSIS/Include/cmsis_gcc.h ****  * distributed under the License is distributed on an AS IS BASIS, WITHOUT
  20:Drivers/CMSIS/Include/cmsis_gcc.h ****  * WARRANTIES OR CONDITIONS OF ANY KIND, either express or implied.
  21:Drivers/CMSIS/Include/cmsis_gcc.h ****  * See the License for the specific language governing permissions and
  22:Drivers/CMSIS/Include/cmsis_gcc.h ****  * limitations under the License.
  23:Drivers/CMSIS/Include/cmsis_gcc.h ****  */
  24:Drivers/CMSIS/Include/cmsis_gcc.h **** 
  25:Drivers/CMSIS/Include/cmsis_gcc.h **** #ifndef __CMSIS_GCC_H
  26:Drivers/CMSIS/Include/cmsis_gcc.h **** #define __CMSIS_GCC_H
  27:Drivers/CMSIS/Include/cmsis_gcc.h **** 
  28:Drivers/CMSIS/Include/cmsis_gcc.h **** /* ignore some GCC warnings */
  29:Drivers/CMSIS/Include/cmsis_gcc.h **** #pragma GCC diagnostic push
  30:Drivers/CMSIS/Include/cmsis_gcc.h **** #pragma GCC diagnostic ignored "-Wsign-conversion"
  31:Drivers/CMSIS/Include/cmsis_gcc.h **** #pragma GCC diagnostic ignored "-Wconversion"
  32:Drivers/CMSIS/Include/cmsis_gcc.h **** #pragma GCC diagnostic ignored "-Wunused-parameter"
  33:Drivers/CMSIS/Include/cmsis_gcc.h **** 
  34:Drivers/CMSIS/Include/cmsis_gcc.h **** /* Fallback for __has_builtin */
  35:Drivers/CMSIS/Include/cmsis_gcc.h **** #ifndef __has_builtin
  36:Drivers/CMSIS/Include/cmsis_gcc.h ****   #define __has_builtin(x) (0)
  37:Drivers/CMSIS/Include/cmsis_gcc.h **** #endif
  38:Drivers/CMSIS/Include/cmsis_gcc.h **** 
  39:Drivers/CMSIS/Include/cmsis_gcc.h **** /* CMSIS compiler specific defines */
  40:Drivers/CMSIS/Include/cmsis_gcc.h **** #ifndef   __ASM
  41:Drivers/CMSIS/Include/cmsis_gcc.h ****   #define __ASM                                  __asm
  42:Drivers/CMSIS/Include/cmsis_gcc.h **** #endif
  43:Drivers/CMSIS/Include/cmsis_gcc.h **** #ifndef   __INLINE
  44:Drivers/CMSIS/Include/cmsis_gcc.h ****   #define __INLINE                               inline
  45:Drivers/CMSIS/Include/cmsis_gcc.h **** #endif
  46:Drivers/CMSIS/Include/cmsis_gcc.h **** #ifndef   __STATIC_INLINE
  47:Drivers/CMSIS/Include/cmsis_gcc.h ****   #define __STATIC_INLINE                        static inline
  48:Drivers/CMSIS/Include/cmsis_gcc.h **** #endif
  49:Drivers/CMSIS/Include/cmsis_gcc.h **** #ifndef   __STATIC_FORCEINLINE                 
  50:Drivers/CMSIS/Include/cmsis_gcc.h ****   #define __STATIC_FORCEINLINE                   __attribute__((always_inline)) static inline
  51:Drivers/CMSIS/Include/cmsis_gcc.h **** #endif                                           
  52:Drivers/CMSIS/Include/cmsis_gcc.h **** #ifndef   __NO_RETURN
  53:Drivers/CMSIS/Include/cmsis_gcc.h ****   #define __NO_RETURN                            __attribute__((__noreturn__))
  54:Drivers/CMSIS/Include/cmsis_gcc.h **** #endif
  55:Drivers/CMSIS/Include/cmsis_gcc.h **** #ifndef   __USED
  56:Drivers/CMSIS/Include/cmsis_gcc.h ****   #define __USED                                 __attribute__((used))
  57:Drivers/CMSIS/Include/cmsis_gcc.h **** #endif
  58:Drivers/CMSIS/Include/cmsis_gcc.h **** #ifndef   __WEAK
  59:Drivers/CMSIS/Include/cmsis_gcc.h ****   #define __WEAK                                 __attribute__((weak))
  60:Drivers/CMSIS/Include/cmsis_gcc.h **** #endif
  61:Drivers/CMSIS/Include/cmsis_gcc.h **** #ifndef   __PACKED
  62:Drivers/CMSIS/Include/cmsis_gcc.h ****   #define __PACKED                               __attribute__((packed, aligned(1)))
  63:Drivers/CMSIS/Include/cmsis_gcc.h **** #endif
  64:Drivers/CMSIS/Include/cmsis_gcc.h **** #ifndef   __PACKED_STRUCT
  65:Drivers/CMSIS/Include/cmsis_gcc.h ****   #define __PACKED_STRUCT                        struct __attribute__((packed, aligned(1)))
  66:Drivers/CMSIS/Include/cmsis_gcc.h **** #endif
  67:Drivers/CMSIS/Include/cmsis_gcc.h **** #ifndef   __PACKED_UNION
  68:Drivers/CMSIS/Include/cmsis_gcc.h ****   #define __PACKED_UNION                         union __attribute__((packed, aligned(1)))
  69:Drivers/CMSIS/Include/cmsis_gcc.h **** #endif
  70:Drivers/CMSIS/Include/cmsis_gcc.h **** #ifndef   __UNALIGNED_UINT32        /* deprecated */
  71:Drivers/CMSIS/Include/cmsis_gcc.h ****   #pragma GCC diagnostic push
  72:Drivers/CMSIS/Include/cmsis_gcc.h ****   #pragma GCC diagnostic ignored "-Wpacked"
  73:Drivers/CMSIS/Include/cmsis_gcc.h ****   #pragma GCC diagnostic ignored "-Wattributes"
  74:Drivers/CMSIS/Include/cmsis_gcc.h ****   struct __attribute__((packed)) T_UINT32 { uint32_t v; };
  75:Drivers/CMSIS/Include/cmsis_gcc.h ****   #pragma GCC diagnostic pop
ARM GAS  C:\Users\domen\AppData\Local\Temp\ccQylUhh.s 			page 19


  76:Drivers/CMSIS/Include/cmsis_gcc.h ****   #define __UNALIGNED_UINT32(x)                  (((struct T_UINT32 *)(x))->v)
  77:Drivers/CMSIS/Include/cmsis_gcc.h **** #endif
  78:Drivers/CMSIS/Include/cmsis_gcc.h **** #ifndef   __UNALIGNED_UINT16_WRITE
  79:Drivers/CMSIS/Include/cmsis_gcc.h ****   #pragma GCC diagnostic push
  80:Drivers/CMSIS/Include/cmsis_gcc.h ****   #pragma GCC diagnostic ignored "-Wpacked"
  81:Drivers/CMSIS/Include/cmsis_gcc.h ****   #pragma GCC diagnostic ignored "-Wattributes"
  82:Drivers/CMSIS/Include/cmsis_gcc.h ****   __PACKED_STRUCT T_UINT16_WRITE { uint16_t v; };
  83:Drivers/CMSIS/Include/cmsis_gcc.h ****   #pragma GCC diagnostic pop
  84:Drivers/CMSIS/Include/cmsis_gcc.h ****   #define __UNALIGNED_UINT16_WRITE(addr, val)    (void)((((struct T_UINT16_WRITE *)(void *)(addr))-
  85:Drivers/CMSIS/Include/cmsis_gcc.h **** #endif
  86:Drivers/CMSIS/Include/cmsis_gcc.h **** #ifndef   __UNALIGNED_UINT16_READ
  87:Drivers/CMSIS/Include/cmsis_gcc.h ****   #pragma GCC diagnostic push
  88:Drivers/CMSIS/Include/cmsis_gcc.h ****   #pragma GCC diagnostic ignored "-Wpacked"
  89:Drivers/CMSIS/Include/cmsis_gcc.h ****   #pragma GCC diagnostic ignored "-Wattributes"
  90:Drivers/CMSIS/Include/cmsis_gcc.h ****   __PACKED_STRUCT T_UINT16_READ { uint16_t v; };
  91:Drivers/CMSIS/Include/cmsis_gcc.h ****   #pragma GCC diagnostic pop
  92:Drivers/CMSIS/Include/cmsis_gcc.h ****   #define __UNALIGNED_UINT16_READ(addr)          (((const struct T_UINT16_READ *)(const void *)(add
  93:Drivers/CMSIS/Include/cmsis_gcc.h **** #endif
  94:Drivers/CMSIS/Include/cmsis_gcc.h **** #ifndef   __UNALIGNED_UINT32_WRITE
  95:Drivers/CMSIS/Include/cmsis_gcc.h ****   #pragma GCC diagnostic push
  96:Drivers/CMSIS/Include/cmsis_gcc.h ****   #pragma GCC diagnostic ignored "-Wpacked"
  97:Drivers/CMSIS/Include/cmsis_gcc.h ****   #pragma GCC diagnostic ignored "-Wattributes"
  98:Drivers/CMSIS/Include/cmsis_gcc.h ****   __PACKED_STRUCT T_UINT32_WRITE { uint32_t v; };
  99:Drivers/CMSIS/Include/cmsis_gcc.h ****   #pragma GCC diagnostic pop
 100:Drivers/CMSIS/Include/cmsis_gcc.h ****   #define __UNALIGNED_UINT32_WRITE(addr, val)    (void)((((struct T_UINT32_WRITE *)(void *)(addr))-
 101:Drivers/CMSIS/Include/cmsis_gcc.h **** #endif
 102:Drivers/CMSIS/Include/cmsis_gcc.h **** #ifndef   __UNALIGNED_UINT32_READ
 103:Drivers/CMSIS/Include/cmsis_gcc.h ****   #pragma GCC diagnostic push
 104:Drivers/CMSIS/Include/cmsis_gcc.h ****   #pragma GCC diagnostic ignored "-Wpacked"
 105:Drivers/CMSIS/Include/cmsis_gcc.h ****   #pragma GCC diagnostic ignored "-Wattributes"
 106:Drivers/CMSIS/Include/cmsis_gcc.h ****   __PACKED_STRUCT T_UINT32_READ { uint32_t v; };
 107:Drivers/CMSIS/Include/cmsis_gcc.h ****   #pragma GCC diagnostic pop
 108:Drivers/CMSIS/Include/cmsis_gcc.h ****   #define __UNALIGNED_UINT32_READ(addr)          (((const struct T_UINT32_READ *)(const void *)(add
 109:Drivers/CMSIS/Include/cmsis_gcc.h **** #endif
 110:Drivers/CMSIS/Include/cmsis_gcc.h **** #ifndef   __ALIGNED
 111:Drivers/CMSIS/Include/cmsis_gcc.h ****   #define __ALIGNED(x)                           __attribute__((aligned(x)))
 112:Drivers/CMSIS/Include/cmsis_gcc.h **** #endif
 113:Drivers/CMSIS/Include/cmsis_gcc.h **** #ifndef   __RESTRICT
 114:Drivers/CMSIS/Include/cmsis_gcc.h ****   #define __RESTRICT                             __restrict
 115:Drivers/CMSIS/Include/cmsis_gcc.h **** #endif
 116:Drivers/CMSIS/Include/cmsis_gcc.h **** 
 117:Drivers/CMSIS/Include/cmsis_gcc.h **** 
 118:Drivers/CMSIS/Include/cmsis_gcc.h **** /* ###########################  Core Function Access  ########################### */
 119:Drivers/CMSIS/Include/cmsis_gcc.h **** /** \ingroup  CMSIS_Core_FunctionInterface
 120:Drivers/CMSIS/Include/cmsis_gcc.h ****     \defgroup CMSIS_Core_RegAccFunctions CMSIS Core Register Access Functions
 121:Drivers/CMSIS/Include/cmsis_gcc.h ****   @{
 122:Drivers/CMSIS/Include/cmsis_gcc.h ****  */
 123:Drivers/CMSIS/Include/cmsis_gcc.h **** 
 124:Drivers/CMSIS/Include/cmsis_gcc.h **** /**
 125:Drivers/CMSIS/Include/cmsis_gcc.h ****   \brief   Enable IRQ Interrupts
 126:Drivers/CMSIS/Include/cmsis_gcc.h ****   \details Enables IRQ interrupts by clearing the I-bit in the CPSR.
 127:Drivers/CMSIS/Include/cmsis_gcc.h ****            Can only be executed in Privileged modes.
 128:Drivers/CMSIS/Include/cmsis_gcc.h ****  */
 129:Drivers/CMSIS/Include/cmsis_gcc.h **** __STATIC_FORCEINLINE void __enable_irq(void)
 130:Drivers/CMSIS/Include/cmsis_gcc.h **** {
 131:Drivers/CMSIS/Include/cmsis_gcc.h ****   __ASM volatile ("cpsie i" : : : "memory");
 132:Drivers/CMSIS/Include/cmsis_gcc.h **** }
ARM GAS  C:\Users\domen\AppData\Local\Temp\ccQylUhh.s 			page 20


 133:Drivers/CMSIS/Include/cmsis_gcc.h **** 
 134:Drivers/CMSIS/Include/cmsis_gcc.h **** 
 135:Drivers/CMSIS/Include/cmsis_gcc.h **** /**
 136:Drivers/CMSIS/Include/cmsis_gcc.h ****   \brief   Disable IRQ Interrupts
 137:Drivers/CMSIS/Include/cmsis_gcc.h ****   \details Disables IRQ interrupts by setting the I-bit in the CPSR.
 138:Drivers/CMSIS/Include/cmsis_gcc.h ****            Can only be executed in Privileged modes.
 139:Drivers/CMSIS/Include/cmsis_gcc.h ****  */
 140:Drivers/CMSIS/Include/cmsis_gcc.h **** __STATIC_FORCEINLINE void __disable_irq(void)
 141:Drivers/CMSIS/Include/cmsis_gcc.h **** {
 142:Drivers/CMSIS/Include/cmsis_gcc.h ****   __ASM volatile ("cpsid i" : : : "memory");
 143:Drivers/CMSIS/Include/cmsis_gcc.h **** }
 144:Drivers/CMSIS/Include/cmsis_gcc.h **** 
 145:Drivers/CMSIS/Include/cmsis_gcc.h **** 
 146:Drivers/CMSIS/Include/cmsis_gcc.h **** /**
 147:Drivers/CMSIS/Include/cmsis_gcc.h ****   \brief   Get Control Register
 148:Drivers/CMSIS/Include/cmsis_gcc.h ****   \details Returns the content of the Control Register.
 149:Drivers/CMSIS/Include/cmsis_gcc.h ****   \return               Control Register value
 150:Drivers/CMSIS/Include/cmsis_gcc.h ****  */
 151:Drivers/CMSIS/Include/cmsis_gcc.h **** __STATIC_FORCEINLINE uint32_t __get_CONTROL(void)
 152:Drivers/CMSIS/Include/cmsis_gcc.h **** {
 153:Drivers/CMSIS/Include/cmsis_gcc.h ****   uint32_t result;
 154:Drivers/CMSIS/Include/cmsis_gcc.h **** 
 155:Drivers/CMSIS/Include/cmsis_gcc.h ****   __ASM volatile ("MRS %0, control" : "=r" (result) );
 156:Drivers/CMSIS/Include/cmsis_gcc.h ****   return(result);
 157:Drivers/CMSIS/Include/cmsis_gcc.h **** }
 158:Drivers/CMSIS/Include/cmsis_gcc.h **** 
 159:Drivers/CMSIS/Include/cmsis_gcc.h **** 
 160:Drivers/CMSIS/Include/cmsis_gcc.h **** #if (defined (__ARM_FEATURE_CMSE ) && (__ARM_FEATURE_CMSE == 3))
 161:Drivers/CMSIS/Include/cmsis_gcc.h **** /**
 162:Drivers/CMSIS/Include/cmsis_gcc.h ****   \brief   Get Control Register (non-secure)
 163:Drivers/CMSIS/Include/cmsis_gcc.h ****   \details Returns the content of the non-secure Control Register when in secure mode.
 164:Drivers/CMSIS/Include/cmsis_gcc.h ****   \return               non-secure Control Register value
 165:Drivers/CMSIS/Include/cmsis_gcc.h ****  */
 166:Drivers/CMSIS/Include/cmsis_gcc.h **** __STATIC_FORCEINLINE uint32_t __TZ_get_CONTROL_NS(void)
 167:Drivers/CMSIS/Include/cmsis_gcc.h **** {
 168:Drivers/CMSIS/Include/cmsis_gcc.h ****   uint32_t result;
 169:Drivers/CMSIS/Include/cmsis_gcc.h **** 
 170:Drivers/CMSIS/Include/cmsis_gcc.h ****   __ASM volatile ("MRS %0, control_ns" : "=r" (result) );
 171:Drivers/CMSIS/Include/cmsis_gcc.h ****   return(result);
 172:Drivers/CMSIS/Include/cmsis_gcc.h **** }
 173:Drivers/CMSIS/Include/cmsis_gcc.h **** #endif
 174:Drivers/CMSIS/Include/cmsis_gcc.h **** 
 175:Drivers/CMSIS/Include/cmsis_gcc.h **** 
 176:Drivers/CMSIS/Include/cmsis_gcc.h **** /**
 177:Drivers/CMSIS/Include/cmsis_gcc.h ****   \brief   Set Control Register
 178:Drivers/CMSIS/Include/cmsis_gcc.h ****   \details Writes the given value to the Control Register.
 179:Drivers/CMSIS/Include/cmsis_gcc.h ****   \param [in]    control  Control Register value to set
 180:Drivers/CMSIS/Include/cmsis_gcc.h ****  */
 181:Drivers/CMSIS/Include/cmsis_gcc.h **** __STATIC_FORCEINLINE void __set_CONTROL(uint32_t control)
 182:Drivers/CMSIS/Include/cmsis_gcc.h **** {
 183:Drivers/CMSIS/Include/cmsis_gcc.h ****   __ASM volatile ("MSR control, %0" : : "r" (control) : "memory");
 184:Drivers/CMSIS/Include/cmsis_gcc.h **** }
 185:Drivers/CMSIS/Include/cmsis_gcc.h **** 
 186:Drivers/CMSIS/Include/cmsis_gcc.h **** 
 187:Drivers/CMSIS/Include/cmsis_gcc.h **** #if (defined (__ARM_FEATURE_CMSE ) && (__ARM_FEATURE_CMSE == 3))
 188:Drivers/CMSIS/Include/cmsis_gcc.h **** /**
 189:Drivers/CMSIS/Include/cmsis_gcc.h ****   \brief   Set Control Register (non-secure)
ARM GAS  C:\Users\domen\AppData\Local\Temp\ccQylUhh.s 			page 21


 190:Drivers/CMSIS/Include/cmsis_gcc.h ****   \details Writes the given value to the non-secure Control Register when in secure state.
 191:Drivers/CMSIS/Include/cmsis_gcc.h ****   \param [in]    control  Control Register value to set
 192:Drivers/CMSIS/Include/cmsis_gcc.h ****  */
 193:Drivers/CMSIS/Include/cmsis_gcc.h **** __STATIC_FORCEINLINE void __TZ_set_CONTROL_NS(uint32_t control)
 194:Drivers/CMSIS/Include/cmsis_gcc.h **** {
 195:Drivers/CMSIS/Include/cmsis_gcc.h ****   __ASM volatile ("MSR control_ns, %0" : : "r" (control) : "memory");
 196:Drivers/CMSIS/Include/cmsis_gcc.h **** }
 197:Drivers/CMSIS/Include/cmsis_gcc.h **** #endif
 198:Drivers/CMSIS/Include/cmsis_gcc.h **** 
 199:Drivers/CMSIS/Include/cmsis_gcc.h **** 
 200:Drivers/CMSIS/Include/cmsis_gcc.h **** /**
 201:Drivers/CMSIS/Include/cmsis_gcc.h ****   \brief   Get IPSR Register
 202:Drivers/CMSIS/Include/cmsis_gcc.h ****   \details Returns the content of the IPSR Register.
 203:Drivers/CMSIS/Include/cmsis_gcc.h ****   \return               IPSR Register value
 204:Drivers/CMSIS/Include/cmsis_gcc.h ****  */
 205:Drivers/CMSIS/Include/cmsis_gcc.h **** __STATIC_FORCEINLINE uint32_t __get_IPSR(void)
 206:Drivers/CMSIS/Include/cmsis_gcc.h **** {
 207:Drivers/CMSIS/Include/cmsis_gcc.h ****   uint32_t result;
 208:Drivers/CMSIS/Include/cmsis_gcc.h **** 
 209:Drivers/CMSIS/Include/cmsis_gcc.h ****   __ASM volatile ("MRS %0, ipsr" : "=r" (result) );
 210:Drivers/CMSIS/Include/cmsis_gcc.h ****   return(result);
 211:Drivers/CMSIS/Include/cmsis_gcc.h **** }
 212:Drivers/CMSIS/Include/cmsis_gcc.h **** 
 213:Drivers/CMSIS/Include/cmsis_gcc.h **** 
 214:Drivers/CMSIS/Include/cmsis_gcc.h **** /**
 215:Drivers/CMSIS/Include/cmsis_gcc.h ****   \brief   Get APSR Register
 216:Drivers/CMSIS/Include/cmsis_gcc.h ****   \details Returns the content of the APSR Register.
 217:Drivers/CMSIS/Include/cmsis_gcc.h ****   \return               APSR Register value
 218:Drivers/CMSIS/Include/cmsis_gcc.h ****  */
 219:Drivers/CMSIS/Include/cmsis_gcc.h **** __STATIC_FORCEINLINE uint32_t __get_APSR(void)
 220:Drivers/CMSIS/Include/cmsis_gcc.h **** {
 221:Drivers/CMSIS/Include/cmsis_gcc.h ****   uint32_t result;
 222:Drivers/CMSIS/Include/cmsis_gcc.h **** 
 223:Drivers/CMSIS/Include/cmsis_gcc.h ****   __ASM volatile ("MRS %0, apsr" : "=r" (result) );
 224:Drivers/CMSIS/Include/cmsis_gcc.h ****   return(result);
 225:Drivers/CMSIS/Include/cmsis_gcc.h **** }
 226:Drivers/CMSIS/Include/cmsis_gcc.h **** 
 227:Drivers/CMSIS/Include/cmsis_gcc.h **** 
 228:Drivers/CMSIS/Include/cmsis_gcc.h **** /**
 229:Drivers/CMSIS/Include/cmsis_gcc.h ****   \brief   Get xPSR Register
 230:Drivers/CMSIS/Include/cmsis_gcc.h ****   \details Returns the content of the xPSR Register.
 231:Drivers/CMSIS/Include/cmsis_gcc.h ****   \return               xPSR Register value
 232:Drivers/CMSIS/Include/cmsis_gcc.h ****  */
 233:Drivers/CMSIS/Include/cmsis_gcc.h **** __STATIC_FORCEINLINE uint32_t __get_xPSR(void)
 234:Drivers/CMSIS/Include/cmsis_gcc.h **** {
 235:Drivers/CMSIS/Include/cmsis_gcc.h ****   uint32_t result;
 236:Drivers/CMSIS/Include/cmsis_gcc.h **** 
 237:Drivers/CMSIS/Include/cmsis_gcc.h ****   __ASM volatile ("MRS %0, xpsr" : "=r" (result) );
 238:Drivers/CMSIS/Include/cmsis_gcc.h ****   return(result);
 239:Drivers/CMSIS/Include/cmsis_gcc.h **** }
 240:Drivers/CMSIS/Include/cmsis_gcc.h **** 
 241:Drivers/CMSIS/Include/cmsis_gcc.h **** 
 242:Drivers/CMSIS/Include/cmsis_gcc.h **** /**
 243:Drivers/CMSIS/Include/cmsis_gcc.h ****   \brief   Get Process Stack Pointer
 244:Drivers/CMSIS/Include/cmsis_gcc.h ****   \details Returns the current value of the Process Stack Pointer (PSP).
 245:Drivers/CMSIS/Include/cmsis_gcc.h ****   \return               PSP Register value
 246:Drivers/CMSIS/Include/cmsis_gcc.h ****  */
ARM GAS  C:\Users\domen\AppData\Local\Temp\ccQylUhh.s 			page 22


 247:Drivers/CMSIS/Include/cmsis_gcc.h **** __STATIC_FORCEINLINE uint32_t __get_PSP(void)
 248:Drivers/CMSIS/Include/cmsis_gcc.h **** {
 249:Drivers/CMSIS/Include/cmsis_gcc.h ****   uint32_t result;
 250:Drivers/CMSIS/Include/cmsis_gcc.h **** 
 251:Drivers/CMSIS/Include/cmsis_gcc.h ****   __ASM volatile ("MRS %0, psp"  : "=r" (result) );
 252:Drivers/CMSIS/Include/cmsis_gcc.h ****   return(result);
 253:Drivers/CMSIS/Include/cmsis_gcc.h **** }
 254:Drivers/CMSIS/Include/cmsis_gcc.h **** 
 255:Drivers/CMSIS/Include/cmsis_gcc.h **** 
 256:Drivers/CMSIS/Include/cmsis_gcc.h **** #if (defined (__ARM_FEATURE_CMSE ) && (__ARM_FEATURE_CMSE == 3))
 257:Drivers/CMSIS/Include/cmsis_gcc.h **** /**
 258:Drivers/CMSIS/Include/cmsis_gcc.h ****   \brief   Get Process Stack Pointer (non-secure)
 259:Drivers/CMSIS/Include/cmsis_gcc.h ****   \details Returns the current value of the non-secure Process Stack Pointer (PSP) when in secure s
 260:Drivers/CMSIS/Include/cmsis_gcc.h ****   \return               PSP Register value
 261:Drivers/CMSIS/Include/cmsis_gcc.h ****  */
 262:Drivers/CMSIS/Include/cmsis_gcc.h **** __STATIC_FORCEINLINE uint32_t __TZ_get_PSP_NS(void)
 263:Drivers/CMSIS/Include/cmsis_gcc.h **** {
 264:Drivers/CMSIS/Include/cmsis_gcc.h ****   uint32_t result;
 265:Drivers/CMSIS/Include/cmsis_gcc.h **** 
 266:Drivers/CMSIS/Include/cmsis_gcc.h ****   __ASM volatile ("MRS %0, psp_ns"  : "=r" (result) );
 267:Drivers/CMSIS/Include/cmsis_gcc.h ****   return(result);
 268:Drivers/CMSIS/Include/cmsis_gcc.h **** }
 269:Drivers/CMSIS/Include/cmsis_gcc.h **** #endif
 270:Drivers/CMSIS/Include/cmsis_gcc.h **** 
 271:Drivers/CMSIS/Include/cmsis_gcc.h **** 
 272:Drivers/CMSIS/Include/cmsis_gcc.h **** /**
 273:Drivers/CMSIS/Include/cmsis_gcc.h ****   \brief   Set Process Stack Pointer
 274:Drivers/CMSIS/Include/cmsis_gcc.h ****   \details Assigns the given value to the Process Stack Pointer (PSP).
 275:Drivers/CMSIS/Include/cmsis_gcc.h ****   \param [in]    topOfProcStack  Process Stack Pointer value to set
 276:Drivers/CMSIS/Include/cmsis_gcc.h ****  */
 277:Drivers/CMSIS/Include/cmsis_gcc.h **** __STATIC_FORCEINLINE void __set_PSP(uint32_t topOfProcStack)
 278:Drivers/CMSIS/Include/cmsis_gcc.h **** {
 279:Drivers/CMSIS/Include/cmsis_gcc.h ****   __ASM volatile ("MSR psp, %0" : : "r" (topOfProcStack) : );
 280:Drivers/CMSIS/Include/cmsis_gcc.h **** }
 281:Drivers/CMSIS/Include/cmsis_gcc.h **** 
 282:Drivers/CMSIS/Include/cmsis_gcc.h **** 
 283:Drivers/CMSIS/Include/cmsis_gcc.h **** #if (defined (__ARM_FEATURE_CMSE ) && (__ARM_FEATURE_CMSE == 3))
 284:Drivers/CMSIS/Include/cmsis_gcc.h **** /**
 285:Drivers/CMSIS/Include/cmsis_gcc.h ****   \brief   Set Process Stack Pointer (non-secure)
 286:Drivers/CMSIS/Include/cmsis_gcc.h ****   \details Assigns the given value to the non-secure Process Stack Pointer (PSP) when in secure sta
 287:Drivers/CMSIS/Include/cmsis_gcc.h ****   \param [in]    topOfProcStack  Process Stack Pointer value to set
 288:Drivers/CMSIS/Include/cmsis_gcc.h ****  */
 289:Drivers/CMSIS/Include/cmsis_gcc.h **** __STATIC_FORCEINLINE void __TZ_set_PSP_NS(uint32_t topOfProcStack)
 290:Drivers/CMSIS/Include/cmsis_gcc.h **** {
 291:Drivers/CMSIS/Include/cmsis_gcc.h ****   __ASM volatile ("MSR psp_ns, %0" : : "r" (topOfProcStack) : );
 292:Drivers/CMSIS/Include/cmsis_gcc.h **** }
 293:Drivers/CMSIS/Include/cmsis_gcc.h **** #endif
 294:Drivers/CMSIS/Include/cmsis_gcc.h **** 
 295:Drivers/CMSIS/Include/cmsis_gcc.h **** 
 296:Drivers/CMSIS/Include/cmsis_gcc.h **** /**
 297:Drivers/CMSIS/Include/cmsis_gcc.h ****   \brief   Get Main Stack Pointer
 298:Drivers/CMSIS/Include/cmsis_gcc.h ****   \details Returns the current value of the Main Stack Pointer (MSP).
 299:Drivers/CMSIS/Include/cmsis_gcc.h ****   \return               MSP Register value
 300:Drivers/CMSIS/Include/cmsis_gcc.h ****  */
 301:Drivers/CMSIS/Include/cmsis_gcc.h **** __STATIC_FORCEINLINE uint32_t __get_MSP(void)
 302:Drivers/CMSIS/Include/cmsis_gcc.h **** {
 303:Drivers/CMSIS/Include/cmsis_gcc.h ****   uint32_t result;
ARM GAS  C:\Users\domen\AppData\Local\Temp\ccQylUhh.s 			page 23


 304:Drivers/CMSIS/Include/cmsis_gcc.h **** 
 305:Drivers/CMSIS/Include/cmsis_gcc.h ****   __ASM volatile ("MRS %0, msp" : "=r" (result) );
 306:Drivers/CMSIS/Include/cmsis_gcc.h ****   return(result);
 307:Drivers/CMSIS/Include/cmsis_gcc.h **** }
 308:Drivers/CMSIS/Include/cmsis_gcc.h **** 
 309:Drivers/CMSIS/Include/cmsis_gcc.h **** 
 310:Drivers/CMSIS/Include/cmsis_gcc.h **** #if (defined (__ARM_FEATURE_CMSE ) && (__ARM_FEATURE_CMSE == 3))
 311:Drivers/CMSIS/Include/cmsis_gcc.h **** /**
 312:Drivers/CMSIS/Include/cmsis_gcc.h ****   \brief   Get Main Stack Pointer (non-secure)
 313:Drivers/CMSIS/Include/cmsis_gcc.h ****   \details Returns the current value of the non-secure Main Stack Pointer (MSP) when in secure stat
 314:Drivers/CMSIS/Include/cmsis_gcc.h ****   \return               MSP Register value
 315:Drivers/CMSIS/Include/cmsis_gcc.h ****  */
 316:Drivers/CMSIS/Include/cmsis_gcc.h **** __STATIC_FORCEINLINE uint32_t __TZ_get_MSP_NS(void)
 317:Drivers/CMSIS/Include/cmsis_gcc.h **** {
 318:Drivers/CMSIS/Include/cmsis_gcc.h ****   uint32_t result;
 319:Drivers/CMSIS/Include/cmsis_gcc.h **** 
 320:Drivers/CMSIS/Include/cmsis_gcc.h ****   __ASM volatile ("MRS %0, msp_ns" : "=r" (result) );
 321:Drivers/CMSIS/Include/cmsis_gcc.h ****   return(result);
 322:Drivers/CMSIS/Include/cmsis_gcc.h **** }
 323:Drivers/CMSIS/Include/cmsis_gcc.h **** #endif
 324:Drivers/CMSIS/Include/cmsis_gcc.h **** 
 325:Drivers/CMSIS/Include/cmsis_gcc.h **** 
 326:Drivers/CMSIS/Include/cmsis_gcc.h **** /**
 327:Drivers/CMSIS/Include/cmsis_gcc.h ****   \brief   Set Main Stack Pointer
 328:Drivers/CMSIS/Include/cmsis_gcc.h ****   \details Assigns the given value to the Main Stack Pointer (MSP).
 329:Drivers/CMSIS/Include/cmsis_gcc.h ****   \param [in]    topOfMainStack  Main Stack Pointer value to set
 330:Drivers/CMSIS/Include/cmsis_gcc.h ****  */
 331:Drivers/CMSIS/Include/cmsis_gcc.h **** __STATIC_FORCEINLINE void __set_MSP(uint32_t topOfMainStack)
 332:Drivers/CMSIS/Include/cmsis_gcc.h **** {
 333:Drivers/CMSIS/Include/cmsis_gcc.h ****   __ASM volatile ("MSR msp, %0" : : "r" (topOfMainStack) : );
 334:Drivers/CMSIS/Include/cmsis_gcc.h **** }
 335:Drivers/CMSIS/Include/cmsis_gcc.h **** 
 336:Drivers/CMSIS/Include/cmsis_gcc.h **** 
 337:Drivers/CMSIS/Include/cmsis_gcc.h **** #if (defined (__ARM_FEATURE_CMSE ) && (__ARM_FEATURE_CMSE == 3))
 338:Drivers/CMSIS/Include/cmsis_gcc.h **** /**
 339:Drivers/CMSIS/Include/cmsis_gcc.h ****   \brief   Set Main Stack Pointer (non-secure)
 340:Drivers/CMSIS/Include/cmsis_gcc.h ****   \details Assigns the given value to the non-secure Main Stack Pointer (MSP) when in secure state.
 341:Drivers/CMSIS/Include/cmsis_gcc.h ****   \param [in]    topOfMainStack  Main Stack Pointer value to set
 342:Drivers/CMSIS/Include/cmsis_gcc.h ****  */
 343:Drivers/CMSIS/Include/cmsis_gcc.h **** __STATIC_FORCEINLINE void __TZ_set_MSP_NS(uint32_t topOfMainStack)
 344:Drivers/CMSIS/Include/cmsis_gcc.h **** {
 345:Drivers/CMSIS/Include/cmsis_gcc.h ****   __ASM volatile ("MSR msp_ns, %0" : : "r" (topOfMainStack) : );
 346:Drivers/CMSIS/Include/cmsis_gcc.h **** }
 347:Drivers/CMSIS/Include/cmsis_gcc.h **** #endif
 348:Drivers/CMSIS/Include/cmsis_gcc.h **** 
 349:Drivers/CMSIS/Include/cmsis_gcc.h **** 
 350:Drivers/CMSIS/Include/cmsis_gcc.h **** #if (defined (__ARM_FEATURE_CMSE ) && (__ARM_FEATURE_CMSE == 3))
 351:Drivers/CMSIS/Include/cmsis_gcc.h **** /**
 352:Drivers/CMSIS/Include/cmsis_gcc.h ****   \brief   Get Stack Pointer (non-secure)
 353:Drivers/CMSIS/Include/cmsis_gcc.h ****   \details Returns the current value of the non-secure Stack Pointer (SP) when in secure state.
 354:Drivers/CMSIS/Include/cmsis_gcc.h ****   \return               SP Register value
 355:Drivers/CMSIS/Include/cmsis_gcc.h ****  */
 356:Drivers/CMSIS/Include/cmsis_gcc.h **** __STATIC_FORCEINLINE uint32_t __TZ_get_SP_NS(void)
 357:Drivers/CMSIS/Include/cmsis_gcc.h **** {
 358:Drivers/CMSIS/Include/cmsis_gcc.h ****   uint32_t result;
 359:Drivers/CMSIS/Include/cmsis_gcc.h **** 
 360:Drivers/CMSIS/Include/cmsis_gcc.h ****   __ASM volatile ("MRS %0, sp_ns" : "=r" (result) );
ARM GAS  C:\Users\domen\AppData\Local\Temp\ccQylUhh.s 			page 24


 361:Drivers/CMSIS/Include/cmsis_gcc.h ****   return(result);
 362:Drivers/CMSIS/Include/cmsis_gcc.h **** }
 363:Drivers/CMSIS/Include/cmsis_gcc.h **** 
 364:Drivers/CMSIS/Include/cmsis_gcc.h **** 
 365:Drivers/CMSIS/Include/cmsis_gcc.h **** /**
 366:Drivers/CMSIS/Include/cmsis_gcc.h ****   \brief   Set Stack Pointer (non-secure)
 367:Drivers/CMSIS/Include/cmsis_gcc.h ****   \details Assigns the given value to the non-secure Stack Pointer (SP) when in secure state.
 368:Drivers/CMSIS/Include/cmsis_gcc.h ****   \param [in]    topOfStack  Stack Pointer value to set
 369:Drivers/CMSIS/Include/cmsis_gcc.h ****  */
 370:Drivers/CMSIS/Include/cmsis_gcc.h **** __STATIC_FORCEINLINE void __TZ_set_SP_NS(uint32_t topOfStack)
 371:Drivers/CMSIS/Include/cmsis_gcc.h **** {
 372:Drivers/CMSIS/Include/cmsis_gcc.h ****   __ASM volatile ("MSR sp_ns, %0" : : "r" (topOfStack) : );
 373:Drivers/CMSIS/Include/cmsis_gcc.h **** }
 374:Drivers/CMSIS/Include/cmsis_gcc.h **** #endif
 375:Drivers/CMSIS/Include/cmsis_gcc.h **** 
 376:Drivers/CMSIS/Include/cmsis_gcc.h **** 
 377:Drivers/CMSIS/Include/cmsis_gcc.h **** /**
 378:Drivers/CMSIS/Include/cmsis_gcc.h ****   \brief   Get Priority Mask
 379:Drivers/CMSIS/Include/cmsis_gcc.h ****   \details Returns the current state of the priority mask bit from the Priority Mask Register.
 380:Drivers/CMSIS/Include/cmsis_gcc.h ****   \return               Priority Mask value
 381:Drivers/CMSIS/Include/cmsis_gcc.h ****  */
 382:Drivers/CMSIS/Include/cmsis_gcc.h **** __STATIC_FORCEINLINE uint32_t __get_PRIMASK(void)
 383:Drivers/CMSIS/Include/cmsis_gcc.h **** {
 384:Drivers/CMSIS/Include/cmsis_gcc.h ****   uint32_t result;
 385:Drivers/CMSIS/Include/cmsis_gcc.h **** 
 386:Drivers/CMSIS/Include/cmsis_gcc.h ****   __ASM volatile ("MRS %0, primask" : "=r" (result) :: "memory");
 387:Drivers/CMSIS/Include/cmsis_gcc.h ****   return(result);
 388:Drivers/CMSIS/Include/cmsis_gcc.h **** }
 389:Drivers/CMSIS/Include/cmsis_gcc.h **** 
 390:Drivers/CMSIS/Include/cmsis_gcc.h **** 
 391:Drivers/CMSIS/Include/cmsis_gcc.h **** #if (defined (__ARM_FEATURE_CMSE ) && (__ARM_FEATURE_CMSE == 3))
 392:Drivers/CMSIS/Include/cmsis_gcc.h **** /**
 393:Drivers/CMSIS/Include/cmsis_gcc.h ****   \brief   Get Priority Mask (non-secure)
 394:Drivers/CMSIS/Include/cmsis_gcc.h ****   \details Returns the current state of the non-secure priority mask bit from the Priority Mask Reg
 395:Drivers/CMSIS/Include/cmsis_gcc.h ****   \return               Priority Mask value
 396:Drivers/CMSIS/Include/cmsis_gcc.h ****  */
 397:Drivers/CMSIS/Include/cmsis_gcc.h **** __STATIC_FORCEINLINE uint32_t __TZ_get_PRIMASK_NS(void)
 398:Drivers/CMSIS/Include/cmsis_gcc.h **** {
 399:Drivers/CMSIS/Include/cmsis_gcc.h ****   uint32_t result;
 400:Drivers/CMSIS/Include/cmsis_gcc.h **** 
 401:Drivers/CMSIS/Include/cmsis_gcc.h ****   __ASM volatile ("MRS %0, primask_ns" : "=r" (result) :: "memory");
 402:Drivers/CMSIS/Include/cmsis_gcc.h ****   return(result);
 403:Drivers/CMSIS/Include/cmsis_gcc.h **** }
 404:Drivers/CMSIS/Include/cmsis_gcc.h **** #endif
 405:Drivers/CMSIS/Include/cmsis_gcc.h **** 
 406:Drivers/CMSIS/Include/cmsis_gcc.h **** 
 407:Drivers/CMSIS/Include/cmsis_gcc.h **** /**
 408:Drivers/CMSIS/Include/cmsis_gcc.h ****   \brief   Set Priority Mask
 409:Drivers/CMSIS/Include/cmsis_gcc.h ****   \details Assigns the given value to the Priority Mask Register.
 410:Drivers/CMSIS/Include/cmsis_gcc.h ****   \param [in]    priMask  Priority Mask
 411:Drivers/CMSIS/Include/cmsis_gcc.h ****  */
 412:Drivers/CMSIS/Include/cmsis_gcc.h **** __STATIC_FORCEINLINE void __set_PRIMASK(uint32_t priMask)
 413:Drivers/CMSIS/Include/cmsis_gcc.h **** {
 414:Drivers/CMSIS/Include/cmsis_gcc.h ****   __ASM volatile ("MSR primask, %0" : : "r" (priMask) : "memory");
 415:Drivers/CMSIS/Include/cmsis_gcc.h **** }
 416:Drivers/CMSIS/Include/cmsis_gcc.h **** 
 417:Drivers/CMSIS/Include/cmsis_gcc.h **** 
ARM GAS  C:\Users\domen\AppData\Local\Temp\ccQylUhh.s 			page 25


 418:Drivers/CMSIS/Include/cmsis_gcc.h **** #if (defined (__ARM_FEATURE_CMSE ) && (__ARM_FEATURE_CMSE == 3))
 419:Drivers/CMSIS/Include/cmsis_gcc.h **** /**
 420:Drivers/CMSIS/Include/cmsis_gcc.h ****   \brief   Set Priority Mask (non-secure)
 421:Drivers/CMSIS/Include/cmsis_gcc.h ****   \details Assigns the given value to the non-secure Priority Mask Register when in secure state.
 422:Drivers/CMSIS/Include/cmsis_gcc.h ****   \param [in]    priMask  Priority Mask
 423:Drivers/CMSIS/Include/cmsis_gcc.h ****  */
 424:Drivers/CMSIS/Include/cmsis_gcc.h **** __STATIC_FORCEINLINE void __TZ_set_PRIMASK_NS(uint32_t priMask)
 425:Drivers/CMSIS/Include/cmsis_gcc.h **** {
 426:Drivers/CMSIS/Include/cmsis_gcc.h ****   __ASM volatile ("MSR primask_ns, %0" : : "r" (priMask) : "memory");
 427:Drivers/CMSIS/Include/cmsis_gcc.h **** }
 428:Drivers/CMSIS/Include/cmsis_gcc.h **** #endif
 429:Drivers/CMSIS/Include/cmsis_gcc.h **** 
 430:Drivers/CMSIS/Include/cmsis_gcc.h **** 
 431:Drivers/CMSIS/Include/cmsis_gcc.h **** #if ((defined (__ARM_ARCH_7M__      ) && (__ARM_ARCH_7M__      == 1)) || \
 432:Drivers/CMSIS/Include/cmsis_gcc.h ****      (defined (__ARM_ARCH_7EM__     ) && (__ARM_ARCH_7EM__     == 1)) || \
 433:Drivers/CMSIS/Include/cmsis_gcc.h ****      (defined (__ARM_ARCH_8M_MAIN__ ) && (__ARM_ARCH_8M_MAIN__ == 1))    )
 434:Drivers/CMSIS/Include/cmsis_gcc.h **** /**
 435:Drivers/CMSIS/Include/cmsis_gcc.h ****   \brief   Enable FIQ
 436:Drivers/CMSIS/Include/cmsis_gcc.h ****   \details Enables FIQ interrupts by clearing the F-bit in the CPSR.
 437:Drivers/CMSIS/Include/cmsis_gcc.h ****            Can only be executed in Privileged modes.
 438:Drivers/CMSIS/Include/cmsis_gcc.h ****  */
 439:Drivers/CMSIS/Include/cmsis_gcc.h **** __STATIC_FORCEINLINE void __enable_fault_irq(void)
 440:Drivers/CMSIS/Include/cmsis_gcc.h **** {
 441:Drivers/CMSIS/Include/cmsis_gcc.h ****   __ASM volatile ("cpsie f" : : : "memory");
 442:Drivers/CMSIS/Include/cmsis_gcc.h **** }
 443:Drivers/CMSIS/Include/cmsis_gcc.h **** 
 444:Drivers/CMSIS/Include/cmsis_gcc.h **** 
 445:Drivers/CMSIS/Include/cmsis_gcc.h **** /**
 446:Drivers/CMSIS/Include/cmsis_gcc.h ****   \brief   Disable FIQ
 447:Drivers/CMSIS/Include/cmsis_gcc.h ****   \details Disables FIQ interrupts by setting the F-bit in the CPSR.
 448:Drivers/CMSIS/Include/cmsis_gcc.h ****            Can only be executed in Privileged modes.
 449:Drivers/CMSIS/Include/cmsis_gcc.h ****  */
 450:Drivers/CMSIS/Include/cmsis_gcc.h **** __STATIC_FORCEINLINE void __disable_fault_irq(void)
 451:Drivers/CMSIS/Include/cmsis_gcc.h **** {
 452:Drivers/CMSIS/Include/cmsis_gcc.h ****   __ASM volatile ("cpsid f" : : : "memory");
 453:Drivers/CMSIS/Include/cmsis_gcc.h **** }
 454:Drivers/CMSIS/Include/cmsis_gcc.h **** 
 455:Drivers/CMSIS/Include/cmsis_gcc.h **** 
 456:Drivers/CMSIS/Include/cmsis_gcc.h **** /**
 457:Drivers/CMSIS/Include/cmsis_gcc.h ****   \brief   Get Base Priority
 458:Drivers/CMSIS/Include/cmsis_gcc.h ****   \details Returns the current value of the Base Priority register.
 459:Drivers/CMSIS/Include/cmsis_gcc.h ****   \return               Base Priority register value
 460:Drivers/CMSIS/Include/cmsis_gcc.h ****  */
 461:Drivers/CMSIS/Include/cmsis_gcc.h **** __STATIC_FORCEINLINE uint32_t __get_BASEPRI(void)
 462:Drivers/CMSIS/Include/cmsis_gcc.h **** {
 463:Drivers/CMSIS/Include/cmsis_gcc.h ****   uint32_t result;
 464:Drivers/CMSIS/Include/cmsis_gcc.h **** 
 465:Drivers/CMSIS/Include/cmsis_gcc.h ****   __ASM volatile ("MRS %0, basepri" : "=r" (result) );
 466:Drivers/CMSIS/Include/cmsis_gcc.h ****   return(result);
 467:Drivers/CMSIS/Include/cmsis_gcc.h **** }
 468:Drivers/CMSIS/Include/cmsis_gcc.h **** 
 469:Drivers/CMSIS/Include/cmsis_gcc.h **** 
 470:Drivers/CMSIS/Include/cmsis_gcc.h **** #if (defined (__ARM_FEATURE_CMSE ) && (__ARM_FEATURE_CMSE == 3))
 471:Drivers/CMSIS/Include/cmsis_gcc.h **** /**
 472:Drivers/CMSIS/Include/cmsis_gcc.h ****   \brief   Get Base Priority (non-secure)
 473:Drivers/CMSIS/Include/cmsis_gcc.h ****   \details Returns the current value of the non-secure Base Priority register when in secure state.
 474:Drivers/CMSIS/Include/cmsis_gcc.h ****   \return               Base Priority register value
ARM GAS  C:\Users\domen\AppData\Local\Temp\ccQylUhh.s 			page 26


 475:Drivers/CMSIS/Include/cmsis_gcc.h ****  */
 476:Drivers/CMSIS/Include/cmsis_gcc.h **** __STATIC_FORCEINLINE uint32_t __TZ_get_BASEPRI_NS(void)
 477:Drivers/CMSIS/Include/cmsis_gcc.h **** {
 478:Drivers/CMSIS/Include/cmsis_gcc.h ****   uint32_t result;
 479:Drivers/CMSIS/Include/cmsis_gcc.h **** 
 480:Drivers/CMSIS/Include/cmsis_gcc.h ****   __ASM volatile ("MRS %0, basepri_ns" : "=r" (result) );
 481:Drivers/CMSIS/Include/cmsis_gcc.h ****   return(result);
 482:Drivers/CMSIS/Include/cmsis_gcc.h **** }
 483:Drivers/CMSIS/Include/cmsis_gcc.h **** #endif
 484:Drivers/CMSIS/Include/cmsis_gcc.h **** 
 485:Drivers/CMSIS/Include/cmsis_gcc.h **** 
 486:Drivers/CMSIS/Include/cmsis_gcc.h **** /**
 487:Drivers/CMSIS/Include/cmsis_gcc.h ****   \brief   Set Base Priority
 488:Drivers/CMSIS/Include/cmsis_gcc.h ****   \details Assigns the given value to the Base Priority register.
 489:Drivers/CMSIS/Include/cmsis_gcc.h ****   \param [in]    basePri  Base Priority value to set
 490:Drivers/CMSIS/Include/cmsis_gcc.h ****  */
 491:Drivers/CMSIS/Include/cmsis_gcc.h **** __STATIC_FORCEINLINE void __set_BASEPRI(uint32_t basePri)
 492:Drivers/CMSIS/Include/cmsis_gcc.h **** {
 493:Drivers/CMSIS/Include/cmsis_gcc.h ****   __ASM volatile ("MSR basepri, %0" : : "r" (basePri) : "memory");
 494:Drivers/CMSIS/Include/cmsis_gcc.h **** }
 495:Drivers/CMSIS/Include/cmsis_gcc.h **** 
 496:Drivers/CMSIS/Include/cmsis_gcc.h **** 
 497:Drivers/CMSIS/Include/cmsis_gcc.h **** #if (defined (__ARM_FEATURE_CMSE ) && (__ARM_FEATURE_CMSE == 3))
 498:Drivers/CMSIS/Include/cmsis_gcc.h **** /**
 499:Drivers/CMSIS/Include/cmsis_gcc.h ****   \brief   Set Base Priority (non-secure)
 500:Drivers/CMSIS/Include/cmsis_gcc.h ****   \details Assigns the given value to the non-secure Base Priority register when in secure state.
 501:Drivers/CMSIS/Include/cmsis_gcc.h ****   \param [in]    basePri  Base Priority value to set
 502:Drivers/CMSIS/Include/cmsis_gcc.h ****  */
 503:Drivers/CMSIS/Include/cmsis_gcc.h **** __STATIC_FORCEINLINE void __TZ_set_BASEPRI_NS(uint32_t basePri)
 504:Drivers/CMSIS/Include/cmsis_gcc.h **** {
 505:Drivers/CMSIS/Include/cmsis_gcc.h ****   __ASM volatile ("MSR basepri_ns, %0" : : "r" (basePri) : "memory");
 506:Drivers/CMSIS/Include/cmsis_gcc.h **** }
 507:Drivers/CMSIS/Include/cmsis_gcc.h **** #endif
 508:Drivers/CMSIS/Include/cmsis_gcc.h **** 
 509:Drivers/CMSIS/Include/cmsis_gcc.h **** 
 510:Drivers/CMSIS/Include/cmsis_gcc.h **** /**
 511:Drivers/CMSIS/Include/cmsis_gcc.h ****   \brief   Set Base Priority with condition
 512:Drivers/CMSIS/Include/cmsis_gcc.h ****   \details Assigns the given value to the Base Priority register only if BASEPRI masking is disable
 513:Drivers/CMSIS/Include/cmsis_gcc.h ****            or the new value increases the BASEPRI priority level.
 514:Drivers/CMSIS/Include/cmsis_gcc.h ****   \param [in]    basePri  Base Priority value to set
 515:Drivers/CMSIS/Include/cmsis_gcc.h ****  */
 516:Drivers/CMSIS/Include/cmsis_gcc.h **** __STATIC_FORCEINLINE void __set_BASEPRI_MAX(uint32_t basePri)
 517:Drivers/CMSIS/Include/cmsis_gcc.h **** {
 518:Drivers/CMSIS/Include/cmsis_gcc.h ****   __ASM volatile ("MSR basepri_max, %0" : : "r" (basePri) : "memory");
 519:Drivers/CMSIS/Include/cmsis_gcc.h **** }
 520:Drivers/CMSIS/Include/cmsis_gcc.h **** 
 521:Drivers/CMSIS/Include/cmsis_gcc.h **** 
 522:Drivers/CMSIS/Include/cmsis_gcc.h **** /**
 523:Drivers/CMSIS/Include/cmsis_gcc.h ****   \brief   Get Fault Mask
 524:Drivers/CMSIS/Include/cmsis_gcc.h ****   \details Returns the current value of the Fault Mask register.
 525:Drivers/CMSIS/Include/cmsis_gcc.h ****   \return               Fault Mask register value
 526:Drivers/CMSIS/Include/cmsis_gcc.h ****  */
 527:Drivers/CMSIS/Include/cmsis_gcc.h **** __STATIC_FORCEINLINE uint32_t __get_FAULTMASK(void)
 528:Drivers/CMSIS/Include/cmsis_gcc.h **** {
 529:Drivers/CMSIS/Include/cmsis_gcc.h ****   uint32_t result;
 530:Drivers/CMSIS/Include/cmsis_gcc.h **** 
 531:Drivers/CMSIS/Include/cmsis_gcc.h ****   __ASM volatile ("MRS %0, faultmask" : "=r" (result) );
ARM GAS  C:\Users\domen\AppData\Local\Temp\ccQylUhh.s 			page 27


 532:Drivers/CMSIS/Include/cmsis_gcc.h ****   return(result);
 533:Drivers/CMSIS/Include/cmsis_gcc.h **** }
 534:Drivers/CMSIS/Include/cmsis_gcc.h **** 
 535:Drivers/CMSIS/Include/cmsis_gcc.h **** 
 536:Drivers/CMSIS/Include/cmsis_gcc.h **** #if (defined (__ARM_FEATURE_CMSE ) && (__ARM_FEATURE_CMSE == 3))
 537:Drivers/CMSIS/Include/cmsis_gcc.h **** /**
 538:Drivers/CMSIS/Include/cmsis_gcc.h ****   \brief   Get Fault Mask (non-secure)
 539:Drivers/CMSIS/Include/cmsis_gcc.h ****   \details Returns the current value of the non-secure Fault Mask register when in secure state.
 540:Drivers/CMSIS/Include/cmsis_gcc.h ****   \return               Fault Mask register value
 541:Drivers/CMSIS/Include/cmsis_gcc.h ****  */
 542:Drivers/CMSIS/Include/cmsis_gcc.h **** __STATIC_FORCEINLINE uint32_t __TZ_get_FAULTMASK_NS(void)
 543:Drivers/CMSIS/Include/cmsis_gcc.h **** {
 544:Drivers/CMSIS/Include/cmsis_gcc.h ****   uint32_t result;
 545:Drivers/CMSIS/Include/cmsis_gcc.h **** 
 546:Drivers/CMSIS/Include/cmsis_gcc.h ****   __ASM volatile ("MRS %0, faultmask_ns" : "=r" (result) );
 547:Drivers/CMSIS/Include/cmsis_gcc.h ****   return(result);
 548:Drivers/CMSIS/Include/cmsis_gcc.h **** }
 549:Drivers/CMSIS/Include/cmsis_gcc.h **** #endif
 550:Drivers/CMSIS/Include/cmsis_gcc.h **** 
 551:Drivers/CMSIS/Include/cmsis_gcc.h **** 
 552:Drivers/CMSIS/Include/cmsis_gcc.h **** /**
 553:Drivers/CMSIS/Include/cmsis_gcc.h ****   \brief   Set Fault Mask
 554:Drivers/CMSIS/Include/cmsis_gcc.h ****   \details Assigns the given value to the Fault Mask register.
 555:Drivers/CMSIS/Include/cmsis_gcc.h ****   \param [in]    faultMask  Fault Mask value to set
 556:Drivers/CMSIS/Include/cmsis_gcc.h ****  */
 557:Drivers/CMSIS/Include/cmsis_gcc.h **** __STATIC_FORCEINLINE void __set_FAULTMASK(uint32_t faultMask)
 558:Drivers/CMSIS/Include/cmsis_gcc.h **** {
 559:Drivers/CMSIS/Include/cmsis_gcc.h ****   __ASM volatile ("MSR faultmask, %0" : : "r" (faultMask) : "memory");
 560:Drivers/CMSIS/Include/cmsis_gcc.h **** }
 561:Drivers/CMSIS/Include/cmsis_gcc.h **** 
 562:Drivers/CMSIS/Include/cmsis_gcc.h **** 
 563:Drivers/CMSIS/Include/cmsis_gcc.h **** #if (defined (__ARM_FEATURE_CMSE ) && (__ARM_FEATURE_CMSE == 3))
 564:Drivers/CMSIS/Include/cmsis_gcc.h **** /**
 565:Drivers/CMSIS/Include/cmsis_gcc.h ****   \brief   Set Fault Mask (non-secure)
 566:Drivers/CMSIS/Include/cmsis_gcc.h ****   \details Assigns the given value to the non-secure Fault Mask register when in secure state.
 567:Drivers/CMSIS/Include/cmsis_gcc.h ****   \param [in]    faultMask  Fault Mask value to set
 568:Drivers/CMSIS/Include/cmsis_gcc.h ****  */
 569:Drivers/CMSIS/Include/cmsis_gcc.h **** __STATIC_FORCEINLINE void __TZ_set_FAULTMASK_NS(uint32_t faultMask)
 570:Drivers/CMSIS/Include/cmsis_gcc.h **** {
 571:Drivers/CMSIS/Include/cmsis_gcc.h ****   __ASM volatile ("MSR faultmask_ns, %0" : : "r" (faultMask) : "memory");
 572:Drivers/CMSIS/Include/cmsis_gcc.h **** }
 573:Drivers/CMSIS/Include/cmsis_gcc.h **** #endif
 574:Drivers/CMSIS/Include/cmsis_gcc.h **** 
 575:Drivers/CMSIS/Include/cmsis_gcc.h **** #endif /* ((defined (__ARM_ARCH_7M__      ) && (__ARM_ARCH_7M__      == 1)) || \
 576:Drivers/CMSIS/Include/cmsis_gcc.h ****            (defined (__ARM_ARCH_7EM__     ) && (__ARM_ARCH_7EM__     == 1)) || \
 577:Drivers/CMSIS/Include/cmsis_gcc.h ****            (defined (__ARM_ARCH_8M_MAIN__ ) && (__ARM_ARCH_8M_MAIN__ == 1))    ) */
 578:Drivers/CMSIS/Include/cmsis_gcc.h **** 
 579:Drivers/CMSIS/Include/cmsis_gcc.h **** 
 580:Drivers/CMSIS/Include/cmsis_gcc.h **** #if ((defined (__ARM_ARCH_8M_MAIN__ ) && (__ARM_ARCH_8M_MAIN__ == 1)) || \
 581:Drivers/CMSIS/Include/cmsis_gcc.h ****      (defined (__ARM_ARCH_8M_BASE__ ) && (__ARM_ARCH_8M_BASE__ == 1))    )
 582:Drivers/CMSIS/Include/cmsis_gcc.h **** 
 583:Drivers/CMSIS/Include/cmsis_gcc.h **** /**
 584:Drivers/CMSIS/Include/cmsis_gcc.h ****   \brief   Get Process Stack Pointer Limit
 585:Drivers/CMSIS/Include/cmsis_gcc.h ****   Devices without ARMv8-M Main Extensions (i.e. Cortex-M23) lack the non-secure
 586:Drivers/CMSIS/Include/cmsis_gcc.h ****   Stack Pointer Limit register hence zero is returned always in non-secure
 587:Drivers/CMSIS/Include/cmsis_gcc.h ****   mode.
 588:Drivers/CMSIS/Include/cmsis_gcc.h ****   
ARM GAS  C:\Users\domen\AppData\Local\Temp\ccQylUhh.s 			page 28


 589:Drivers/CMSIS/Include/cmsis_gcc.h ****   \details Returns the current value of the Process Stack Pointer Limit (PSPLIM).
 590:Drivers/CMSIS/Include/cmsis_gcc.h ****   \return               PSPLIM Register value
 591:Drivers/CMSIS/Include/cmsis_gcc.h ****  */
 592:Drivers/CMSIS/Include/cmsis_gcc.h **** __STATIC_FORCEINLINE uint32_t __get_PSPLIM(void)
 593:Drivers/CMSIS/Include/cmsis_gcc.h **** {
 594:Drivers/CMSIS/Include/cmsis_gcc.h **** #if (!(defined (__ARM_ARCH_8M_MAIN__ ) && (__ARM_ARCH_8M_MAIN__ == 1)) && \
 595:Drivers/CMSIS/Include/cmsis_gcc.h ****     (!defined (__ARM_FEATURE_CMSE) || (__ARM_FEATURE_CMSE < 3)))
 596:Drivers/CMSIS/Include/cmsis_gcc.h ****     // without main extensions, the non-secure PSPLIM is RAZ/WI
 597:Drivers/CMSIS/Include/cmsis_gcc.h ****   return 0U;
 598:Drivers/CMSIS/Include/cmsis_gcc.h **** #else
 599:Drivers/CMSIS/Include/cmsis_gcc.h ****   uint32_t result;
 600:Drivers/CMSIS/Include/cmsis_gcc.h ****   __ASM volatile ("MRS %0, psplim"  : "=r" (result) );
 601:Drivers/CMSIS/Include/cmsis_gcc.h ****   return result;
 602:Drivers/CMSIS/Include/cmsis_gcc.h **** #endif
 603:Drivers/CMSIS/Include/cmsis_gcc.h **** }
 604:Drivers/CMSIS/Include/cmsis_gcc.h **** 
 605:Drivers/CMSIS/Include/cmsis_gcc.h **** #if (defined (__ARM_FEATURE_CMSE) && (__ARM_FEATURE_CMSE == 3))
 606:Drivers/CMSIS/Include/cmsis_gcc.h **** /**
 607:Drivers/CMSIS/Include/cmsis_gcc.h ****   \brief   Get Process Stack Pointer Limit (non-secure)
 608:Drivers/CMSIS/Include/cmsis_gcc.h ****   Devices without ARMv8-M Main Extensions (i.e. Cortex-M23) lack the non-secure
 609:Drivers/CMSIS/Include/cmsis_gcc.h ****   Stack Pointer Limit register hence zero is returned always.
 610:Drivers/CMSIS/Include/cmsis_gcc.h **** 
 611:Drivers/CMSIS/Include/cmsis_gcc.h ****   \details Returns the current value of the non-secure Process Stack Pointer Limit (PSPLIM) when in
 612:Drivers/CMSIS/Include/cmsis_gcc.h ****   \return               PSPLIM Register value
 613:Drivers/CMSIS/Include/cmsis_gcc.h ****  */
 614:Drivers/CMSIS/Include/cmsis_gcc.h **** __STATIC_FORCEINLINE uint32_t __TZ_get_PSPLIM_NS(void)
 615:Drivers/CMSIS/Include/cmsis_gcc.h **** {
 616:Drivers/CMSIS/Include/cmsis_gcc.h **** #if (!(defined (__ARM_ARCH_8M_MAIN__ ) && (__ARM_ARCH_8M_MAIN__ == 1)))
 617:Drivers/CMSIS/Include/cmsis_gcc.h ****   // without main extensions, the non-secure PSPLIM is RAZ/WI
 618:Drivers/CMSIS/Include/cmsis_gcc.h ****   return 0U;
 619:Drivers/CMSIS/Include/cmsis_gcc.h **** #else
 620:Drivers/CMSIS/Include/cmsis_gcc.h ****   uint32_t result;
 621:Drivers/CMSIS/Include/cmsis_gcc.h ****   __ASM volatile ("MRS %0, psplim_ns"  : "=r" (result) );
 622:Drivers/CMSIS/Include/cmsis_gcc.h ****   return result;
 623:Drivers/CMSIS/Include/cmsis_gcc.h **** #endif
 624:Drivers/CMSIS/Include/cmsis_gcc.h **** }
 625:Drivers/CMSIS/Include/cmsis_gcc.h **** #endif
 626:Drivers/CMSIS/Include/cmsis_gcc.h **** 
 627:Drivers/CMSIS/Include/cmsis_gcc.h **** 
 628:Drivers/CMSIS/Include/cmsis_gcc.h **** /**
 629:Drivers/CMSIS/Include/cmsis_gcc.h ****   \brief   Set Process Stack Pointer Limit
 630:Drivers/CMSIS/Include/cmsis_gcc.h ****   Devices without ARMv8-M Main Extensions (i.e. Cortex-M23) lack the non-secure
 631:Drivers/CMSIS/Include/cmsis_gcc.h ****   Stack Pointer Limit register hence the write is silently ignored in non-secure
 632:Drivers/CMSIS/Include/cmsis_gcc.h ****   mode.
 633:Drivers/CMSIS/Include/cmsis_gcc.h ****   
 634:Drivers/CMSIS/Include/cmsis_gcc.h ****   \details Assigns the given value to the Process Stack Pointer Limit (PSPLIM).
 635:Drivers/CMSIS/Include/cmsis_gcc.h ****   \param [in]    ProcStackPtrLimit  Process Stack Pointer Limit value to set
 636:Drivers/CMSIS/Include/cmsis_gcc.h ****  */
 637:Drivers/CMSIS/Include/cmsis_gcc.h **** __STATIC_FORCEINLINE void __set_PSPLIM(uint32_t ProcStackPtrLimit)
 638:Drivers/CMSIS/Include/cmsis_gcc.h **** {
 639:Drivers/CMSIS/Include/cmsis_gcc.h **** #if (!(defined (__ARM_ARCH_8M_MAIN__ ) && (__ARM_ARCH_8M_MAIN__ == 1)) && \
 640:Drivers/CMSIS/Include/cmsis_gcc.h ****     (!defined (__ARM_FEATURE_CMSE) || (__ARM_FEATURE_CMSE < 3)))
 641:Drivers/CMSIS/Include/cmsis_gcc.h ****   // without main extensions, the non-secure PSPLIM is RAZ/WI
 642:Drivers/CMSIS/Include/cmsis_gcc.h ****   (void)ProcStackPtrLimit;
 643:Drivers/CMSIS/Include/cmsis_gcc.h **** #else
 644:Drivers/CMSIS/Include/cmsis_gcc.h ****   __ASM volatile ("MSR psplim, %0" : : "r" (ProcStackPtrLimit));
 645:Drivers/CMSIS/Include/cmsis_gcc.h **** #endif
ARM GAS  C:\Users\domen\AppData\Local\Temp\ccQylUhh.s 			page 29


 646:Drivers/CMSIS/Include/cmsis_gcc.h **** }
 647:Drivers/CMSIS/Include/cmsis_gcc.h **** 
 648:Drivers/CMSIS/Include/cmsis_gcc.h **** 
 649:Drivers/CMSIS/Include/cmsis_gcc.h **** #if (defined (__ARM_FEATURE_CMSE  ) && (__ARM_FEATURE_CMSE   == 3))
 650:Drivers/CMSIS/Include/cmsis_gcc.h **** /**
 651:Drivers/CMSIS/Include/cmsis_gcc.h ****   \brief   Set Process Stack Pointer (non-secure)
 652:Drivers/CMSIS/Include/cmsis_gcc.h ****   Devices without ARMv8-M Main Extensions (i.e. Cortex-M23) lack the non-secure
 653:Drivers/CMSIS/Include/cmsis_gcc.h ****   Stack Pointer Limit register hence the write is silently ignored.
 654:Drivers/CMSIS/Include/cmsis_gcc.h **** 
 655:Drivers/CMSIS/Include/cmsis_gcc.h ****   \details Assigns the given value to the non-secure Process Stack Pointer Limit (PSPLIM) when in s
 656:Drivers/CMSIS/Include/cmsis_gcc.h ****   \param [in]    ProcStackPtrLimit  Process Stack Pointer Limit value to set
 657:Drivers/CMSIS/Include/cmsis_gcc.h ****  */
 658:Drivers/CMSIS/Include/cmsis_gcc.h **** __STATIC_FORCEINLINE void __TZ_set_PSPLIM_NS(uint32_t ProcStackPtrLimit)
 659:Drivers/CMSIS/Include/cmsis_gcc.h **** {
 660:Drivers/CMSIS/Include/cmsis_gcc.h **** #if (!(defined (__ARM_ARCH_8M_MAIN__ ) && (__ARM_ARCH_8M_MAIN__ == 1)))
 661:Drivers/CMSIS/Include/cmsis_gcc.h ****   // without main extensions, the non-secure PSPLIM is RAZ/WI
 662:Drivers/CMSIS/Include/cmsis_gcc.h ****   (void)ProcStackPtrLimit;
 663:Drivers/CMSIS/Include/cmsis_gcc.h **** #else
 664:Drivers/CMSIS/Include/cmsis_gcc.h ****   __ASM volatile ("MSR psplim_ns, %0\n" : : "r" (ProcStackPtrLimit));
 665:Drivers/CMSIS/Include/cmsis_gcc.h **** #endif
 666:Drivers/CMSIS/Include/cmsis_gcc.h **** }
 667:Drivers/CMSIS/Include/cmsis_gcc.h **** #endif
 668:Drivers/CMSIS/Include/cmsis_gcc.h **** 
 669:Drivers/CMSIS/Include/cmsis_gcc.h **** 
 670:Drivers/CMSIS/Include/cmsis_gcc.h **** /**
 671:Drivers/CMSIS/Include/cmsis_gcc.h ****   \brief   Get Main Stack Pointer Limit
 672:Drivers/CMSIS/Include/cmsis_gcc.h ****   Devices without ARMv8-M Main Extensions (i.e. Cortex-M23) lack the non-secure
 673:Drivers/CMSIS/Include/cmsis_gcc.h ****   Stack Pointer Limit register hence zero is returned always in non-secure
 674:Drivers/CMSIS/Include/cmsis_gcc.h ****   mode.
 675:Drivers/CMSIS/Include/cmsis_gcc.h **** 
 676:Drivers/CMSIS/Include/cmsis_gcc.h ****   \details Returns the current value of the Main Stack Pointer Limit (MSPLIM).
 677:Drivers/CMSIS/Include/cmsis_gcc.h ****   \return               MSPLIM Register value
 678:Drivers/CMSIS/Include/cmsis_gcc.h ****  */
 679:Drivers/CMSIS/Include/cmsis_gcc.h **** __STATIC_FORCEINLINE uint32_t __get_MSPLIM(void)
 680:Drivers/CMSIS/Include/cmsis_gcc.h **** {
 681:Drivers/CMSIS/Include/cmsis_gcc.h **** #if (!(defined (__ARM_ARCH_8M_MAIN__ ) && (__ARM_ARCH_8M_MAIN__ == 1)) && \
 682:Drivers/CMSIS/Include/cmsis_gcc.h ****     (!defined (__ARM_FEATURE_CMSE) || (__ARM_FEATURE_CMSE < 3)))
 683:Drivers/CMSIS/Include/cmsis_gcc.h ****   // without main extensions, the non-secure MSPLIM is RAZ/WI
 684:Drivers/CMSIS/Include/cmsis_gcc.h ****   return 0U;
 685:Drivers/CMSIS/Include/cmsis_gcc.h **** #else
 686:Drivers/CMSIS/Include/cmsis_gcc.h ****   uint32_t result;
 687:Drivers/CMSIS/Include/cmsis_gcc.h ****   __ASM volatile ("MRS %0, msplim" : "=r" (result) );
 688:Drivers/CMSIS/Include/cmsis_gcc.h ****   return result;
 689:Drivers/CMSIS/Include/cmsis_gcc.h **** #endif
 690:Drivers/CMSIS/Include/cmsis_gcc.h **** }
 691:Drivers/CMSIS/Include/cmsis_gcc.h **** 
 692:Drivers/CMSIS/Include/cmsis_gcc.h **** 
 693:Drivers/CMSIS/Include/cmsis_gcc.h **** #if (defined (__ARM_FEATURE_CMSE  ) && (__ARM_FEATURE_CMSE   == 3))
 694:Drivers/CMSIS/Include/cmsis_gcc.h **** /**
 695:Drivers/CMSIS/Include/cmsis_gcc.h ****   \brief   Get Main Stack Pointer Limit (non-secure)
 696:Drivers/CMSIS/Include/cmsis_gcc.h ****   Devices without ARMv8-M Main Extensions (i.e. Cortex-M23) lack the non-secure
 697:Drivers/CMSIS/Include/cmsis_gcc.h ****   Stack Pointer Limit register hence zero is returned always.
 698:Drivers/CMSIS/Include/cmsis_gcc.h **** 
 699:Drivers/CMSIS/Include/cmsis_gcc.h ****   \details Returns the current value of the non-secure Main Stack Pointer Limit(MSPLIM) when in sec
 700:Drivers/CMSIS/Include/cmsis_gcc.h ****   \return               MSPLIM Register value
 701:Drivers/CMSIS/Include/cmsis_gcc.h ****  */
 702:Drivers/CMSIS/Include/cmsis_gcc.h **** __STATIC_FORCEINLINE uint32_t __TZ_get_MSPLIM_NS(void)
ARM GAS  C:\Users\domen\AppData\Local\Temp\ccQylUhh.s 			page 30


 703:Drivers/CMSIS/Include/cmsis_gcc.h **** {
 704:Drivers/CMSIS/Include/cmsis_gcc.h **** #if (!(defined (__ARM_ARCH_8M_MAIN__ ) && (__ARM_ARCH_8M_MAIN__ == 1)))
 705:Drivers/CMSIS/Include/cmsis_gcc.h ****   // without main extensions, the non-secure MSPLIM is RAZ/WI
 706:Drivers/CMSIS/Include/cmsis_gcc.h ****   return 0U;
 707:Drivers/CMSIS/Include/cmsis_gcc.h **** #else
 708:Drivers/CMSIS/Include/cmsis_gcc.h ****   uint32_t result;
 709:Drivers/CMSIS/Include/cmsis_gcc.h ****   __ASM volatile ("MRS %0, msplim_ns" : "=r" (result) );
 710:Drivers/CMSIS/Include/cmsis_gcc.h ****   return result;
 711:Drivers/CMSIS/Include/cmsis_gcc.h **** #endif
 712:Drivers/CMSIS/Include/cmsis_gcc.h **** }
 713:Drivers/CMSIS/Include/cmsis_gcc.h **** #endif
 714:Drivers/CMSIS/Include/cmsis_gcc.h **** 
 715:Drivers/CMSIS/Include/cmsis_gcc.h **** 
 716:Drivers/CMSIS/Include/cmsis_gcc.h **** /**
 717:Drivers/CMSIS/Include/cmsis_gcc.h ****   \brief   Set Main Stack Pointer Limit
 718:Drivers/CMSIS/Include/cmsis_gcc.h ****   Devices without ARMv8-M Main Extensions (i.e. Cortex-M23) lack the non-secure
 719:Drivers/CMSIS/Include/cmsis_gcc.h ****   Stack Pointer Limit register hence the write is silently ignored in non-secure
 720:Drivers/CMSIS/Include/cmsis_gcc.h ****   mode.
 721:Drivers/CMSIS/Include/cmsis_gcc.h **** 
 722:Drivers/CMSIS/Include/cmsis_gcc.h ****   \details Assigns the given value to the Main Stack Pointer Limit (MSPLIM).
 723:Drivers/CMSIS/Include/cmsis_gcc.h ****   \param [in]    MainStackPtrLimit  Main Stack Pointer Limit value to set
 724:Drivers/CMSIS/Include/cmsis_gcc.h ****  */
 725:Drivers/CMSIS/Include/cmsis_gcc.h **** __STATIC_FORCEINLINE void __set_MSPLIM(uint32_t MainStackPtrLimit)
 726:Drivers/CMSIS/Include/cmsis_gcc.h **** {
 727:Drivers/CMSIS/Include/cmsis_gcc.h **** #if (!(defined (__ARM_ARCH_8M_MAIN__ ) && (__ARM_ARCH_8M_MAIN__ == 1)) && \
 728:Drivers/CMSIS/Include/cmsis_gcc.h ****     (!defined (__ARM_FEATURE_CMSE) || (__ARM_FEATURE_CMSE < 3)))
 729:Drivers/CMSIS/Include/cmsis_gcc.h ****   // without main extensions, the non-secure MSPLIM is RAZ/WI
 730:Drivers/CMSIS/Include/cmsis_gcc.h ****   (void)MainStackPtrLimit;
 731:Drivers/CMSIS/Include/cmsis_gcc.h **** #else
 732:Drivers/CMSIS/Include/cmsis_gcc.h ****   __ASM volatile ("MSR msplim, %0" : : "r" (MainStackPtrLimit));
 733:Drivers/CMSIS/Include/cmsis_gcc.h **** #endif
 734:Drivers/CMSIS/Include/cmsis_gcc.h **** }
 735:Drivers/CMSIS/Include/cmsis_gcc.h **** 
 736:Drivers/CMSIS/Include/cmsis_gcc.h **** 
 737:Drivers/CMSIS/Include/cmsis_gcc.h **** #if (defined (__ARM_FEATURE_CMSE  ) && (__ARM_FEATURE_CMSE   == 3))
 738:Drivers/CMSIS/Include/cmsis_gcc.h **** /**
 739:Drivers/CMSIS/Include/cmsis_gcc.h ****   \brief   Set Main Stack Pointer Limit (non-secure)
 740:Drivers/CMSIS/Include/cmsis_gcc.h ****   Devices without ARMv8-M Main Extensions (i.e. Cortex-M23) lack the non-secure
 741:Drivers/CMSIS/Include/cmsis_gcc.h ****   Stack Pointer Limit register hence the write is silently ignored.
 742:Drivers/CMSIS/Include/cmsis_gcc.h **** 
 743:Drivers/CMSIS/Include/cmsis_gcc.h ****   \details Assigns the given value to the non-secure Main Stack Pointer Limit (MSPLIM) when in secu
 744:Drivers/CMSIS/Include/cmsis_gcc.h ****   \param [in]    MainStackPtrLimit  Main Stack Pointer value to set
 745:Drivers/CMSIS/Include/cmsis_gcc.h ****  */
 746:Drivers/CMSIS/Include/cmsis_gcc.h **** __STATIC_FORCEINLINE void __TZ_set_MSPLIM_NS(uint32_t MainStackPtrLimit)
 747:Drivers/CMSIS/Include/cmsis_gcc.h **** {
 748:Drivers/CMSIS/Include/cmsis_gcc.h **** #if (!(defined (__ARM_ARCH_8M_MAIN__ ) && (__ARM_ARCH_8M_MAIN__ == 1)))
 749:Drivers/CMSIS/Include/cmsis_gcc.h ****   // without main extensions, the non-secure MSPLIM is RAZ/WI
 750:Drivers/CMSIS/Include/cmsis_gcc.h ****   (void)MainStackPtrLimit;
 751:Drivers/CMSIS/Include/cmsis_gcc.h **** #else
 752:Drivers/CMSIS/Include/cmsis_gcc.h ****   __ASM volatile ("MSR msplim_ns, %0" : : "r" (MainStackPtrLimit));
 753:Drivers/CMSIS/Include/cmsis_gcc.h **** #endif
 754:Drivers/CMSIS/Include/cmsis_gcc.h **** }
 755:Drivers/CMSIS/Include/cmsis_gcc.h **** #endif
 756:Drivers/CMSIS/Include/cmsis_gcc.h **** 
 757:Drivers/CMSIS/Include/cmsis_gcc.h **** #endif /* ((defined (__ARM_ARCH_8M_MAIN__ ) && (__ARM_ARCH_8M_MAIN__ == 1)) || \
 758:Drivers/CMSIS/Include/cmsis_gcc.h ****            (defined (__ARM_ARCH_8M_BASE__ ) && (__ARM_ARCH_8M_BASE__ == 1))    ) */
 759:Drivers/CMSIS/Include/cmsis_gcc.h **** 
ARM GAS  C:\Users\domen\AppData\Local\Temp\ccQylUhh.s 			page 31


 760:Drivers/CMSIS/Include/cmsis_gcc.h **** 
 761:Drivers/CMSIS/Include/cmsis_gcc.h **** /**
 762:Drivers/CMSIS/Include/cmsis_gcc.h ****   \brief   Get FPSCR
 763:Drivers/CMSIS/Include/cmsis_gcc.h ****   \details Returns the current value of the Floating Point Status/Control register.
 764:Drivers/CMSIS/Include/cmsis_gcc.h ****   \return               Floating Point Status/Control register value
 765:Drivers/CMSIS/Include/cmsis_gcc.h ****  */
 766:Drivers/CMSIS/Include/cmsis_gcc.h **** __STATIC_FORCEINLINE uint32_t __get_FPSCR(void)
 767:Drivers/CMSIS/Include/cmsis_gcc.h **** {
 768:Drivers/CMSIS/Include/cmsis_gcc.h **** #if ((defined (__FPU_PRESENT) && (__FPU_PRESENT == 1U)) && \
 769:Drivers/CMSIS/Include/cmsis_gcc.h ****      (defined (__FPU_USED   ) && (__FPU_USED    == 1U))     )
 770:Drivers/CMSIS/Include/cmsis_gcc.h **** #if __has_builtin(__builtin_arm_get_fpscr) 
 771:Drivers/CMSIS/Include/cmsis_gcc.h **** // Re-enable using built-in when GCC has been fixed
 772:Drivers/CMSIS/Include/cmsis_gcc.h **** // || (__GNUC__ > 7) || (__GNUC__ == 7 && __GNUC_MINOR__ >= 2)
 773:Drivers/CMSIS/Include/cmsis_gcc.h ****   /* see https://gcc.gnu.org/ml/gcc-patches/2017-04/msg00443.html */
 774:Drivers/CMSIS/Include/cmsis_gcc.h ****   return __builtin_arm_get_fpscr();
 775:Drivers/CMSIS/Include/cmsis_gcc.h **** #else
 776:Drivers/CMSIS/Include/cmsis_gcc.h ****   uint32_t result;
 777:Drivers/CMSIS/Include/cmsis_gcc.h **** 
 778:Drivers/CMSIS/Include/cmsis_gcc.h ****   __ASM volatile ("VMRS %0, fpscr" : "=r" (result) );
 779:Drivers/CMSIS/Include/cmsis_gcc.h ****   return(result);
 780:Drivers/CMSIS/Include/cmsis_gcc.h **** #endif
 781:Drivers/CMSIS/Include/cmsis_gcc.h **** #else
 782:Drivers/CMSIS/Include/cmsis_gcc.h ****   return(0U);
 783:Drivers/CMSIS/Include/cmsis_gcc.h **** #endif
 784:Drivers/CMSIS/Include/cmsis_gcc.h **** }
 785:Drivers/CMSIS/Include/cmsis_gcc.h **** 
 786:Drivers/CMSIS/Include/cmsis_gcc.h **** 
 787:Drivers/CMSIS/Include/cmsis_gcc.h **** /**
 788:Drivers/CMSIS/Include/cmsis_gcc.h ****   \brief   Set FPSCR
 789:Drivers/CMSIS/Include/cmsis_gcc.h ****   \details Assigns the given value to the Floating Point Status/Control register.
 790:Drivers/CMSIS/Include/cmsis_gcc.h ****   \param [in]    fpscr  Floating Point Status/Control value to set
 791:Drivers/CMSIS/Include/cmsis_gcc.h ****  */
 792:Drivers/CMSIS/Include/cmsis_gcc.h **** __STATIC_FORCEINLINE void __set_FPSCR(uint32_t fpscr)
 793:Drivers/CMSIS/Include/cmsis_gcc.h **** {
 794:Drivers/CMSIS/Include/cmsis_gcc.h **** #if ((defined (__FPU_PRESENT) && (__FPU_PRESENT == 1U)) && \
 795:Drivers/CMSIS/Include/cmsis_gcc.h ****      (defined (__FPU_USED   ) && (__FPU_USED    == 1U))     )
 796:Drivers/CMSIS/Include/cmsis_gcc.h **** #if __has_builtin(__builtin_arm_set_fpscr)
 797:Drivers/CMSIS/Include/cmsis_gcc.h **** // Re-enable using built-in when GCC has been fixed
 798:Drivers/CMSIS/Include/cmsis_gcc.h **** // || (__GNUC__ > 7) || (__GNUC__ == 7 && __GNUC_MINOR__ >= 2)
 799:Drivers/CMSIS/Include/cmsis_gcc.h ****   /* see https://gcc.gnu.org/ml/gcc-patches/2017-04/msg00443.html */
 800:Drivers/CMSIS/Include/cmsis_gcc.h ****   __builtin_arm_set_fpscr(fpscr);
 801:Drivers/CMSIS/Include/cmsis_gcc.h **** #else
 802:Drivers/CMSIS/Include/cmsis_gcc.h ****   __ASM volatile ("VMSR fpscr, %0" : : "r" (fpscr) : "vfpcc", "memory");
 803:Drivers/CMSIS/Include/cmsis_gcc.h **** #endif
 804:Drivers/CMSIS/Include/cmsis_gcc.h **** #else
 805:Drivers/CMSIS/Include/cmsis_gcc.h ****   (void)fpscr;
 806:Drivers/CMSIS/Include/cmsis_gcc.h **** #endif
 807:Drivers/CMSIS/Include/cmsis_gcc.h **** }
 808:Drivers/CMSIS/Include/cmsis_gcc.h **** 
 809:Drivers/CMSIS/Include/cmsis_gcc.h **** 
 810:Drivers/CMSIS/Include/cmsis_gcc.h **** /*@} end of CMSIS_Core_RegAccFunctions */
 811:Drivers/CMSIS/Include/cmsis_gcc.h **** 
 812:Drivers/CMSIS/Include/cmsis_gcc.h **** 
 813:Drivers/CMSIS/Include/cmsis_gcc.h **** /* ##########################  Core Instruction Access  ######################### */
 814:Drivers/CMSIS/Include/cmsis_gcc.h **** /** \defgroup CMSIS_Core_InstructionInterface CMSIS Core Instruction Interface
 815:Drivers/CMSIS/Include/cmsis_gcc.h ****   Access to dedicated instructions
 816:Drivers/CMSIS/Include/cmsis_gcc.h ****   @{
ARM GAS  C:\Users\domen\AppData\Local\Temp\ccQylUhh.s 			page 32


 817:Drivers/CMSIS/Include/cmsis_gcc.h **** */
 818:Drivers/CMSIS/Include/cmsis_gcc.h **** 
 819:Drivers/CMSIS/Include/cmsis_gcc.h **** /* Define macros for porting to both thumb1 and thumb2.
 820:Drivers/CMSIS/Include/cmsis_gcc.h ****  * For thumb1, use low register (r0-r7), specified by constraint "l"
 821:Drivers/CMSIS/Include/cmsis_gcc.h ****  * Otherwise, use general registers, specified by constraint "r" */
 822:Drivers/CMSIS/Include/cmsis_gcc.h **** #if defined (__thumb__) && !defined (__thumb2__)
 823:Drivers/CMSIS/Include/cmsis_gcc.h **** #define __CMSIS_GCC_OUT_REG(r) "=l" (r)
 824:Drivers/CMSIS/Include/cmsis_gcc.h **** #define __CMSIS_GCC_RW_REG(r) "+l" (r)
 825:Drivers/CMSIS/Include/cmsis_gcc.h **** #define __CMSIS_GCC_USE_REG(r) "l" (r)
 826:Drivers/CMSIS/Include/cmsis_gcc.h **** #else
 827:Drivers/CMSIS/Include/cmsis_gcc.h **** #define __CMSIS_GCC_OUT_REG(r) "=r" (r)
 828:Drivers/CMSIS/Include/cmsis_gcc.h **** #define __CMSIS_GCC_RW_REG(r) "+r" (r)
 829:Drivers/CMSIS/Include/cmsis_gcc.h **** #define __CMSIS_GCC_USE_REG(r) "r" (r)
 830:Drivers/CMSIS/Include/cmsis_gcc.h **** #endif
 831:Drivers/CMSIS/Include/cmsis_gcc.h **** 
 832:Drivers/CMSIS/Include/cmsis_gcc.h **** /**
 833:Drivers/CMSIS/Include/cmsis_gcc.h ****   \brief   No Operation
 834:Drivers/CMSIS/Include/cmsis_gcc.h ****   \details No Operation does nothing. This instruction can be used for code alignment purposes.
 835:Drivers/CMSIS/Include/cmsis_gcc.h ****  */
 836:Drivers/CMSIS/Include/cmsis_gcc.h **** #define __NOP()                             __ASM volatile ("nop")
 837:Drivers/CMSIS/Include/cmsis_gcc.h **** 
 838:Drivers/CMSIS/Include/cmsis_gcc.h **** /**
 839:Drivers/CMSIS/Include/cmsis_gcc.h ****   \brief   Wait For Interrupt
 840:Drivers/CMSIS/Include/cmsis_gcc.h ****   \details Wait For Interrupt is a hint instruction that suspends execution until one of a number o
 841:Drivers/CMSIS/Include/cmsis_gcc.h ****  */
 842:Drivers/CMSIS/Include/cmsis_gcc.h **** #define __WFI()                             __ASM volatile ("wfi")
 843:Drivers/CMSIS/Include/cmsis_gcc.h **** 
 844:Drivers/CMSIS/Include/cmsis_gcc.h **** 
 845:Drivers/CMSIS/Include/cmsis_gcc.h **** /**
 846:Drivers/CMSIS/Include/cmsis_gcc.h ****   \brief   Wait For Event
 847:Drivers/CMSIS/Include/cmsis_gcc.h ****   \details Wait For Event is a hint instruction that permits the processor to enter
 848:Drivers/CMSIS/Include/cmsis_gcc.h ****            a low-power state until one of a number of events occurs.
 849:Drivers/CMSIS/Include/cmsis_gcc.h ****  */
 850:Drivers/CMSIS/Include/cmsis_gcc.h **** #define __WFE()                             __ASM volatile ("wfe")
 851:Drivers/CMSIS/Include/cmsis_gcc.h **** 
 852:Drivers/CMSIS/Include/cmsis_gcc.h **** 
 853:Drivers/CMSIS/Include/cmsis_gcc.h **** /**
 854:Drivers/CMSIS/Include/cmsis_gcc.h ****   \brief   Send Event
 855:Drivers/CMSIS/Include/cmsis_gcc.h ****   \details Send Event is a hint instruction. It causes an event to be signaled to the CPU.
 856:Drivers/CMSIS/Include/cmsis_gcc.h ****  */
 857:Drivers/CMSIS/Include/cmsis_gcc.h **** #define __SEV()                             __ASM volatile ("sev")
 858:Drivers/CMSIS/Include/cmsis_gcc.h **** 
 859:Drivers/CMSIS/Include/cmsis_gcc.h **** 
 860:Drivers/CMSIS/Include/cmsis_gcc.h **** /**
 861:Drivers/CMSIS/Include/cmsis_gcc.h ****   \brief   Instruction Synchronization Barrier
 862:Drivers/CMSIS/Include/cmsis_gcc.h ****   \details Instruction Synchronization Barrier flushes the pipeline in the processor,
 863:Drivers/CMSIS/Include/cmsis_gcc.h ****            so that all instructions following the ISB are fetched from cache or memory,
 864:Drivers/CMSIS/Include/cmsis_gcc.h ****            after the instruction has been completed.
 865:Drivers/CMSIS/Include/cmsis_gcc.h ****  */
 866:Drivers/CMSIS/Include/cmsis_gcc.h **** __STATIC_FORCEINLINE void __ISB(void)
 867:Drivers/CMSIS/Include/cmsis_gcc.h **** {
 868:Drivers/CMSIS/Include/cmsis_gcc.h ****   __ASM volatile ("isb 0xF":::"memory");
 869:Drivers/CMSIS/Include/cmsis_gcc.h **** }
 870:Drivers/CMSIS/Include/cmsis_gcc.h **** 
 871:Drivers/CMSIS/Include/cmsis_gcc.h **** 
 872:Drivers/CMSIS/Include/cmsis_gcc.h **** /**
 873:Drivers/CMSIS/Include/cmsis_gcc.h ****   \brief   Data Synchronization Barrier
ARM GAS  C:\Users\domen\AppData\Local\Temp\ccQylUhh.s 			page 33


 874:Drivers/CMSIS/Include/cmsis_gcc.h ****   \details Acts as a special kind of Data Memory Barrier.
 875:Drivers/CMSIS/Include/cmsis_gcc.h ****            It completes when all explicit memory accesses before this instruction complete.
 876:Drivers/CMSIS/Include/cmsis_gcc.h ****  */
 877:Drivers/CMSIS/Include/cmsis_gcc.h **** __STATIC_FORCEINLINE void __DSB(void)
 878:Drivers/CMSIS/Include/cmsis_gcc.h **** {
 879:Drivers/CMSIS/Include/cmsis_gcc.h ****   __ASM volatile ("dsb 0xF":::"memory");
 880:Drivers/CMSIS/Include/cmsis_gcc.h **** }
 881:Drivers/CMSIS/Include/cmsis_gcc.h **** 
 882:Drivers/CMSIS/Include/cmsis_gcc.h **** 
 883:Drivers/CMSIS/Include/cmsis_gcc.h **** /**
 884:Drivers/CMSIS/Include/cmsis_gcc.h ****   \brief   Data Memory Barrier
 885:Drivers/CMSIS/Include/cmsis_gcc.h ****   \details Ensures the apparent order of the explicit memory operations before
 886:Drivers/CMSIS/Include/cmsis_gcc.h ****            and after the instruction, without ensuring their completion.
 887:Drivers/CMSIS/Include/cmsis_gcc.h ****  */
 888:Drivers/CMSIS/Include/cmsis_gcc.h **** __STATIC_FORCEINLINE void __DMB(void)
 889:Drivers/CMSIS/Include/cmsis_gcc.h **** {
 890:Drivers/CMSIS/Include/cmsis_gcc.h ****   __ASM volatile ("dmb 0xF":::"memory");
 891:Drivers/CMSIS/Include/cmsis_gcc.h **** }
 892:Drivers/CMSIS/Include/cmsis_gcc.h **** 
 893:Drivers/CMSIS/Include/cmsis_gcc.h **** 
 894:Drivers/CMSIS/Include/cmsis_gcc.h **** /**
 895:Drivers/CMSIS/Include/cmsis_gcc.h ****   \brief   Reverse byte order (32 bit)
 896:Drivers/CMSIS/Include/cmsis_gcc.h ****   \details Reverses the byte order in unsigned integer value. For example, 0x12345678 becomes 0x785
 897:Drivers/CMSIS/Include/cmsis_gcc.h ****   \param [in]    value  Value to reverse
 898:Drivers/CMSIS/Include/cmsis_gcc.h ****   \return               Reversed value
 899:Drivers/CMSIS/Include/cmsis_gcc.h ****  */
 900:Drivers/CMSIS/Include/cmsis_gcc.h **** __STATIC_FORCEINLINE uint32_t __REV(uint32_t value)
 901:Drivers/CMSIS/Include/cmsis_gcc.h **** {
 902:Drivers/CMSIS/Include/cmsis_gcc.h **** #if (__GNUC__ > 4) || (__GNUC__ == 4 && __GNUC_MINOR__ >= 5)
 903:Drivers/CMSIS/Include/cmsis_gcc.h ****   return __builtin_bswap32(value);
 904:Drivers/CMSIS/Include/cmsis_gcc.h **** #else
 905:Drivers/CMSIS/Include/cmsis_gcc.h ****   uint32_t result;
 906:Drivers/CMSIS/Include/cmsis_gcc.h **** 
 907:Drivers/CMSIS/Include/cmsis_gcc.h ****   __ASM volatile ("rev %0, %1" : __CMSIS_GCC_OUT_REG (result) : __CMSIS_GCC_USE_REG (value) );
 908:Drivers/CMSIS/Include/cmsis_gcc.h ****   return result;
 909:Drivers/CMSIS/Include/cmsis_gcc.h **** #endif
 910:Drivers/CMSIS/Include/cmsis_gcc.h **** }
 911:Drivers/CMSIS/Include/cmsis_gcc.h **** 
 912:Drivers/CMSIS/Include/cmsis_gcc.h **** 
 913:Drivers/CMSIS/Include/cmsis_gcc.h **** /**
 914:Drivers/CMSIS/Include/cmsis_gcc.h ****   \brief   Reverse byte order (16 bit)
 915:Drivers/CMSIS/Include/cmsis_gcc.h ****   \details Reverses the byte order within each halfword of a word. For example, 0x12345678 becomes 
 916:Drivers/CMSIS/Include/cmsis_gcc.h ****   \param [in]    value  Value to reverse
 917:Drivers/CMSIS/Include/cmsis_gcc.h ****   \return               Reversed value
 918:Drivers/CMSIS/Include/cmsis_gcc.h ****  */
 919:Drivers/CMSIS/Include/cmsis_gcc.h **** __STATIC_FORCEINLINE uint32_t __REV16(uint32_t value)
 920:Drivers/CMSIS/Include/cmsis_gcc.h **** {
 921:Drivers/CMSIS/Include/cmsis_gcc.h ****   uint32_t result;
 922:Drivers/CMSIS/Include/cmsis_gcc.h **** 
 923:Drivers/CMSIS/Include/cmsis_gcc.h ****   __ASM volatile ("rev16 %0, %1" : __CMSIS_GCC_OUT_REG (result) : __CMSIS_GCC_USE_REG (value) );
 924:Drivers/CMSIS/Include/cmsis_gcc.h ****   return result;
 925:Drivers/CMSIS/Include/cmsis_gcc.h **** }
 926:Drivers/CMSIS/Include/cmsis_gcc.h **** 
 927:Drivers/CMSIS/Include/cmsis_gcc.h **** 
 928:Drivers/CMSIS/Include/cmsis_gcc.h **** /**
 929:Drivers/CMSIS/Include/cmsis_gcc.h ****   \brief   Reverse byte order (16 bit)
 930:Drivers/CMSIS/Include/cmsis_gcc.h ****   \details Reverses the byte order in a 16-bit value and returns the signed 16-bit result. For exam
ARM GAS  C:\Users\domen\AppData\Local\Temp\ccQylUhh.s 			page 34


 931:Drivers/CMSIS/Include/cmsis_gcc.h ****   \param [in]    value  Value to reverse
 932:Drivers/CMSIS/Include/cmsis_gcc.h ****   \return               Reversed value
 933:Drivers/CMSIS/Include/cmsis_gcc.h ****  */
 934:Drivers/CMSIS/Include/cmsis_gcc.h **** __STATIC_FORCEINLINE int16_t __REVSH(int16_t value)
 935:Drivers/CMSIS/Include/cmsis_gcc.h **** {
 936:Drivers/CMSIS/Include/cmsis_gcc.h **** #if (__GNUC__ > 4) || (__GNUC__ == 4 && __GNUC_MINOR__ >= 8)
 937:Drivers/CMSIS/Include/cmsis_gcc.h ****   return (int16_t)__builtin_bswap16(value);
 938:Drivers/CMSIS/Include/cmsis_gcc.h **** #else
 939:Drivers/CMSIS/Include/cmsis_gcc.h ****   int16_t result;
 940:Drivers/CMSIS/Include/cmsis_gcc.h **** 
 941:Drivers/CMSIS/Include/cmsis_gcc.h ****   __ASM volatile ("revsh %0, %1" : __CMSIS_GCC_OUT_REG (result) : __CMSIS_GCC_USE_REG (value) );
 942:Drivers/CMSIS/Include/cmsis_gcc.h ****   return result;
 943:Drivers/CMSIS/Include/cmsis_gcc.h **** #endif
 944:Drivers/CMSIS/Include/cmsis_gcc.h **** }
 945:Drivers/CMSIS/Include/cmsis_gcc.h **** 
 946:Drivers/CMSIS/Include/cmsis_gcc.h **** 
 947:Drivers/CMSIS/Include/cmsis_gcc.h **** /**
 948:Drivers/CMSIS/Include/cmsis_gcc.h ****   \brief   Rotate Right in unsigned value (32 bit)
 949:Drivers/CMSIS/Include/cmsis_gcc.h ****   \details Rotate Right (immediate) provides the value of the contents of a register rotated by a v
 950:Drivers/CMSIS/Include/cmsis_gcc.h ****   \param [in]    op1  Value to rotate
 951:Drivers/CMSIS/Include/cmsis_gcc.h ****   \param [in]    op2  Number of Bits to rotate
 952:Drivers/CMSIS/Include/cmsis_gcc.h ****   \return               Rotated value
 953:Drivers/CMSIS/Include/cmsis_gcc.h ****  */
 954:Drivers/CMSIS/Include/cmsis_gcc.h **** __STATIC_FORCEINLINE uint32_t __ROR(uint32_t op1, uint32_t op2)
 955:Drivers/CMSIS/Include/cmsis_gcc.h **** {
 956:Drivers/CMSIS/Include/cmsis_gcc.h ****   op2 %= 32U;
 957:Drivers/CMSIS/Include/cmsis_gcc.h ****   if (op2 == 0U)
 958:Drivers/CMSIS/Include/cmsis_gcc.h ****   {
 959:Drivers/CMSIS/Include/cmsis_gcc.h ****     return op1;
 960:Drivers/CMSIS/Include/cmsis_gcc.h ****   }
 961:Drivers/CMSIS/Include/cmsis_gcc.h ****   return (op1 >> op2) | (op1 << (32U - op2));
 962:Drivers/CMSIS/Include/cmsis_gcc.h **** }
 963:Drivers/CMSIS/Include/cmsis_gcc.h **** 
 964:Drivers/CMSIS/Include/cmsis_gcc.h **** 
 965:Drivers/CMSIS/Include/cmsis_gcc.h **** /**
 966:Drivers/CMSIS/Include/cmsis_gcc.h ****   \brief   Breakpoint
 967:Drivers/CMSIS/Include/cmsis_gcc.h ****   \details Causes the processor to enter Debug state.
 968:Drivers/CMSIS/Include/cmsis_gcc.h ****            Debug tools can use this to investigate system state when the instruction at a particula
 969:Drivers/CMSIS/Include/cmsis_gcc.h ****   \param [in]    value  is ignored by the processor.
 970:Drivers/CMSIS/Include/cmsis_gcc.h ****                  If required, a debugger can use it to store additional information about the break
 971:Drivers/CMSIS/Include/cmsis_gcc.h ****  */
 972:Drivers/CMSIS/Include/cmsis_gcc.h **** #define __BKPT(value)                       __ASM volatile ("bkpt "#value)
 973:Drivers/CMSIS/Include/cmsis_gcc.h **** 
 974:Drivers/CMSIS/Include/cmsis_gcc.h **** 
 975:Drivers/CMSIS/Include/cmsis_gcc.h **** /**
 976:Drivers/CMSIS/Include/cmsis_gcc.h ****   \brief   Reverse bit order of value
 977:Drivers/CMSIS/Include/cmsis_gcc.h ****   \details Reverses the bit order of the given value.
 978:Drivers/CMSIS/Include/cmsis_gcc.h ****   \param [in]    value  Value to reverse
 979:Drivers/CMSIS/Include/cmsis_gcc.h ****   \return               Reversed value
 980:Drivers/CMSIS/Include/cmsis_gcc.h ****  */
 981:Drivers/CMSIS/Include/cmsis_gcc.h **** __STATIC_FORCEINLINE uint32_t __RBIT(uint32_t value)
 348              		.loc 3 981 31 is_stmt 1 view .LVU80
 349              	.LBB103:
 982:Drivers/CMSIS/Include/cmsis_gcc.h **** {
 983:Drivers/CMSIS/Include/cmsis_gcc.h ****   uint32_t result;
 350              		.loc 3 983 3 view .LVU81
 984:Drivers/CMSIS/Include/cmsis_gcc.h **** 
ARM GAS  C:\Users\domen\AppData\Local\Temp\ccQylUhh.s 			page 35


 985:Drivers/CMSIS/Include/cmsis_gcc.h **** #if ((defined (__ARM_ARCH_7M__      ) && (__ARM_ARCH_7M__      == 1)) || \
 986:Drivers/CMSIS/Include/cmsis_gcc.h ****      (defined (__ARM_ARCH_7EM__     ) && (__ARM_ARCH_7EM__     == 1)) || \
 987:Drivers/CMSIS/Include/cmsis_gcc.h ****      (defined (__ARM_ARCH_8M_MAIN__ ) && (__ARM_ARCH_8M_MAIN__ == 1))    )
 988:Drivers/CMSIS/Include/cmsis_gcc.h ****    __ASM volatile ("rbit %0, %1" : "=r" (result) : "r" (value) );
 351              		.loc 3 988 4 view .LVU82
 352              		.syntax unified
 353              	@ 988 "Drivers/CMSIS/Include/cmsis_gcc.h" 1
 354 004e 96FAA6F6 		rbit r6, r6
 355              	@ 0 "" 2
 356              	.LVL21:
 989:Drivers/CMSIS/Include/cmsis_gcc.h **** #else
 990:Drivers/CMSIS/Include/cmsis_gcc.h ****   uint32_t s = (4U /*sizeof(v)*/ * 8U) - 1U; /* extra shift needed at end */
 991:Drivers/CMSIS/Include/cmsis_gcc.h **** 
 992:Drivers/CMSIS/Include/cmsis_gcc.h ****   result = value;                      /* r will be reversed bits of v; first get LSB of v */
 993:Drivers/CMSIS/Include/cmsis_gcc.h ****   for (value >>= 1U; value != 0U; value >>= 1U)
 994:Drivers/CMSIS/Include/cmsis_gcc.h ****   {
 995:Drivers/CMSIS/Include/cmsis_gcc.h ****     result <<= 1U;
 996:Drivers/CMSIS/Include/cmsis_gcc.h ****     result |= value & 1U;
 997:Drivers/CMSIS/Include/cmsis_gcc.h ****     s--;
 998:Drivers/CMSIS/Include/cmsis_gcc.h ****   }
 999:Drivers/CMSIS/Include/cmsis_gcc.h ****   result <<= s;                        /* shift when v's highest bits are zero */
1000:Drivers/CMSIS/Include/cmsis_gcc.h **** #endif
1001:Drivers/CMSIS/Include/cmsis_gcc.h ****   return result;
 357              		.loc 3 1001 3 view .LVU83
 358              		.loc 3 1001 3 is_stmt 0 view .LVU84
 359              		.thumb
 360              		.syntax unified
 361              	.LBE103:
 362              	.LBE102:
 363              		.loc 1 192 10 view .LVU85
 364 0052 B6FA86F6 		clz	r6, r6
 365              	.LVL22:
 193:Drivers/STM32L1xx_HAL_Driver/Src/stm32l1xx_ll_gpio.c **** 
 194:Drivers/STM32L1xx_HAL_Driver/Src/stm32l1xx_ll_gpio.c ****   /* Configure the port pins */
 195:Drivers/STM32L1xx_HAL_Driver/Src/stm32l1xx_ll_gpio.c ****   while (((GPIO_InitStruct->Pin) >> pinpos) != 0x00000000U)
 366              		.loc 1 195 3 is_stmt 1 view .LVU86
 367              		.loc 1 195 9 is_stmt 0 view .LVU87
 368 0056 40E0     		b	.L22
 369              	.LVL23:
 370              	.L32:
 186:Drivers/STM32L1xx_HAL_Driver/Src/stm32l1xx_ll_gpio.c ****   assert_param(IS_LL_GPIO_MODE(GPIO_InitStruct->Mode));
 371              		.loc 1 186 3 discriminator 1 view .LVU88
 372 0058 BA21     		movs	r1, #186
 373 005a 5D48     		ldr	r0, .L41+4
 374 005c FFF7FEFF 		bl	assert_failed
 375              	.LVL24:
 376 0060 EEE7     		b	.L19
 377              	.L33:
 187:Drivers/STM32L1xx_HAL_Driver/Src/stm32l1xx_ll_gpio.c ****   assert_param(IS_LL_GPIO_PULL(GPIO_InitStruct->Pull));
 378              		.loc 1 187 3 discriminator 1 view .LVU89
 379 0062 BB21     		movs	r1, #187
 380 0064 5A48     		ldr	r0, .L41+4
 381 0066 FFF7FEFF 		bl	assert_failed
 382              	.LVL25:
 383 006a ECE7     		b	.L20
 384              	.L34:
 188:Drivers/STM32L1xx_HAL_Driver/Src/stm32l1xx_ll_gpio.c **** 
ARM GAS  C:\Users\domen\AppData\Local\Temp\ccQylUhh.s 			page 36


 385              		.loc 1 188 3 discriminator 1 view .LVU90
 386 006c BC21     		movs	r1, #188
 387 006e 5848     		ldr	r0, .L41+4
 388 0070 FFF7FEFF 		bl	assert_failed
 389              	.LVL26:
 390 0074 EAE7     		b	.L21
 391              	.LVL27:
 392              	.L37:
 196:Drivers/STM32L1xx_HAL_Driver/Src/stm32l1xx_ll_gpio.c ****   {
 197:Drivers/STM32L1xx_HAL_Driver/Src/stm32l1xx_ll_gpio.c ****     /* Get current io position */
 198:Drivers/STM32L1xx_HAL_Driver/Src/stm32l1xx_ll_gpio.c ****     currentpin = (GPIO_InitStruct->Pin) & (0x00000001U << pinpos);
 199:Drivers/STM32L1xx_HAL_Driver/Src/stm32l1xx_ll_gpio.c **** 
 200:Drivers/STM32L1xx_HAL_Driver/Src/stm32l1xx_ll_gpio.c ****     if (currentpin)
 201:Drivers/STM32L1xx_HAL_Driver/Src/stm32l1xx_ll_gpio.c ****     {
 202:Drivers/STM32L1xx_HAL_Driver/Src/stm32l1xx_ll_gpio.c ****       /* Pin Mode configuration */
 203:Drivers/STM32L1xx_HAL_Driver/Src/stm32l1xx_ll_gpio.c ****       LL_GPIO_SetPinMode(GPIOx, currentpin, GPIO_InitStruct->Mode);
 204:Drivers/STM32L1xx_HAL_Driver/Src/stm32l1xx_ll_gpio.c **** 
 205:Drivers/STM32L1xx_HAL_Driver/Src/stm32l1xx_ll_gpio.c ****       if ((GPIO_InitStruct->Mode == LL_GPIO_MODE_OUTPUT) || (GPIO_InitStruct->Mode == LL_GPIO_MODE_
 206:Drivers/STM32L1xx_HAL_Driver/Src/stm32l1xx_ll_gpio.c ****       {
 207:Drivers/STM32L1xx_HAL_Driver/Src/stm32l1xx_ll_gpio.c ****         /* Check Speed mode parameters */
 208:Drivers/STM32L1xx_HAL_Driver/Src/stm32l1xx_ll_gpio.c ****         assert_param(IS_LL_GPIO_SPEED(GPIO_InitStruct->Speed));
 393              		.loc 1 208 9 discriminator 1 view .LVU91
 394 0076 D021     		movs	r1, #208
 395 0078 5548     		ldr	r0, .L41+4
 396 007a FFF7FEFF 		bl	assert_failed
 397              	.LVL28:
 398              	.L25:
 209:Drivers/STM32L1xx_HAL_Driver/Src/stm32l1xx_ll_gpio.c **** 
 210:Drivers/STM32L1xx_HAL_Driver/Src/stm32l1xx_ll_gpio.c ****         /* Speed mode configuration */
 211:Drivers/STM32L1xx_HAL_Driver/Src/stm32l1xx_ll_gpio.c ****         LL_GPIO_SetPinSpeed(GPIOx, currentpin, GPIO_InitStruct->Speed);
 399              		.loc 1 211 9 is_stmt 1 view .LVU92
 400 007e A968     		ldr	r1, [r5, #8]
 401              	.LVL29:
 402              	.LBB104:
 403              	.LBI104:
 404              		.file 4 "Drivers/STM32L1xx_HAL_Driver/Inc/stm32l1xx_ll_gpio.h"
   1:Drivers/STM32L1xx_HAL_Driver/Inc/stm32l1xx_ll_gpio.h **** /**
   2:Drivers/STM32L1xx_HAL_Driver/Inc/stm32l1xx_ll_gpio.h ****   ******************************************************************************
   3:Drivers/STM32L1xx_HAL_Driver/Inc/stm32l1xx_ll_gpio.h ****   * @file    stm32l1xx_ll_gpio.h
   4:Drivers/STM32L1xx_HAL_Driver/Inc/stm32l1xx_ll_gpio.h ****   * @author  MCD Application Team
   5:Drivers/STM32L1xx_HAL_Driver/Inc/stm32l1xx_ll_gpio.h ****   * @brief   Header file of GPIO LL module.
   6:Drivers/STM32L1xx_HAL_Driver/Inc/stm32l1xx_ll_gpio.h ****   ******************************************************************************
   7:Drivers/STM32L1xx_HAL_Driver/Inc/stm32l1xx_ll_gpio.h ****   * @attention
   8:Drivers/STM32L1xx_HAL_Driver/Inc/stm32l1xx_ll_gpio.h ****   *
   9:Drivers/STM32L1xx_HAL_Driver/Inc/stm32l1xx_ll_gpio.h ****   * <h2><center>&copy; Copyright (c) 2017 STMicroelectronics.
  10:Drivers/STM32L1xx_HAL_Driver/Inc/stm32l1xx_ll_gpio.h ****   * All rights reserved.</center></h2>
  11:Drivers/STM32L1xx_HAL_Driver/Inc/stm32l1xx_ll_gpio.h ****   *
  12:Drivers/STM32L1xx_HAL_Driver/Inc/stm32l1xx_ll_gpio.h ****   * This software component is licensed by ST under BSD 3-Clause license,
  13:Drivers/STM32L1xx_HAL_Driver/Inc/stm32l1xx_ll_gpio.h ****   * the "License"; You may not use this file except in compliance with the
  14:Drivers/STM32L1xx_HAL_Driver/Inc/stm32l1xx_ll_gpio.h ****   * License. You may obtain a copy of the License at:
  15:Drivers/STM32L1xx_HAL_Driver/Inc/stm32l1xx_ll_gpio.h ****   *                        opensource.org/licenses/BSD-3-Clause
  16:Drivers/STM32L1xx_HAL_Driver/Inc/stm32l1xx_ll_gpio.h ****   *
  17:Drivers/STM32L1xx_HAL_Driver/Inc/stm32l1xx_ll_gpio.h ****   ******************************************************************************
  18:Drivers/STM32L1xx_HAL_Driver/Inc/stm32l1xx_ll_gpio.h ****   */
  19:Drivers/STM32L1xx_HAL_Driver/Inc/stm32l1xx_ll_gpio.h **** 
  20:Drivers/STM32L1xx_HAL_Driver/Inc/stm32l1xx_ll_gpio.h **** /* Define to prevent recursive inclusion -------------------------------------*/
  21:Drivers/STM32L1xx_HAL_Driver/Inc/stm32l1xx_ll_gpio.h **** #ifndef __STM32L1xx_LL_GPIO_H
ARM GAS  C:\Users\domen\AppData\Local\Temp\ccQylUhh.s 			page 37


  22:Drivers/STM32L1xx_HAL_Driver/Inc/stm32l1xx_ll_gpio.h **** #define __STM32L1xx_LL_GPIO_H
  23:Drivers/STM32L1xx_HAL_Driver/Inc/stm32l1xx_ll_gpio.h **** 
  24:Drivers/STM32L1xx_HAL_Driver/Inc/stm32l1xx_ll_gpio.h **** #ifdef __cplusplus
  25:Drivers/STM32L1xx_HAL_Driver/Inc/stm32l1xx_ll_gpio.h **** extern "C" {
  26:Drivers/STM32L1xx_HAL_Driver/Inc/stm32l1xx_ll_gpio.h **** #endif
  27:Drivers/STM32L1xx_HAL_Driver/Inc/stm32l1xx_ll_gpio.h **** 
  28:Drivers/STM32L1xx_HAL_Driver/Inc/stm32l1xx_ll_gpio.h **** /* Includes ------------------------------------------------------------------*/
  29:Drivers/STM32L1xx_HAL_Driver/Inc/stm32l1xx_ll_gpio.h **** #include "stm32l1xx.h"
  30:Drivers/STM32L1xx_HAL_Driver/Inc/stm32l1xx_ll_gpio.h **** 
  31:Drivers/STM32L1xx_HAL_Driver/Inc/stm32l1xx_ll_gpio.h **** /** @addtogroup STM32L1xx_LL_Driver
  32:Drivers/STM32L1xx_HAL_Driver/Inc/stm32l1xx_ll_gpio.h ****   * @{
  33:Drivers/STM32L1xx_HAL_Driver/Inc/stm32l1xx_ll_gpio.h ****   */
  34:Drivers/STM32L1xx_HAL_Driver/Inc/stm32l1xx_ll_gpio.h **** 
  35:Drivers/STM32L1xx_HAL_Driver/Inc/stm32l1xx_ll_gpio.h **** #if defined (GPIOA) || defined (GPIOB) || defined (GPIOC) || defined (GPIOD) || defined (GPIOE) || 
  36:Drivers/STM32L1xx_HAL_Driver/Inc/stm32l1xx_ll_gpio.h **** 
  37:Drivers/STM32L1xx_HAL_Driver/Inc/stm32l1xx_ll_gpio.h **** /** @defgroup GPIO_LL GPIO
  38:Drivers/STM32L1xx_HAL_Driver/Inc/stm32l1xx_ll_gpio.h ****   * @{
  39:Drivers/STM32L1xx_HAL_Driver/Inc/stm32l1xx_ll_gpio.h ****   */
  40:Drivers/STM32L1xx_HAL_Driver/Inc/stm32l1xx_ll_gpio.h **** 
  41:Drivers/STM32L1xx_HAL_Driver/Inc/stm32l1xx_ll_gpio.h **** /* Private types -------------------------------------------------------------*/
  42:Drivers/STM32L1xx_HAL_Driver/Inc/stm32l1xx_ll_gpio.h **** /* Private variables ---------------------------------------------------------*/
  43:Drivers/STM32L1xx_HAL_Driver/Inc/stm32l1xx_ll_gpio.h **** /* Private constants ---------------------------------------------------------*/
  44:Drivers/STM32L1xx_HAL_Driver/Inc/stm32l1xx_ll_gpio.h **** /* Private macros ------------------------------------------------------------*/
  45:Drivers/STM32L1xx_HAL_Driver/Inc/stm32l1xx_ll_gpio.h **** #if defined(USE_FULL_LL_DRIVER)
  46:Drivers/STM32L1xx_HAL_Driver/Inc/stm32l1xx_ll_gpio.h **** /** @defgroup GPIO_LL_Private_Macros GPIO Private Macros
  47:Drivers/STM32L1xx_HAL_Driver/Inc/stm32l1xx_ll_gpio.h ****   * @{
  48:Drivers/STM32L1xx_HAL_Driver/Inc/stm32l1xx_ll_gpio.h ****   */
  49:Drivers/STM32L1xx_HAL_Driver/Inc/stm32l1xx_ll_gpio.h **** 
  50:Drivers/STM32L1xx_HAL_Driver/Inc/stm32l1xx_ll_gpio.h **** /**
  51:Drivers/STM32L1xx_HAL_Driver/Inc/stm32l1xx_ll_gpio.h ****   * @}
  52:Drivers/STM32L1xx_HAL_Driver/Inc/stm32l1xx_ll_gpio.h ****   */
  53:Drivers/STM32L1xx_HAL_Driver/Inc/stm32l1xx_ll_gpio.h **** #endif /*USE_FULL_LL_DRIVER*/
  54:Drivers/STM32L1xx_HAL_Driver/Inc/stm32l1xx_ll_gpio.h **** 
  55:Drivers/STM32L1xx_HAL_Driver/Inc/stm32l1xx_ll_gpio.h **** /* Exported types ------------------------------------------------------------*/
  56:Drivers/STM32L1xx_HAL_Driver/Inc/stm32l1xx_ll_gpio.h **** #if defined(USE_FULL_LL_DRIVER)
  57:Drivers/STM32L1xx_HAL_Driver/Inc/stm32l1xx_ll_gpio.h **** /** @defgroup GPIO_LL_ES_INIT GPIO Exported Init structures
  58:Drivers/STM32L1xx_HAL_Driver/Inc/stm32l1xx_ll_gpio.h ****   * @{
  59:Drivers/STM32L1xx_HAL_Driver/Inc/stm32l1xx_ll_gpio.h ****   */
  60:Drivers/STM32L1xx_HAL_Driver/Inc/stm32l1xx_ll_gpio.h **** 
  61:Drivers/STM32L1xx_HAL_Driver/Inc/stm32l1xx_ll_gpio.h **** /**
  62:Drivers/STM32L1xx_HAL_Driver/Inc/stm32l1xx_ll_gpio.h ****   * @brief LL GPIO Init Structure definition
  63:Drivers/STM32L1xx_HAL_Driver/Inc/stm32l1xx_ll_gpio.h ****   */
  64:Drivers/STM32L1xx_HAL_Driver/Inc/stm32l1xx_ll_gpio.h **** typedef struct
  65:Drivers/STM32L1xx_HAL_Driver/Inc/stm32l1xx_ll_gpio.h **** {
  66:Drivers/STM32L1xx_HAL_Driver/Inc/stm32l1xx_ll_gpio.h ****   uint32_t Pin;          /*!< Specifies the GPIO pins to be configured.
  67:Drivers/STM32L1xx_HAL_Driver/Inc/stm32l1xx_ll_gpio.h ****                               This parameter can be any value of @ref GPIO_LL_EC_PIN */
  68:Drivers/STM32L1xx_HAL_Driver/Inc/stm32l1xx_ll_gpio.h **** 
  69:Drivers/STM32L1xx_HAL_Driver/Inc/stm32l1xx_ll_gpio.h ****   uint32_t Mode;         /*!< Specifies the operating mode for the selected pins.
  70:Drivers/STM32L1xx_HAL_Driver/Inc/stm32l1xx_ll_gpio.h ****                               This parameter can be a value of @ref GPIO_LL_EC_MODE.
  71:Drivers/STM32L1xx_HAL_Driver/Inc/stm32l1xx_ll_gpio.h **** 
  72:Drivers/STM32L1xx_HAL_Driver/Inc/stm32l1xx_ll_gpio.h ****                               GPIO HW configuration can be modified afterwards using unitary functi
  73:Drivers/STM32L1xx_HAL_Driver/Inc/stm32l1xx_ll_gpio.h **** 
  74:Drivers/STM32L1xx_HAL_Driver/Inc/stm32l1xx_ll_gpio.h ****   uint32_t Speed;        /*!< Specifies the speed for the selected pins.
  75:Drivers/STM32L1xx_HAL_Driver/Inc/stm32l1xx_ll_gpio.h ****                               This parameter can be a value of @ref GPIO_LL_EC_SPEED.
  76:Drivers/STM32L1xx_HAL_Driver/Inc/stm32l1xx_ll_gpio.h **** 
  77:Drivers/STM32L1xx_HAL_Driver/Inc/stm32l1xx_ll_gpio.h ****                               GPIO HW configuration can be modified afterwards using unitary functi
  78:Drivers/STM32L1xx_HAL_Driver/Inc/stm32l1xx_ll_gpio.h **** 
ARM GAS  C:\Users\domen\AppData\Local\Temp\ccQylUhh.s 			page 38


  79:Drivers/STM32L1xx_HAL_Driver/Inc/stm32l1xx_ll_gpio.h ****   uint32_t OutputType;   /*!< Specifies the operating output type for the selected pins.
  80:Drivers/STM32L1xx_HAL_Driver/Inc/stm32l1xx_ll_gpio.h ****                               This parameter can be a value of @ref GPIO_LL_EC_OUTPUT.
  81:Drivers/STM32L1xx_HAL_Driver/Inc/stm32l1xx_ll_gpio.h **** 
  82:Drivers/STM32L1xx_HAL_Driver/Inc/stm32l1xx_ll_gpio.h ****                               GPIO HW configuration can be modified afterwards using unitary functi
  83:Drivers/STM32L1xx_HAL_Driver/Inc/stm32l1xx_ll_gpio.h **** 
  84:Drivers/STM32L1xx_HAL_Driver/Inc/stm32l1xx_ll_gpio.h ****   uint32_t Pull;         /*!< Specifies the operating Pull-up/Pull down for the selected pins.
  85:Drivers/STM32L1xx_HAL_Driver/Inc/stm32l1xx_ll_gpio.h ****                               This parameter can be a value of @ref GPIO_LL_EC_PULL.
  86:Drivers/STM32L1xx_HAL_Driver/Inc/stm32l1xx_ll_gpio.h **** 
  87:Drivers/STM32L1xx_HAL_Driver/Inc/stm32l1xx_ll_gpio.h ****                               GPIO HW configuration can be modified afterwards using unitary functi
  88:Drivers/STM32L1xx_HAL_Driver/Inc/stm32l1xx_ll_gpio.h **** 
  89:Drivers/STM32L1xx_HAL_Driver/Inc/stm32l1xx_ll_gpio.h ****   uint32_t Alternate;    /*!< Specifies the Peripheral to be connected to the selected pins.
  90:Drivers/STM32L1xx_HAL_Driver/Inc/stm32l1xx_ll_gpio.h ****                               This parameter can be a value of @ref GPIO_LL_EC_AF.
  91:Drivers/STM32L1xx_HAL_Driver/Inc/stm32l1xx_ll_gpio.h **** 
  92:Drivers/STM32L1xx_HAL_Driver/Inc/stm32l1xx_ll_gpio.h ****                               GPIO HW configuration can be modified afterwards using unitary functi
  93:Drivers/STM32L1xx_HAL_Driver/Inc/stm32l1xx_ll_gpio.h **** } LL_GPIO_InitTypeDef;
  94:Drivers/STM32L1xx_HAL_Driver/Inc/stm32l1xx_ll_gpio.h **** 
  95:Drivers/STM32L1xx_HAL_Driver/Inc/stm32l1xx_ll_gpio.h **** /**
  96:Drivers/STM32L1xx_HAL_Driver/Inc/stm32l1xx_ll_gpio.h ****   * @}
  97:Drivers/STM32L1xx_HAL_Driver/Inc/stm32l1xx_ll_gpio.h ****   */
  98:Drivers/STM32L1xx_HAL_Driver/Inc/stm32l1xx_ll_gpio.h **** #endif /* USE_FULL_LL_DRIVER */
  99:Drivers/STM32L1xx_HAL_Driver/Inc/stm32l1xx_ll_gpio.h **** 
 100:Drivers/STM32L1xx_HAL_Driver/Inc/stm32l1xx_ll_gpio.h **** /* Exported constants --------------------------------------------------------*/
 101:Drivers/STM32L1xx_HAL_Driver/Inc/stm32l1xx_ll_gpio.h **** /** @defgroup GPIO_LL_Exported_Constants GPIO Exported Constants
 102:Drivers/STM32L1xx_HAL_Driver/Inc/stm32l1xx_ll_gpio.h ****   * @{
 103:Drivers/STM32L1xx_HAL_Driver/Inc/stm32l1xx_ll_gpio.h ****   */
 104:Drivers/STM32L1xx_HAL_Driver/Inc/stm32l1xx_ll_gpio.h **** 
 105:Drivers/STM32L1xx_HAL_Driver/Inc/stm32l1xx_ll_gpio.h **** /** @defgroup GPIO_LL_EC_PIN PIN
 106:Drivers/STM32L1xx_HAL_Driver/Inc/stm32l1xx_ll_gpio.h ****   * @{
 107:Drivers/STM32L1xx_HAL_Driver/Inc/stm32l1xx_ll_gpio.h ****   */
 108:Drivers/STM32L1xx_HAL_Driver/Inc/stm32l1xx_ll_gpio.h **** #define LL_GPIO_PIN_0                      GPIO_BSRR_BS_0 /*!< Select pin 0 */
 109:Drivers/STM32L1xx_HAL_Driver/Inc/stm32l1xx_ll_gpio.h **** #define LL_GPIO_PIN_1                      GPIO_BSRR_BS_1 /*!< Select pin 1 */
 110:Drivers/STM32L1xx_HAL_Driver/Inc/stm32l1xx_ll_gpio.h **** #define LL_GPIO_PIN_2                      GPIO_BSRR_BS_2 /*!< Select pin 2 */
 111:Drivers/STM32L1xx_HAL_Driver/Inc/stm32l1xx_ll_gpio.h **** #define LL_GPIO_PIN_3                      GPIO_BSRR_BS_3 /*!< Select pin 3 */
 112:Drivers/STM32L1xx_HAL_Driver/Inc/stm32l1xx_ll_gpio.h **** #define LL_GPIO_PIN_4                      GPIO_BSRR_BS_4 /*!< Select pin 4 */
 113:Drivers/STM32L1xx_HAL_Driver/Inc/stm32l1xx_ll_gpio.h **** #define LL_GPIO_PIN_5                      GPIO_BSRR_BS_5 /*!< Select pin 5 */
 114:Drivers/STM32L1xx_HAL_Driver/Inc/stm32l1xx_ll_gpio.h **** #define LL_GPIO_PIN_6                      GPIO_BSRR_BS_6 /*!< Select pin 6 */
 115:Drivers/STM32L1xx_HAL_Driver/Inc/stm32l1xx_ll_gpio.h **** #define LL_GPIO_PIN_7                      GPIO_BSRR_BS_7 /*!< Select pin 7 */
 116:Drivers/STM32L1xx_HAL_Driver/Inc/stm32l1xx_ll_gpio.h **** #define LL_GPIO_PIN_8                      GPIO_BSRR_BS_8 /*!< Select pin 8 */
 117:Drivers/STM32L1xx_HAL_Driver/Inc/stm32l1xx_ll_gpio.h **** #define LL_GPIO_PIN_9                      GPIO_BSRR_BS_9 /*!< Select pin 9 */
 118:Drivers/STM32L1xx_HAL_Driver/Inc/stm32l1xx_ll_gpio.h **** #define LL_GPIO_PIN_10                     GPIO_BSRR_BS_10 /*!< Select pin 10 */
 119:Drivers/STM32L1xx_HAL_Driver/Inc/stm32l1xx_ll_gpio.h **** #define LL_GPIO_PIN_11                     GPIO_BSRR_BS_11 /*!< Select pin 11 */
 120:Drivers/STM32L1xx_HAL_Driver/Inc/stm32l1xx_ll_gpio.h **** #define LL_GPIO_PIN_12                     GPIO_BSRR_BS_12 /*!< Select pin 12 */
 121:Drivers/STM32L1xx_HAL_Driver/Inc/stm32l1xx_ll_gpio.h **** #define LL_GPIO_PIN_13                     GPIO_BSRR_BS_13 /*!< Select pin 13 */
 122:Drivers/STM32L1xx_HAL_Driver/Inc/stm32l1xx_ll_gpio.h **** #define LL_GPIO_PIN_14                     GPIO_BSRR_BS_14 /*!< Select pin 14 */
 123:Drivers/STM32L1xx_HAL_Driver/Inc/stm32l1xx_ll_gpio.h **** #define LL_GPIO_PIN_15                     GPIO_BSRR_BS_15 /*!< Select pin 15 */
 124:Drivers/STM32L1xx_HAL_Driver/Inc/stm32l1xx_ll_gpio.h **** #define LL_GPIO_PIN_ALL                    (GPIO_BSRR_BS_0 | GPIO_BSRR_BS_1  | GPIO_BSRR_BS_2  | \
 125:Drivers/STM32L1xx_HAL_Driver/Inc/stm32l1xx_ll_gpio.h ****                                            GPIO_BSRR_BS_3  | GPIO_BSRR_BS_4  | GPIO_BSRR_BS_5  | \
 126:Drivers/STM32L1xx_HAL_Driver/Inc/stm32l1xx_ll_gpio.h ****                                            GPIO_BSRR_BS_6  | GPIO_BSRR_BS_7  | GPIO_BSRR_BS_8  | \
 127:Drivers/STM32L1xx_HAL_Driver/Inc/stm32l1xx_ll_gpio.h ****                                            GPIO_BSRR_BS_9  | GPIO_BSRR_BS_10 | GPIO_BSRR_BS_11 | \
 128:Drivers/STM32L1xx_HAL_Driver/Inc/stm32l1xx_ll_gpio.h ****                                            GPIO_BSRR_BS_12 | GPIO_BSRR_BS_13 | GPIO_BSRR_BS_14 | \
 129:Drivers/STM32L1xx_HAL_Driver/Inc/stm32l1xx_ll_gpio.h ****                                            GPIO_BSRR_BS_15) /*!< Select all pins */
 130:Drivers/STM32L1xx_HAL_Driver/Inc/stm32l1xx_ll_gpio.h **** /**
 131:Drivers/STM32L1xx_HAL_Driver/Inc/stm32l1xx_ll_gpio.h ****   * @}
 132:Drivers/STM32L1xx_HAL_Driver/Inc/stm32l1xx_ll_gpio.h ****   */
 133:Drivers/STM32L1xx_HAL_Driver/Inc/stm32l1xx_ll_gpio.h **** 
 134:Drivers/STM32L1xx_HAL_Driver/Inc/stm32l1xx_ll_gpio.h **** /** @defgroup GPIO_LL_EC_MODE Mode
 135:Drivers/STM32L1xx_HAL_Driver/Inc/stm32l1xx_ll_gpio.h ****   * @{
ARM GAS  C:\Users\domen\AppData\Local\Temp\ccQylUhh.s 			page 39


 136:Drivers/STM32L1xx_HAL_Driver/Inc/stm32l1xx_ll_gpio.h ****   */
 137:Drivers/STM32L1xx_HAL_Driver/Inc/stm32l1xx_ll_gpio.h **** #define LL_GPIO_MODE_INPUT                 (0x00000000U) /*!< Select input mode */
 138:Drivers/STM32L1xx_HAL_Driver/Inc/stm32l1xx_ll_gpio.h **** #define LL_GPIO_MODE_OUTPUT                GPIO_MODER_MODER0_0  /*!< Select output mode */
 139:Drivers/STM32L1xx_HAL_Driver/Inc/stm32l1xx_ll_gpio.h **** #define LL_GPIO_MODE_ALTERNATE             GPIO_MODER_MODER0_1  /*!< Select alternate function mode
 140:Drivers/STM32L1xx_HAL_Driver/Inc/stm32l1xx_ll_gpio.h **** #define LL_GPIO_MODE_ANALOG                GPIO_MODER_MODER0    /*!< Select analog mode */
 141:Drivers/STM32L1xx_HAL_Driver/Inc/stm32l1xx_ll_gpio.h **** /**
 142:Drivers/STM32L1xx_HAL_Driver/Inc/stm32l1xx_ll_gpio.h ****   * @}
 143:Drivers/STM32L1xx_HAL_Driver/Inc/stm32l1xx_ll_gpio.h ****   */
 144:Drivers/STM32L1xx_HAL_Driver/Inc/stm32l1xx_ll_gpio.h **** 
 145:Drivers/STM32L1xx_HAL_Driver/Inc/stm32l1xx_ll_gpio.h **** /** @defgroup GPIO_LL_EC_OUTPUT Output Type
 146:Drivers/STM32L1xx_HAL_Driver/Inc/stm32l1xx_ll_gpio.h ****   * @{
 147:Drivers/STM32L1xx_HAL_Driver/Inc/stm32l1xx_ll_gpio.h ****   */
 148:Drivers/STM32L1xx_HAL_Driver/Inc/stm32l1xx_ll_gpio.h **** #define LL_GPIO_OUTPUT_PUSHPULL            (0x00000000U) /*!< Select push-pull as output type */
 149:Drivers/STM32L1xx_HAL_Driver/Inc/stm32l1xx_ll_gpio.h **** #define LL_GPIO_OUTPUT_OPENDRAIN           GPIO_OTYPER_OT_0 /*!< Select open-drain as output type *
 150:Drivers/STM32L1xx_HAL_Driver/Inc/stm32l1xx_ll_gpio.h **** /**
 151:Drivers/STM32L1xx_HAL_Driver/Inc/stm32l1xx_ll_gpio.h ****   * @}
 152:Drivers/STM32L1xx_HAL_Driver/Inc/stm32l1xx_ll_gpio.h ****   */
 153:Drivers/STM32L1xx_HAL_Driver/Inc/stm32l1xx_ll_gpio.h **** 
 154:Drivers/STM32L1xx_HAL_Driver/Inc/stm32l1xx_ll_gpio.h **** /** @defgroup GPIO_LL_EC_SPEED Output Speed
 155:Drivers/STM32L1xx_HAL_Driver/Inc/stm32l1xx_ll_gpio.h ****   * @{
 156:Drivers/STM32L1xx_HAL_Driver/Inc/stm32l1xx_ll_gpio.h ****   */
 157:Drivers/STM32L1xx_HAL_Driver/Inc/stm32l1xx_ll_gpio.h **** #define LL_GPIO_SPEED_FREQ_LOW             (0x00000000U) /*!< Select I/O low output speed    */
 158:Drivers/STM32L1xx_HAL_Driver/Inc/stm32l1xx_ll_gpio.h **** #define LL_GPIO_SPEED_FREQ_MEDIUM          GPIO_OSPEEDER_OSPEEDR0_0 /*!< Select I/O medium output s
 159:Drivers/STM32L1xx_HAL_Driver/Inc/stm32l1xx_ll_gpio.h **** #define LL_GPIO_SPEED_FREQ_HIGH            GPIO_OSPEEDER_OSPEEDR0_1 /*!< Select I/O fast output spe
 160:Drivers/STM32L1xx_HAL_Driver/Inc/stm32l1xx_ll_gpio.h **** #define LL_GPIO_SPEED_FREQ_VERY_HIGH       GPIO_OSPEEDER_OSPEEDR0   /*!< Select I/O high output spe
 161:Drivers/STM32L1xx_HAL_Driver/Inc/stm32l1xx_ll_gpio.h **** /**
 162:Drivers/STM32L1xx_HAL_Driver/Inc/stm32l1xx_ll_gpio.h ****   * @}
 163:Drivers/STM32L1xx_HAL_Driver/Inc/stm32l1xx_ll_gpio.h ****   */
 164:Drivers/STM32L1xx_HAL_Driver/Inc/stm32l1xx_ll_gpio.h **** 
 165:Drivers/STM32L1xx_HAL_Driver/Inc/stm32l1xx_ll_gpio.h **** /** @defgroup GPIO_LL_EC_PULL Pull Up Pull Down
 166:Drivers/STM32L1xx_HAL_Driver/Inc/stm32l1xx_ll_gpio.h ****   * @{
 167:Drivers/STM32L1xx_HAL_Driver/Inc/stm32l1xx_ll_gpio.h ****   */
 168:Drivers/STM32L1xx_HAL_Driver/Inc/stm32l1xx_ll_gpio.h **** #define LL_GPIO_PULL_NO                    (0x00000000U) /*!< Select I/O no pull */
 169:Drivers/STM32L1xx_HAL_Driver/Inc/stm32l1xx_ll_gpio.h **** #define LL_GPIO_PULL_UP                    GPIO_PUPDR_PUPDR0_0 /*!< Select I/O pull up */
 170:Drivers/STM32L1xx_HAL_Driver/Inc/stm32l1xx_ll_gpio.h **** #define LL_GPIO_PULL_DOWN                  GPIO_PUPDR_PUPDR0_1 /*!< Select I/O pull down */
 171:Drivers/STM32L1xx_HAL_Driver/Inc/stm32l1xx_ll_gpio.h **** /**
 172:Drivers/STM32L1xx_HAL_Driver/Inc/stm32l1xx_ll_gpio.h ****   * @}
 173:Drivers/STM32L1xx_HAL_Driver/Inc/stm32l1xx_ll_gpio.h ****   */
 174:Drivers/STM32L1xx_HAL_Driver/Inc/stm32l1xx_ll_gpio.h **** 
 175:Drivers/STM32L1xx_HAL_Driver/Inc/stm32l1xx_ll_gpio.h **** /** @defgroup GPIO_LL_EC_AF Alternate Function
 176:Drivers/STM32L1xx_HAL_Driver/Inc/stm32l1xx_ll_gpio.h ****   * @{
 177:Drivers/STM32L1xx_HAL_Driver/Inc/stm32l1xx_ll_gpio.h ****   */
 178:Drivers/STM32L1xx_HAL_Driver/Inc/stm32l1xx_ll_gpio.h **** #define LL_GPIO_AF_0                       (0x0000000U) /*!< Select alternate function 0 */
 179:Drivers/STM32L1xx_HAL_Driver/Inc/stm32l1xx_ll_gpio.h **** #define LL_GPIO_AF_1                       (0x0000001U) /*!< Select alternate function 1 */
 180:Drivers/STM32L1xx_HAL_Driver/Inc/stm32l1xx_ll_gpio.h **** #define LL_GPIO_AF_2                       (0x0000002U) /*!< Select alternate function 2 */
 181:Drivers/STM32L1xx_HAL_Driver/Inc/stm32l1xx_ll_gpio.h **** #define LL_GPIO_AF_3                       (0x0000003U) /*!< Select alternate function 3 */
 182:Drivers/STM32L1xx_HAL_Driver/Inc/stm32l1xx_ll_gpio.h **** #define LL_GPIO_AF_4                       (0x0000004U) /*!< Select alternate function 4 */
 183:Drivers/STM32L1xx_HAL_Driver/Inc/stm32l1xx_ll_gpio.h **** #define LL_GPIO_AF_5                       (0x0000005U) /*!< Select alternate function 5 */
 184:Drivers/STM32L1xx_HAL_Driver/Inc/stm32l1xx_ll_gpio.h **** #define LL_GPIO_AF_6                       (0x0000006U) /*!< Select alternate function 6 */
 185:Drivers/STM32L1xx_HAL_Driver/Inc/stm32l1xx_ll_gpio.h **** #define LL_GPIO_AF_7                       (0x0000007U) /*!< Select alternate function 7 */
 186:Drivers/STM32L1xx_HAL_Driver/Inc/stm32l1xx_ll_gpio.h **** #define LL_GPIO_AF_8                       (0x0000008U) /*!< Select alternate function 8 */
 187:Drivers/STM32L1xx_HAL_Driver/Inc/stm32l1xx_ll_gpio.h **** #define LL_GPIO_AF_9                       (0x0000009U) /*!< Select alternate function 9 */
 188:Drivers/STM32L1xx_HAL_Driver/Inc/stm32l1xx_ll_gpio.h **** #define LL_GPIO_AF_10                      (0x000000AU) /*!< Select alternate function 10 */
 189:Drivers/STM32L1xx_HAL_Driver/Inc/stm32l1xx_ll_gpio.h **** #define LL_GPIO_AF_11                      (0x000000BU) /*!< Select alternate function 11 */
 190:Drivers/STM32L1xx_HAL_Driver/Inc/stm32l1xx_ll_gpio.h **** #define LL_GPIO_AF_12                      (0x000000CU) /*!< Select alternate function 12 */
 191:Drivers/STM32L1xx_HAL_Driver/Inc/stm32l1xx_ll_gpio.h **** #define LL_GPIO_AF_13                      (0x000000DU) /*!< Select alternate function 13 */
 192:Drivers/STM32L1xx_HAL_Driver/Inc/stm32l1xx_ll_gpio.h **** #define LL_GPIO_AF_14                      (0x000000EU) /*!< Select alternate function 14 */
ARM GAS  C:\Users\domen\AppData\Local\Temp\ccQylUhh.s 			page 40


 193:Drivers/STM32L1xx_HAL_Driver/Inc/stm32l1xx_ll_gpio.h **** #define LL_GPIO_AF_15                      (0x000000FU) /*!< Select alternate function 15 */
 194:Drivers/STM32L1xx_HAL_Driver/Inc/stm32l1xx_ll_gpio.h **** /**
 195:Drivers/STM32L1xx_HAL_Driver/Inc/stm32l1xx_ll_gpio.h ****   * @}
 196:Drivers/STM32L1xx_HAL_Driver/Inc/stm32l1xx_ll_gpio.h ****   */
 197:Drivers/STM32L1xx_HAL_Driver/Inc/stm32l1xx_ll_gpio.h **** 
 198:Drivers/STM32L1xx_HAL_Driver/Inc/stm32l1xx_ll_gpio.h **** /**
 199:Drivers/STM32L1xx_HAL_Driver/Inc/stm32l1xx_ll_gpio.h ****   * @}
 200:Drivers/STM32L1xx_HAL_Driver/Inc/stm32l1xx_ll_gpio.h ****   */
 201:Drivers/STM32L1xx_HAL_Driver/Inc/stm32l1xx_ll_gpio.h **** 
 202:Drivers/STM32L1xx_HAL_Driver/Inc/stm32l1xx_ll_gpio.h **** /* Exported macro ------------------------------------------------------------*/
 203:Drivers/STM32L1xx_HAL_Driver/Inc/stm32l1xx_ll_gpio.h **** /** @defgroup GPIO_LL_Exported_Macros GPIO Exported Macros
 204:Drivers/STM32L1xx_HAL_Driver/Inc/stm32l1xx_ll_gpio.h ****   * @{
 205:Drivers/STM32L1xx_HAL_Driver/Inc/stm32l1xx_ll_gpio.h ****   */
 206:Drivers/STM32L1xx_HAL_Driver/Inc/stm32l1xx_ll_gpio.h **** 
 207:Drivers/STM32L1xx_HAL_Driver/Inc/stm32l1xx_ll_gpio.h **** /** @defgroup GPIO_LL_EM_WRITE_READ Common Write and read registers Macros
 208:Drivers/STM32L1xx_HAL_Driver/Inc/stm32l1xx_ll_gpio.h ****   * @{
 209:Drivers/STM32L1xx_HAL_Driver/Inc/stm32l1xx_ll_gpio.h ****   */
 210:Drivers/STM32L1xx_HAL_Driver/Inc/stm32l1xx_ll_gpio.h **** 
 211:Drivers/STM32L1xx_HAL_Driver/Inc/stm32l1xx_ll_gpio.h **** /**
 212:Drivers/STM32L1xx_HAL_Driver/Inc/stm32l1xx_ll_gpio.h ****   * @brief  Write a value in GPIO register
 213:Drivers/STM32L1xx_HAL_Driver/Inc/stm32l1xx_ll_gpio.h ****   * @param  __INSTANCE__ GPIO Instance
 214:Drivers/STM32L1xx_HAL_Driver/Inc/stm32l1xx_ll_gpio.h ****   * @param  __REG__ Register to be written
 215:Drivers/STM32L1xx_HAL_Driver/Inc/stm32l1xx_ll_gpio.h ****   * @param  __VALUE__ Value to be written in the register
 216:Drivers/STM32L1xx_HAL_Driver/Inc/stm32l1xx_ll_gpio.h ****   * @retval None
 217:Drivers/STM32L1xx_HAL_Driver/Inc/stm32l1xx_ll_gpio.h ****   */
 218:Drivers/STM32L1xx_HAL_Driver/Inc/stm32l1xx_ll_gpio.h **** #define LL_GPIO_WriteReg(__INSTANCE__, __REG__, __VALUE__) WRITE_REG(__INSTANCE__->__REG__, (__VALU
 219:Drivers/STM32L1xx_HAL_Driver/Inc/stm32l1xx_ll_gpio.h **** 
 220:Drivers/STM32L1xx_HAL_Driver/Inc/stm32l1xx_ll_gpio.h **** /**
 221:Drivers/STM32L1xx_HAL_Driver/Inc/stm32l1xx_ll_gpio.h ****   * @brief  Read a value in GPIO register
 222:Drivers/STM32L1xx_HAL_Driver/Inc/stm32l1xx_ll_gpio.h ****   * @param  __INSTANCE__ GPIO Instance
 223:Drivers/STM32L1xx_HAL_Driver/Inc/stm32l1xx_ll_gpio.h ****   * @param  __REG__ Register to be read
 224:Drivers/STM32L1xx_HAL_Driver/Inc/stm32l1xx_ll_gpio.h ****   * @retval Register value
 225:Drivers/STM32L1xx_HAL_Driver/Inc/stm32l1xx_ll_gpio.h ****   */
 226:Drivers/STM32L1xx_HAL_Driver/Inc/stm32l1xx_ll_gpio.h **** #define LL_GPIO_ReadReg(__INSTANCE__, __REG__) READ_REG(__INSTANCE__->__REG__)
 227:Drivers/STM32L1xx_HAL_Driver/Inc/stm32l1xx_ll_gpio.h **** /**
 228:Drivers/STM32L1xx_HAL_Driver/Inc/stm32l1xx_ll_gpio.h ****   * @}
 229:Drivers/STM32L1xx_HAL_Driver/Inc/stm32l1xx_ll_gpio.h ****   */
 230:Drivers/STM32L1xx_HAL_Driver/Inc/stm32l1xx_ll_gpio.h **** 
 231:Drivers/STM32L1xx_HAL_Driver/Inc/stm32l1xx_ll_gpio.h **** /**
 232:Drivers/STM32L1xx_HAL_Driver/Inc/stm32l1xx_ll_gpio.h ****   * @}
 233:Drivers/STM32L1xx_HAL_Driver/Inc/stm32l1xx_ll_gpio.h ****   */
 234:Drivers/STM32L1xx_HAL_Driver/Inc/stm32l1xx_ll_gpio.h **** 
 235:Drivers/STM32L1xx_HAL_Driver/Inc/stm32l1xx_ll_gpio.h **** /* Exported functions --------------------------------------------------------*/
 236:Drivers/STM32L1xx_HAL_Driver/Inc/stm32l1xx_ll_gpio.h **** /** @defgroup GPIO_LL_Exported_Functions GPIO Exported Functions
 237:Drivers/STM32L1xx_HAL_Driver/Inc/stm32l1xx_ll_gpio.h ****   * @{
 238:Drivers/STM32L1xx_HAL_Driver/Inc/stm32l1xx_ll_gpio.h ****   */
 239:Drivers/STM32L1xx_HAL_Driver/Inc/stm32l1xx_ll_gpio.h **** 
 240:Drivers/STM32L1xx_HAL_Driver/Inc/stm32l1xx_ll_gpio.h **** /** @defgroup GPIO_LL_EF_Port_Configuration Port Configuration
 241:Drivers/STM32L1xx_HAL_Driver/Inc/stm32l1xx_ll_gpio.h ****   * @{
 242:Drivers/STM32L1xx_HAL_Driver/Inc/stm32l1xx_ll_gpio.h ****   */
 243:Drivers/STM32L1xx_HAL_Driver/Inc/stm32l1xx_ll_gpio.h **** 
 244:Drivers/STM32L1xx_HAL_Driver/Inc/stm32l1xx_ll_gpio.h **** /**
 245:Drivers/STM32L1xx_HAL_Driver/Inc/stm32l1xx_ll_gpio.h ****   * @brief  Configure gpio mode for a dedicated pin on dedicated port.
 246:Drivers/STM32L1xx_HAL_Driver/Inc/stm32l1xx_ll_gpio.h ****   * @note   I/O mode can be Input mode, General purpose output, Alternate function mode or Analog.
 247:Drivers/STM32L1xx_HAL_Driver/Inc/stm32l1xx_ll_gpio.h ****   * @note   Warning: only one pin can be passed as parameter.
 248:Drivers/STM32L1xx_HAL_Driver/Inc/stm32l1xx_ll_gpio.h ****   * @rmtoll MODER        MODEy         LL_GPIO_SetPinMode
 249:Drivers/STM32L1xx_HAL_Driver/Inc/stm32l1xx_ll_gpio.h ****   * @param  GPIOx GPIO Port
ARM GAS  C:\Users\domen\AppData\Local\Temp\ccQylUhh.s 			page 41


 250:Drivers/STM32L1xx_HAL_Driver/Inc/stm32l1xx_ll_gpio.h ****   * @param  Pin This parameter can be one of the following values:
 251:Drivers/STM32L1xx_HAL_Driver/Inc/stm32l1xx_ll_gpio.h ****   *         @arg @ref LL_GPIO_PIN_0
 252:Drivers/STM32L1xx_HAL_Driver/Inc/stm32l1xx_ll_gpio.h ****   *         @arg @ref LL_GPIO_PIN_1
 253:Drivers/STM32L1xx_HAL_Driver/Inc/stm32l1xx_ll_gpio.h ****   *         @arg @ref LL_GPIO_PIN_2
 254:Drivers/STM32L1xx_HAL_Driver/Inc/stm32l1xx_ll_gpio.h ****   *         @arg @ref LL_GPIO_PIN_3
 255:Drivers/STM32L1xx_HAL_Driver/Inc/stm32l1xx_ll_gpio.h ****   *         @arg @ref LL_GPIO_PIN_4
 256:Drivers/STM32L1xx_HAL_Driver/Inc/stm32l1xx_ll_gpio.h ****   *         @arg @ref LL_GPIO_PIN_5
 257:Drivers/STM32L1xx_HAL_Driver/Inc/stm32l1xx_ll_gpio.h ****   *         @arg @ref LL_GPIO_PIN_6
 258:Drivers/STM32L1xx_HAL_Driver/Inc/stm32l1xx_ll_gpio.h ****   *         @arg @ref LL_GPIO_PIN_7
 259:Drivers/STM32L1xx_HAL_Driver/Inc/stm32l1xx_ll_gpio.h ****   *         @arg @ref LL_GPIO_PIN_8
 260:Drivers/STM32L1xx_HAL_Driver/Inc/stm32l1xx_ll_gpio.h ****   *         @arg @ref LL_GPIO_PIN_9
 261:Drivers/STM32L1xx_HAL_Driver/Inc/stm32l1xx_ll_gpio.h ****   *         @arg @ref LL_GPIO_PIN_10
 262:Drivers/STM32L1xx_HAL_Driver/Inc/stm32l1xx_ll_gpio.h ****   *         @arg @ref LL_GPIO_PIN_11
 263:Drivers/STM32L1xx_HAL_Driver/Inc/stm32l1xx_ll_gpio.h ****   *         @arg @ref LL_GPIO_PIN_12
 264:Drivers/STM32L1xx_HAL_Driver/Inc/stm32l1xx_ll_gpio.h ****   *         @arg @ref LL_GPIO_PIN_13
 265:Drivers/STM32L1xx_HAL_Driver/Inc/stm32l1xx_ll_gpio.h ****   *         @arg @ref LL_GPIO_PIN_14
 266:Drivers/STM32L1xx_HAL_Driver/Inc/stm32l1xx_ll_gpio.h ****   *         @arg @ref LL_GPIO_PIN_15
 267:Drivers/STM32L1xx_HAL_Driver/Inc/stm32l1xx_ll_gpio.h ****   * @param  Mode This parameter can be one of the following values:
 268:Drivers/STM32L1xx_HAL_Driver/Inc/stm32l1xx_ll_gpio.h ****   *         @arg @ref LL_GPIO_MODE_INPUT
 269:Drivers/STM32L1xx_HAL_Driver/Inc/stm32l1xx_ll_gpio.h ****   *         @arg @ref LL_GPIO_MODE_OUTPUT
 270:Drivers/STM32L1xx_HAL_Driver/Inc/stm32l1xx_ll_gpio.h ****   *         @arg @ref LL_GPIO_MODE_ALTERNATE
 271:Drivers/STM32L1xx_HAL_Driver/Inc/stm32l1xx_ll_gpio.h ****   *         @arg @ref LL_GPIO_MODE_ANALOG
 272:Drivers/STM32L1xx_HAL_Driver/Inc/stm32l1xx_ll_gpio.h ****   * @retval None
 273:Drivers/STM32L1xx_HAL_Driver/Inc/stm32l1xx_ll_gpio.h ****   */
 274:Drivers/STM32L1xx_HAL_Driver/Inc/stm32l1xx_ll_gpio.h **** __STATIC_INLINE void LL_GPIO_SetPinMode(GPIO_TypeDef *GPIOx, uint32_t Pin, uint32_t Mode)
 275:Drivers/STM32L1xx_HAL_Driver/Inc/stm32l1xx_ll_gpio.h **** {
 276:Drivers/STM32L1xx_HAL_Driver/Inc/stm32l1xx_ll_gpio.h ****   MODIFY_REG(GPIOx->MODER, (GPIO_MODER_MODER0 << (POSITION_VAL(Pin) * 2U)), (Mode << (POSITION_VAL(
 277:Drivers/STM32L1xx_HAL_Driver/Inc/stm32l1xx_ll_gpio.h **** }
 278:Drivers/STM32L1xx_HAL_Driver/Inc/stm32l1xx_ll_gpio.h **** 
 279:Drivers/STM32L1xx_HAL_Driver/Inc/stm32l1xx_ll_gpio.h **** /**
 280:Drivers/STM32L1xx_HAL_Driver/Inc/stm32l1xx_ll_gpio.h ****   * @brief  Return gpio mode for a dedicated pin on dedicated port.
 281:Drivers/STM32L1xx_HAL_Driver/Inc/stm32l1xx_ll_gpio.h ****   * @note   I/O mode can be Input mode, General purpose output, Alternate function mode or Analog.
 282:Drivers/STM32L1xx_HAL_Driver/Inc/stm32l1xx_ll_gpio.h ****   * @note   Warning: only one pin can be passed as parameter.
 283:Drivers/STM32L1xx_HAL_Driver/Inc/stm32l1xx_ll_gpio.h ****   * @rmtoll MODER        MODEy         LL_GPIO_GetPinMode
 284:Drivers/STM32L1xx_HAL_Driver/Inc/stm32l1xx_ll_gpio.h ****   * @param  GPIOx GPIO Port
 285:Drivers/STM32L1xx_HAL_Driver/Inc/stm32l1xx_ll_gpio.h ****   * @param  Pin This parameter can be one of the following values:
 286:Drivers/STM32L1xx_HAL_Driver/Inc/stm32l1xx_ll_gpio.h ****   *         @arg @ref LL_GPIO_PIN_0
 287:Drivers/STM32L1xx_HAL_Driver/Inc/stm32l1xx_ll_gpio.h ****   *         @arg @ref LL_GPIO_PIN_1
 288:Drivers/STM32L1xx_HAL_Driver/Inc/stm32l1xx_ll_gpio.h ****   *         @arg @ref LL_GPIO_PIN_2
 289:Drivers/STM32L1xx_HAL_Driver/Inc/stm32l1xx_ll_gpio.h ****   *         @arg @ref LL_GPIO_PIN_3
 290:Drivers/STM32L1xx_HAL_Driver/Inc/stm32l1xx_ll_gpio.h ****   *         @arg @ref LL_GPIO_PIN_4
 291:Drivers/STM32L1xx_HAL_Driver/Inc/stm32l1xx_ll_gpio.h ****   *         @arg @ref LL_GPIO_PIN_5
 292:Drivers/STM32L1xx_HAL_Driver/Inc/stm32l1xx_ll_gpio.h ****   *         @arg @ref LL_GPIO_PIN_6
 293:Drivers/STM32L1xx_HAL_Driver/Inc/stm32l1xx_ll_gpio.h ****   *         @arg @ref LL_GPIO_PIN_7
 294:Drivers/STM32L1xx_HAL_Driver/Inc/stm32l1xx_ll_gpio.h ****   *         @arg @ref LL_GPIO_PIN_8
 295:Drivers/STM32L1xx_HAL_Driver/Inc/stm32l1xx_ll_gpio.h ****   *         @arg @ref LL_GPIO_PIN_9
 296:Drivers/STM32L1xx_HAL_Driver/Inc/stm32l1xx_ll_gpio.h ****   *         @arg @ref LL_GPIO_PIN_10
 297:Drivers/STM32L1xx_HAL_Driver/Inc/stm32l1xx_ll_gpio.h ****   *         @arg @ref LL_GPIO_PIN_11
 298:Drivers/STM32L1xx_HAL_Driver/Inc/stm32l1xx_ll_gpio.h ****   *         @arg @ref LL_GPIO_PIN_12
 299:Drivers/STM32L1xx_HAL_Driver/Inc/stm32l1xx_ll_gpio.h ****   *         @arg @ref LL_GPIO_PIN_13
 300:Drivers/STM32L1xx_HAL_Driver/Inc/stm32l1xx_ll_gpio.h ****   *         @arg @ref LL_GPIO_PIN_14
 301:Drivers/STM32L1xx_HAL_Driver/Inc/stm32l1xx_ll_gpio.h ****   *         @arg @ref LL_GPIO_PIN_15
 302:Drivers/STM32L1xx_HAL_Driver/Inc/stm32l1xx_ll_gpio.h ****   * @retval Returned value can be one of the following values:
 303:Drivers/STM32L1xx_HAL_Driver/Inc/stm32l1xx_ll_gpio.h ****   *         @arg @ref LL_GPIO_MODE_INPUT
 304:Drivers/STM32L1xx_HAL_Driver/Inc/stm32l1xx_ll_gpio.h ****   *         @arg @ref LL_GPIO_MODE_OUTPUT
 305:Drivers/STM32L1xx_HAL_Driver/Inc/stm32l1xx_ll_gpio.h ****   *         @arg @ref LL_GPIO_MODE_ALTERNATE
 306:Drivers/STM32L1xx_HAL_Driver/Inc/stm32l1xx_ll_gpio.h ****   *         @arg @ref LL_GPIO_MODE_ANALOG
ARM GAS  C:\Users\domen\AppData\Local\Temp\ccQylUhh.s 			page 42


 307:Drivers/STM32L1xx_HAL_Driver/Inc/stm32l1xx_ll_gpio.h ****   */
 308:Drivers/STM32L1xx_HAL_Driver/Inc/stm32l1xx_ll_gpio.h **** __STATIC_INLINE uint32_t LL_GPIO_GetPinMode(GPIO_TypeDef *GPIOx, uint32_t Pin)
 309:Drivers/STM32L1xx_HAL_Driver/Inc/stm32l1xx_ll_gpio.h **** {
 310:Drivers/STM32L1xx_HAL_Driver/Inc/stm32l1xx_ll_gpio.h ****   return (uint32_t)(READ_BIT(GPIOx->MODER,
 311:Drivers/STM32L1xx_HAL_Driver/Inc/stm32l1xx_ll_gpio.h ****                              (GPIO_MODER_MODER0 << (POSITION_VAL(Pin) * 2U))) >> (POSITION_VAL(Pin)
 312:Drivers/STM32L1xx_HAL_Driver/Inc/stm32l1xx_ll_gpio.h **** }
 313:Drivers/STM32L1xx_HAL_Driver/Inc/stm32l1xx_ll_gpio.h **** 
 314:Drivers/STM32L1xx_HAL_Driver/Inc/stm32l1xx_ll_gpio.h **** /**
 315:Drivers/STM32L1xx_HAL_Driver/Inc/stm32l1xx_ll_gpio.h ****   * @brief  Configure gpio output type for several pins on dedicated port.
 316:Drivers/STM32L1xx_HAL_Driver/Inc/stm32l1xx_ll_gpio.h ****   * @note   Output type as to be set when gpio pin is in output or
 317:Drivers/STM32L1xx_HAL_Driver/Inc/stm32l1xx_ll_gpio.h ****   *         alternate modes. Possible type are Push-pull or Open-drain.
 318:Drivers/STM32L1xx_HAL_Driver/Inc/stm32l1xx_ll_gpio.h ****   * @rmtoll OTYPER       OTy           LL_GPIO_SetPinOutputType
 319:Drivers/STM32L1xx_HAL_Driver/Inc/stm32l1xx_ll_gpio.h ****   * @param  GPIOx GPIO Port
 320:Drivers/STM32L1xx_HAL_Driver/Inc/stm32l1xx_ll_gpio.h ****   * @param  PinMask This parameter can be a combination of the following values:
 321:Drivers/STM32L1xx_HAL_Driver/Inc/stm32l1xx_ll_gpio.h ****   *         @arg @ref LL_GPIO_PIN_0
 322:Drivers/STM32L1xx_HAL_Driver/Inc/stm32l1xx_ll_gpio.h ****   *         @arg @ref LL_GPIO_PIN_1
 323:Drivers/STM32L1xx_HAL_Driver/Inc/stm32l1xx_ll_gpio.h ****   *         @arg @ref LL_GPIO_PIN_2
 324:Drivers/STM32L1xx_HAL_Driver/Inc/stm32l1xx_ll_gpio.h ****   *         @arg @ref LL_GPIO_PIN_3
 325:Drivers/STM32L1xx_HAL_Driver/Inc/stm32l1xx_ll_gpio.h ****   *         @arg @ref LL_GPIO_PIN_4
 326:Drivers/STM32L1xx_HAL_Driver/Inc/stm32l1xx_ll_gpio.h ****   *         @arg @ref LL_GPIO_PIN_5
 327:Drivers/STM32L1xx_HAL_Driver/Inc/stm32l1xx_ll_gpio.h ****   *         @arg @ref LL_GPIO_PIN_6
 328:Drivers/STM32L1xx_HAL_Driver/Inc/stm32l1xx_ll_gpio.h ****   *         @arg @ref LL_GPIO_PIN_7
 329:Drivers/STM32L1xx_HAL_Driver/Inc/stm32l1xx_ll_gpio.h ****   *         @arg @ref LL_GPIO_PIN_8
 330:Drivers/STM32L1xx_HAL_Driver/Inc/stm32l1xx_ll_gpio.h ****   *         @arg @ref LL_GPIO_PIN_9
 331:Drivers/STM32L1xx_HAL_Driver/Inc/stm32l1xx_ll_gpio.h ****   *         @arg @ref LL_GPIO_PIN_10
 332:Drivers/STM32L1xx_HAL_Driver/Inc/stm32l1xx_ll_gpio.h ****   *         @arg @ref LL_GPIO_PIN_11
 333:Drivers/STM32L1xx_HAL_Driver/Inc/stm32l1xx_ll_gpio.h ****   *         @arg @ref LL_GPIO_PIN_12
 334:Drivers/STM32L1xx_HAL_Driver/Inc/stm32l1xx_ll_gpio.h ****   *         @arg @ref LL_GPIO_PIN_13
 335:Drivers/STM32L1xx_HAL_Driver/Inc/stm32l1xx_ll_gpio.h ****   *         @arg @ref LL_GPIO_PIN_14
 336:Drivers/STM32L1xx_HAL_Driver/Inc/stm32l1xx_ll_gpio.h ****   *         @arg @ref LL_GPIO_PIN_15
 337:Drivers/STM32L1xx_HAL_Driver/Inc/stm32l1xx_ll_gpio.h ****   *         @arg @ref LL_GPIO_PIN_ALL
 338:Drivers/STM32L1xx_HAL_Driver/Inc/stm32l1xx_ll_gpio.h ****   * @param  OutputType This parameter can be one of the following values:
 339:Drivers/STM32L1xx_HAL_Driver/Inc/stm32l1xx_ll_gpio.h ****   *         @arg @ref LL_GPIO_OUTPUT_PUSHPULL
 340:Drivers/STM32L1xx_HAL_Driver/Inc/stm32l1xx_ll_gpio.h ****   *         @arg @ref LL_GPIO_OUTPUT_OPENDRAIN
 341:Drivers/STM32L1xx_HAL_Driver/Inc/stm32l1xx_ll_gpio.h ****   * @retval None
 342:Drivers/STM32L1xx_HAL_Driver/Inc/stm32l1xx_ll_gpio.h ****   */
 343:Drivers/STM32L1xx_HAL_Driver/Inc/stm32l1xx_ll_gpio.h **** __STATIC_INLINE void LL_GPIO_SetPinOutputType(GPIO_TypeDef *GPIOx, uint32_t PinMask, uint32_t Outpu
 344:Drivers/STM32L1xx_HAL_Driver/Inc/stm32l1xx_ll_gpio.h **** {
 345:Drivers/STM32L1xx_HAL_Driver/Inc/stm32l1xx_ll_gpio.h ****   MODIFY_REG(GPIOx->OTYPER, PinMask, (PinMask * OutputType));
 346:Drivers/STM32L1xx_HAL_Driver/Inc/stm32l1xx_ll_gpio.h **** }
 347:Drivers/STM32L1xx_HAL_Driver/Inc/stm32l1xx_ll_gpio.h **** 
 348:Drivers/STM32L1xx_HAL_Driver/Inc/stm32l1xx_ll_gpio.h **** /**
 349:Drivers/STM32L1xx_HAL_Driver/Inc/stm32l1xx_ll_gpio.h ****   * @brief  Return gpio output type for several pins on dedicated port.
 350:Drivers/STM32L1xx_HAL_Driver/Inc/stm32l1xx_ll_gpio.h ****   * @note   Output type as to be set when gpio pin is in output or
 351:Drivers/STM32L1xx_HAL_Driver/Inc/stm32l1xx_ll_gpio.h ****   *         alternate modes. Possible type are Push-pull or Open-drain.
 352:Drivers/STM32L1xx_HAL_Driver/Inc/stm32l1xx_ll_gpio.h ****   * @note   Warning: only one pin can be passed as parameter.
 353:Drivers/STM32L1xx_HAL_Driver/Inc/stm32l1xx_ll_gpio.h ****   * @rmtoll OTYPER       OTy           LL_GPIO_GetPinOutputType
 354:Drivers/STM32L1xx_HAL_Driver/Inc/stm32l1xx_ll_gpio.h ****   * @param  GPIOx GPIO Port
 355:Drivers/STM32L1xx_HAL_Driver/Inc/stm32l1xx_ll_gpio.h ****   * @param  Pin This parameter can be one of the following values:
 356:Drivers/STM32L1xx_HAL_Driver/Inc/stm32l1xx_ll_gpio.h ****   *         @arg @ref LL_GPIO_PIN_0
 357:Drivers/STM32L1xx_HAL_Driver/Inc/stm32l1xx_ll_gpio.h ****   *         @arg @ref LL_GPIO_PIN_1
 358:Drivers/STM32L1xx_HAL_Driver/Inc/stm32l1xx_ll_gpio.h ****   *         @arg @ref LL_GPIO_PIN_2
 359:Drivers/STM32L1xx_HAL_Driver/Inc/stm32l1xx_ll_gpio.h ****   *         @arg @ref LL_GPIO_PIN_3
 360:Drivers/STM32L1xx_HAL_Driver/Inc/stm32l1xx_ll_gpio.h ****   *         @arg @ref LL_GPIO_PIN_4
 361:Drivers/STM32L1xx_HAL_Driver/Inc/stm32l1xx_ll_gpio.h ****   *         @arg @ref LL_GPIO_PIN_5
 362:Drivers/STM32L1xx_HAL_Driver/Inc/stm32l1xx_ll_gpio.h ****   *         @arg @ref LL_GPIO_PIN_6
 363:Drivers/STM32L1xx_HAL_Driver/Inc/stm32l1xx_ll_gpio.h ****   *         @arg @ref LL_GPIO_PIN_7
ARM GAS  C:\Users\domen\AppData\Local\Temp\ccQylUhh.s 			page 43


 364:Drivers/STM32L1xx_HAL_Driver/Inc/stm32l1xx_ll_gpio.h ****   *         @arg @ref LL_GPIO_PIN_8
 365:Drivers/STM32L1xx_HAL_Driver/Inc/stm32l1xx_ll_gpio.h ****   *         @arg @ref LL_GPIO_PIN_9
 366:Drivers/STM32L1xx_HAL_Driver/Inc/stm32l1xx_ll_gpio.h ****   *         @arg @ref LL_GPIO_PIN_10
 367:Drivers/STM32L1xx_HAL_Driver/Inc/stm32l1xx_ll_gpio.h ****   *         @arg @ref LL_GPIO_PIN_11
 368:Drivers/STM32L1xx_HAL_Driver/Inc/stm32l1xx_ll_gpio.h ****   *         @arg @ref LL_GPIO_PIN_12
 369:Drivers/STM32L1xx_HAL_Driver/Inc/stm32l1xx_ll_gpio.h ****   *         @arg @ref LL_GPIO_PIN_13
 370:Drivers/STM32L1xx_HAL_Driver/Inc/stm32l1xx_ll_gpio.h ****   *         @arg @ref LL_GPIO_PIN_14
 371:Drivers/STM32L1xx_HAL_Driver/Inc/stm32l1xx_ll_gpio.h ****   *         @arg @ref LL_GPIO_PIN_15
 372:Drivers/STM32L1xx_HAL_Driver/Inc/stm32l1xx_ll_gpio.h ****   *         @arg @ref LL_GPIO_PIN_ALL
 373:Drivers/STM32L1xx_HAL_Driver/Inc/stm32l1xx_ll_gpio.h ****   * @retval Returned value can be one of the following values:
 374:Drivers/STM32L1xx_HAL_Driver/Inc/stm32l1xx_ll_gpio.h ****   *         @arg @ref LL_GPIO_OUTPUT_PUSHPULL
 375:Drivers/STM32L1xx_HAL_Driver/Inc/stm32l1xx_ll_gpio.h ****   *         @arg @ref LL_GPIO_OUTPUT_OPENDRAIN
 376:Drivers/STM32L1xx_HAL_Driver/Inc/stm32l1xx_ll_gpio.h ****   */
 377:Drivers/STM32L1xx_HAL_Driver/Inc/stm32l1xx_ll_gpio.h **** __STATIC_INLINE uint32_t LL_GPIO_GetPinOutputType(GPIO_TypeDef *GPIOx, uint32_t Pin)
 378:Drivers/STM32L1xx_HAL_Driver/Inc/stm32l1xx_ll_gpio.h **** {
 379:Drivers/STM32L1xx_HAL_Driver/Inc/stm32l1xx_ll_gpio.h ****   return (uint32_t)(READ_BIT(GPIOx->OTYPER, Pin) >> POSITION_VAL(Pin));
 380:Drivers/STM32L1xx_HAL_Driver/Inc/stm32l1xx_ll_gpio.h **** }
 381:Drivers/STM32L1xx_HAL_Driver/Inc/stm32l1xx_ll_gpio.h **** 
 382:Drivers/STM32L1xx_HAL_Driver/Inc/stm32l1xx_ll_gpio.h **** /**
 383:Drivers/STM32L1xx_HAL_Driver/Inc/stm32l1xx_ll_gpio.h ****   * @brief  Configure gpio speed for a dedicated pin on dedicated port.
 384:Drivers/STM32L1xx_HAL_Driver/Inc/stm32l1xx_ll_gpio.h ****   * @note   I/O speed can be Low, Medium, Fast or High speed.
 385:Drivers/STM32L1xx_HAL_Driver/Inc/stm32l1xx_ll_gpio.h ****   * @note   Warning: only one pin can be passed as parameter.
 386:Drivers/STM32L1xx_HAL_Driver/Inc/stm32l1xx_ll_gpio.h ****   * @note   Refer to datasheet for frequency specifications and the power
 387:Drivers/STM32L1xx_HAL_Driver/Inc/stm32l1xx_ll_gpio.h ****   *         supply and load conditions for each speed.
 388:Drivers/STM32L1xx_HAL_Driver/Inc/stm32l1xx_ll_gpio.h ****   * @rmtoll OSPEEDR      OSPEEDy       LL_GPIO_SetPinSpeed
 389:Drivers/STM32L1xx_HAL_Driver/Inc/stm32l1xx_ll_gpio.h ****   * @param  GPIOx GPIO Port
 390:Drivers/STM32L1xx_HAL_Driver/Inc/stm32l1xx_ll_gpio.h ****   * @param  Pin This parameter can be one of the following values:
 391:Drivers/STM32L1xx_HAL_Driver/Inc/stm32l1xx_ll_gpio.h ****   *         @arg @ref LL_GPIO_PIN_0
 392:Drivers/STM32L1xx_HAL_Driver/Inc/stm32l1xx_ll_gpio.h ****   *         @arg @ref LL_GPIO_PIN_1
 393:Drivers/STM32L1xx_HAL_Driver/Inc/stm32l1xx_ll_gpio.h ****   *         @arg @ref LL_GPIO_PIN_2
 394:Drivers/STM32L1xx_HAL_Driver/Inc/stm32l1xx_ll_gpio.h ****   *         @arg @ref LL_GPIO_PIN_3
 395:Drivers/STM32L1xx_HAL_Driver/Inc/stm32l1xx_ll_gpio.h ****   *         @arg @ref LL_GPIO_PIN_4
 396:Drivers/STM32L1xx_HAL_Driver/Inc/stm32l1xx_ll_gpio.h ****   *         @arg @ref LL_GPIO_PIN_5
 397:Drivers/STM32L1xx_HAL_Driver/Inc/stm32l1xx_ll_gpio.h ****   *         @arg @ref LL_GPIO_PIN_6
 398:Drivers/STM32L1xx_HAL_Driver/Inc/stm32l1xx_ll_gpio.h ****   *         @arg @ref LL_GPIO_PIN_7
 399:Drivers/STM32L1xx_HAL_Driver/Inc/stm32l1xx_ll_gpio.h ****   *         @arg @ref LL_GPIO_PIN_8
 400:Drivers/STM32L1xx_HAL_Driver/Inc/stm32l1xx_ll_gpio.h ****   *         @arg @ref LL_GPIO_PIN_9
 401:Drivers/STM32L1xx_HAL_Driver/Inc/stm32l1xx_ll_gpio.h ****   *         @arg @ref LL_GPIO_PIN_10
 402:Drivers/STM32L1xx_HAL_Driver/Inc/stm32l1xx_ll_gpio.h ****   *         @arg @ref LL_GPIO_PIN_11
 403:Drivers/STM32L1xx_HAL_Driver/Inc/stm32l1xx_ll_gpio.h ****   *         @arg @ref LL_GPIO_PIN_12
 404:Drivers/STM32L1xx_HAL_Driver/Inc/stm32l1xx_ll_gpio.h ****   *         @arg @ref LL_GPIO_PIN_13
 405:Drivers/STM32L1xx_HAL_Driver/Inc/stm32l1xx_ll_gpio.h ****   *         @arg @ref LL_GPIO_PIN_14
 406:Drivers/STM32L1xx_HAL_Driver/Inc/stm32l1xx_ll_gpio.h ****   *         @arg @ref LL_GPIO_PIN_15
 407:Drivers/STM32L1xx_HAL_Driver/Inc/stm32l1xx_ll_gpio.h ****   * @param  Speed This parameter can be one of the following values:
 408:Drivers/STM32L1xx_HAL_Driver/Inc/stm32l1xx_ll_gpio.h ****   *         @arg @ref LL_GPIO_SPEED_FREQ_LOW
 409:Drivers/STM32L1xx_HAL_Driver/Inc/stm32l1xx_ll_gpio.h ****   *         @arg @ref LL_GPIO_SPEED_FREQ_MEDIUM
 410:Drivers/STM32L1xx_HAL_Driver/Inc/stm32l1xx_ll_gpio.h ****   *         @arg @ref LL_GPIO_SPEED_FREQ_HIGH
 411:Drivers/STM32L1xx_HAL_Driver/Inc/stm32l1xx_ll_gpio.h ****   *         @arg @ref LL_GPIO_SPEED_FREQ_VERY_HIGH
 412:Drivers/STM32L1xx_HAL_Driver/Inc/stm32l1xx_ll_gpio.h ****   * @retval None
 413:Drivers/STM32L1xx_HAL_Driver/Inc/stm32l1xx_ll_gpio.h ****   */
 414:Drivers/STM32L1xx_HAL_Driver/Inc/stm32l1xx_ll_gpio.h **** __STATIC_INLINE void LL_GPIO_SetPinSpeed(GPIO_TypeDef *GPIOx, uint32_t Pin, uint32_t  Speed)
 405              		.loc 4 414 22 view .LVU93
 406              	.LBB105:
 415:Drivers/STM32L1xx_HAL_Driver/Inc/stm32l1xx_ll_gpio.h **** {
 416:Drivers/STM32L1xx_HAL_Driver/Inc/stm32l1xx_ll_gpio.h ****   MODIFY_REG(GPIOx->OSPEEDR, (GPIO_OSPEEDER_OSPEEDR0 << (POSITION_VAL(Pin) * 2U)),
 407              		.loc 4 416 3 view .LVU94
 408 0080 BB68     		ldr	r3, [r7, #8]
ARM GAS  C:\Users\domen\AppData\Local\Temp\ccQylUhh.s 			page 44


 409              	.LVL30:
 410              	.LBB106:
 411              	.LBI106:
 981:Drivers/CMSIS/Include/cmsis_gcc.h **** {
 412              		.loc 3 981 31 view .LVU95
 413              	.LBB107:
 983:Drivers/CMSIS/Include/cmsis_gcc.h **** 
 414              		.loc 3 983 3 view .LVU96
 988:Drivers/CMSIS/Include/cmsis_gcc.h **** #else
 415              		.loc 3 988 4 view .LVU97
 416              		.syntax unified
 417              	@ 988 "Drivers/CMSIS/Include/cmsis_gcc.h" 1
 418 0082 94FAA4F2 		rbit r2, r4
 419              	@ 0 "" 2
 420              	.LVL31:
 421              		.loc 3 1001 3 view .LVU98
 422              		.loc 3 1001 3 is_stmt 0 view .LVU99
 423              		.thumb
 424              		.syntax unified
 425              	.LBE107:
 426              	.LBE106:
 427              		.loc 4 416 3 view .LVU100
 428 0086 B2FA82F2 		clz	r2, r2
 429 008a 5200     		lsls	r2, r2, #1
 430 008c 0320     		movs	r0, #3
 431 008e 00FA02F2 		lsl	r2, r0, r2
 432 0092 23EA0203 		bic	r3, r3, r2
 433              	.LVL32:
 434              	.LBB108:
 435              	.LBI108:
 981:Drivers/CMSIS/Include/cmsis_gcc.h **** {
 436              		.loc 3 981 31 is_stmt 1 view .LVU101
 437              	.LBB109:
 983:Drivers/CMSIS/Include/cmsis_gcc.h **** 
 438              		.loc 3 983 3 view .LVU102
 988:Drivers/CMSIS/Include/cmsis_gcc.h **** #else
 439              		.loc 3 988 4 view .LVU103
 440              		.syntax unified
 441              	@ 988 "Drivers/CMSIS/Include/cmsis_gcc.h" 1
 442 0096 94FAA4F2 		rbit r2, r4
 443              	@ 0 "" 2
 444              	.LVL33:
 445              		.loc 3 1001 3 view .LVU104
 446              		.loc 3 1001 3 is_stmt 0 view .LVU105
 447              		.thumb
 448              		.syntax unified
 449              	.LBE109:
 450              	.LBE108:
 451              		.loc 4 416 3 view .LVU106
 452 009a B2FA82F2 		clz	r2, r2
 453 009e 5200     		lsls	r2, r2, #1
 454 00a0 01FA02F2 		lsl	r2, r1, r2
 455 00a4 1343     		orrs	r3, r3, r2
 456 00a6 BB60     		str	r3, [r7, #8]
 457              	.LVL34:
 458              	.L24:
 459              		.loc 4 416 3 view .LVU107
ARM GAS  C:\Users\domen\AppData\Local\Temp\ccQylUhh.s 			page 45


 460              	.LBE105:
 461              	.LBE104:
 212:Drivers/STM32L1xx_HAL_Driver/Src/stm32l1xx_ll_gpio.c ****       }
 213:Drivers/STM32L1xx_HAL_Driver/Src/stm32l1xx_ll_gpio.c **** 
 214:Drivers/STM32L1xx_HAL_Driver/Src/stm32l1xx_ll_gpio.c ****       /* Pull-up Pull down resistor configuration*/
 215:Drivers/STM32L1xx_HAL_Driver/Src/stm32l1xx_ll_gpio.c ****       LL_GPIO_SetPinPull(GPIOx, currentpin, GPIO_InitStruct->Pull);
 462              		.loc 1 215 7 is_stmt 1 view .LVU108
 463 00a8 2969     		ldr	r1, [r5, #16]
 464              	.LVL35:
 465              	.LBB110:
 466              	.LBI110:
 417:Drivers/STM32L1xx_HAL_Driver/Inc/stm32l1xx_ll_gpio.h ****              (Speed << (POSITION_VAL(Pin) * 2U)));
 418:Drivers/STM32L1xx_HAL_Driver/Inc/stm32l1xx_ll_gpio.h **** }
 419:Drivers/STM32L1xx_HAL_Driver/Inc/stm32l1xx_ll_gpio.h **** 
 420:Drivers/STM32L1xx_HAL_Driver/Inc/stm32l1xx_ll_gpio.h **** /**
 421:Drivers/STM32L1xx_HAL_Driver/Inc/stm32l1xx_ll_gpio.h ****   * @brief  Return gpio speed for a dedicated pin on dedicated port.
 422:Drivers/STM32L1xx_HAL_Driver/Inc/stm32l1xx_ll_gpio.h ****   * @note   I/O speed can be Low, Medium, Fast or High speed.
 423:Drivers/STM32L1xx_HAL_Driver/Inc/stm32l1xx_ll_gpio.h ****   * @note   Warning: only one pin can be passed as parameter.
 424:Drivers/STM32L1xx_HAL_Driver/Inc/stm32l1xx_ll_gpio.h ****   * @note   Refer to datasheet for frequency specifications and the power
 425:Drivers/STM32L1xx_HAL_Driver/Inc/stm32l1xx_ll_gpio.h ****   *         supply and load conditions for each speed.
 426:Drivers/STM32L1xx_HAL_Driver/Inc/stm32l1xx_ll_gpio.h ****   * @rmtoll OSPEEDR      OSPEEDy       LL_GPIO_GetPinSpeed
 427:Drivers/STM32L1xx_HAL_Driver/Inc/stm32l1xx_ll_gpio.h ****   * @param  GPIOx GPIO Port
 428:Drivers/STM32L1xx_HAL_Driver/Inc/stm32l1xx_ll_gpio.h ****   * @param  Pin This parameter can be one of the following values:
 429:Drivers/STM32L1xx_HAL_Driver/Inc/stm32l1xx_ll_gpio.h ****   *         @arg @ref LL_GPIO_PIN_0
 430:Drivers/STM32L1xx_HAL_Driver/Inc/stm32l1xx_ll_gpio.h ****   *         @arg @ref LL_GPIO_PIN_1
 431:Drivers/STM32L1xx_HAL_Driver/Inc/stm32l1xx_ll_gpio.h ****   *         @arg @ref LL_GPIO_PIN_2
 432:Drivers/STM32L1xx_HAL_Driver/Inc/stm32l1xx_ll_gpio.h ****   *         @arg @ref LL_GPIO_PIN_3
 433:Drivers/STM32L1xx_HAL_Driver/Inc/stm32l1xx_ll_gpio.h ****   *         @arg @ref LL_GPIO_PIN_4
 434:Drivers/STM32L1xx_HAL_Driver/Inc/stm32l1xx_ll_gpio.h ****   *         @arg @ref LL_GPIO_PIN_5
 435:Drivers/STM32L1xx_HAL_Driver/Inc/stm32l1xx_ll_gpio.h ****   *         @arg @ref LL_GPIO_PIN_6
 436:Drivers/STM32L1xx_HAL_Driver/Inc/stm32l1xx_ll_gpio.h ****   *         @arg @ref LL_GPIO_PIN_7
 437:Drivers/STM32L1xx_HAL_Driver/Inc/stm32l1xx_ll_gpio.h ****   *         @arg @ref LL_GPIO_PIN_8
 438:Drivers/STM32L1xx_HAL_Driver/Inc/stm32l1xx_ll_gpio.h ****   *         @arg @ref LL_GPIO_PIN_9
 439:Drivers/STM32L1xx_HAL_Driver/Inc/stm32l1xx_ll_gpio.h ****   *         @arg @ref LL_GPIO_PIN_10
 440:Drivers/STM32L1xx_HAL_Driver/Inc/stm32l1xx_ll_gpio.h ****   *         @arg @ref LL_GPIO_PIN_11
 441:Drivers/STM32L1xx_HAL_Driver/Inc/stm32l1xx_ll_gpio.h ****   *         @arg @ref LL_GPIO_PIN_12
 442:Drivers/STM32L1xx_HAL_Driver/Inc/stm32l1xx_ll_gpio.h ****   *         @arg @ref LL_GPIO_PIN_13
 443:Drivers/STM32L1xx_HAL_Driver/Inc/stm32l1xx_ll_gpio.h ****   *         @arg @ref LL_GPIO_PIN_14
 444:Drivers/STM32L1xx_HAL_Driver/Inc/stm32l1xx_ll_gpio.h ****   *         @arg @ref LL_GPIO_PIN_15
 445:Drivers/STM32L1xx_HAL_Driver/Inc/stm32l1xx_ll_gpio.h ****   * @retval Returned value can be one of the following values:
 446:Drivers/STM32L1xx_HAL_Driver/Inc/stm32l1xx_ll_gpio.h ****   *         @arg @ref LL_GPIO_SPEED_FREQ_LOW
 447:Drivers/STM32L1xx_HAL_Driver/Inc/stm32l1xx_ll_gpio.h ****   *         @arg @ref LL_GPIO_SPEED_FREQ_MEDIUM
 448:Drivers/STM32L1xx_HAL_Driver/Inc/stm32l1xx_ll_gpio.h ****   *         @arg @ref LL_GPIO_SPEED_FREQ_HIGH
 449:Drivers/STM32L1xx_HAL_Driver/Inc/stm32l1xx_ll_gpio.h ****   *         @arg @ref LL_GPIO_SPEED_FREQ_VERY_HIGH
 450:Drivers/STM32L1xx_HAL_Driver/Inc/stm32l1xx_ll_gpio.h ****   */
 451:Drivers/STM32L1xx_HAL_Driver/Inc/stm32l1xx_ll_gpio.h **** __STATIC_INLINE uint32_t LL_GPIO_GetPinSpeed(GPIO_TypeDef *GPIOx, uint32_t Pin)
 452:Drivers/STM32L1xx_HAL_Driver/Inc/stm32l1xx_ll_gpio.h **** {
 453:Drivers/STM32L1xx_HAL_Driver/Inc/stm32l1xx_ll_gpio.h ****   return (uint32_t)(READ_BIT(GPIOx->OSPEEDR,
 454:Drivers/STM32L1xx_HAL_Driver/Inc/stm32l1xx_ll_gpio.h ****                              (GPIO_OSPEEDER_OSPEEDR0 << (POSITION_VAL(Pin) * 2U))) >> (POSITION_VAL
 455:Drivers/STM32L1xx_HAL_Driver/Inc/stm32l1xx_ll_gpio.h **** }
 456:Drivers/STM32L1xx_HAL_Driver/Inc/stm32l1xx_ll_gpio.h **** 
 457:Drivers/STM32L1xx_HAL_Driver/Inc/stm32l1xx_ll_gpio.h **** /**
 458:Drivers/STM32L1xx_HAL_Driver/Inc/stm32l1xx_ll_gpio.h ****   * @brief  Configure gpio pull-up or pull-down for a dedicated pin on a dedicated port.
 459:Drivers/STM32L1xx_HAL_Driver/Inc/stm32l1xx_ll_gpio.h ****   * @note   Warning: only one pin can be passed as parameter.
 460:Drivers/STM32L1xx_HAL_Driver/Inc/stm32l1xx_ll_gpio.h ****   * @rmtoll PUPDR        PUPDy         LL_GPIO_SetPinPull
 461:Drivers/STM32L1xx_HAL_Driver/Inc/stm32l1xx_ll_gpio.h ****   * @param  GPIOx GPIO Port
 462:Drivers/STM32L1xx_HAL_Driver/Inc/stm32l1xx_ll_gpio.h ****   * @param  Pin This parameter can be one of the following values:
ARM GAS  C:\Users\domen\AppData\Local\Temp\ccQylUhh.s 			page 46


 463:Drivers/STM32L1xx_HAL_Driver/Inc/stm32l1xx_ll_gpio.h ****   *         @arg @ref LL_GPIO_PIN_0
 464:Drivers/STM32L1xx_HAL_Driver/Inc/stm32l1xx_ll_gpio.h ****   *         @arg @ref LL_GPIO_PIN_1
 465:Drivers/STM32L1xx_HAL_Driver/Inc/stm32l1xx_ll_gpio.h ****   *         @arg @ref LL_GPIO_PIN_2
 466:Drivers/STM32L1xx_HAL_Driver/Inc/stm32l1xx_ll_gpio.h ****   *         @arg @ref LL_GPIO_PIN_3
 467:Drivers/STM32L1xx_HAL_Driver/Inc/stm32l1xx_ll_gpio.h ****   *         @arg @ref LL_GPIO_PIN_4
 468:Drivers/STM32L1xx_HAL_Driver/Inc/stm32l1xx_ll_gpio.h ****   *         @arg @ref LL_GPIO_PIN_5
 469:Drivers/STM32L1xx_HAL_Driver/Inc/stm32l1xx_ll_gpio.h ****   *         @arg @ref LL_GPIO_PIN_6
 470:Drivers/STM32L1xx_HAL_Driver/Inc/stm32l1xx_ll_gpio.h ****   *         @arg @ref LL_GPIO_PIN_7
 471:Drivers/STM32L1xx_HAL_Driver/Inc/stm32l1xx_ll_gpio.h ****   *         @arg @ref LL_GPIO_PIN_8
 472:Drivers/STM32L1xx_HAL_Driver/Inc/stm32l1xx_ll_gpio.h ****   *         @arg @ref LL_GPIO_PIN_9
 473:Drivers/STM32L1xx_HAL_Driver/Inc/stm32l1xx_ll_gpio.h ****   *         @arg @ref LL_GPIO_PIN_10
 474:Drivers/STM32L1xx_HAL_Driver/Inc/stm32l1xx_ll_gpio.h ****   *         @arg @ref LL_GPIO_PIN_11
 475:Drivers/STM32L1xx_HAL_Driver/Inc/stm32l1xx_ll_gpio.h ****   *         @arg @ref LL_GPIO_PIN_12
 476:Drivers/STM32L1xx_HAL_Driver/Inc/stm32l1xx_ll_gpio.h ****   *         @arg @ref LL_GPIO_PIN_13
 477:Drivers/STM32L1xx_HAL_Driver/Inc/stm32l1xx_ll_gpio.h ****   *         @arg @ref LL_GPIO_PIN_14
 478:Drivers/STM32L1xx_HAL_Driver/Inc/stm32l1xx_ll_gpio.h ****   *         @arg @ref LL_GPIO_PIN_15
 479:Drivers/STM32L1xx_HAL_Driver/Inc/stm32l1xx_ll_gpio.h ****   * @param  Pull This parameter can be one of the following values:
 480:Drivers/STM32L1xx_HAL_Driver/Inc/stm32l1xx_ll_gpio.h ****   *         @arg @ref LL_GPIO_PULL_NO
 481:Drivers/STM32L1xx_HAL_Driver/Inc/stm32l1xx_ll_gpio.h ****   *         @arg @ref LL_GPIO_PULL_UP
 482:Drivers/STM32L1xx_HAL_Driver/Inc/stm32l1xx_ll_gpio.h ****   *         @arg @ref LL_GPIO_PULL_DOWN
 483:Drivers/STM32L1xx_HAL_Driver/Inc/stm32l1xx_ll_gpio.h ****   * @retval None
 484:Drivers/STM32L1xx_HAL_Driver/Inc/stm32l1xx_ll_gpio.h ****   */
 485:Drivers/STM32L1xx_HAL_Driver/Inc/stm32l1xx_ll_gpio.h **** __STATIC_INLINE void LL_GPIO_SetPinPull(GPIO_TypeDef *GPIOx, uint32_t Pin, uint32_t Pull)
 467              		.loc 4 485 22 view .LVU109
 468              	.LBB111:
 486:Drivers/STM32L1xx_HAL_Driver/Inc/stm32l1xx_ll_gpio.h **** {
 487:Drivers/STM32L1xx_HAL_Driver/Inc/stm32l1xx_ll_gpio.h ****   MODIFY_REG(GPIOx->PUPDR, (GPIO_PUPDR_PUPDR0 << (POSITION_VAL(Pin) * 2U)), (Pull << (POSITION_VAL(
 469              		.loc 4 487 3 view .LVU110
 470 00aa FB68     		ldr	r3, [r7, #12]
 471              	.LVL36:
 472              	.LBB112:
 473              	.LBI112:
 981:Drivers/CMSIS/Include/cmsis_gcc.h **** {
 474              		.loc 3 981 31 view .LVU111
 475              	.LBB113:
 983:Drivers/CMSIS/Include/cmsis_gcc.h **** 
 476              		.loc 3 983 3 view .LVU112
 988:Drivers/CMSIS/Include/cmsis_gcc.h **** #else
 477              		.loc 3 988 4 view .LVU113
 478              		.syntax unified
 479              	@ 988 "Drivers/CMSIS/Include/cmsis_gcc.h" 1
 480 00ac 94FAA4F2 		rbit r2, r4
 481              	@ 0 "" 2
 482              	.LVL37:
 483              		.loc 3 1001 3 view .LVU114
 484              		.loc 3 1001 3 is_stmt 0 view .LVU115
 485              		.thumb
 486              		.syntax unified
 487              	.LBE113:
 488              	.LBE112:
 489              		.loc 4 487 3 view .LVU116
 490 00b0 B2FA82F2 		clz	r2, r2
 491 00b4 5200     		lsls	r2, r2, #1
 492 00b6 0320     		movs	r0, #3
 493 00b8 00FA02F2 		lsl	r2, r0, r2
 494 00bc 23EA0203 		bic	r3, r3, r2
 495              	.LVL38:
ARM GAS  C:\Users\domen\AppData\Local\Temp\ccQylUhh.s 			page 47


 496              	.LBB114:
 497              	.LBI114:
 981:Drivers/CMSIS/Include/cmsis_gcc.h **** {
 498              		.loc 3 981 31 is_stmt 1 view .LVU117
 499              	.LBB115:
 983:Drivers/CMSIS/Include/cmsis_gcc.h **** 
 500              		.loc 3 983 3 view .LVU118
 988:Drivers/CMSIS/Include/cmsis_gcc.h **** #else
 501              		.loc 3 988 4 view .LVU119
 502              		.syntax unified
 503              	@ 988 "Drivers/CMSIS/Include/cmsis_gcc.h" 1
 504 00c0 94FAA4F2 		rbit r2, r4
 505              	@ 0 "" 2
 506              	.LVL39:
 507              		.loc 3 1001 3 view .LVU120
 508              		.loc 3 1001 3 is_stmt 0 view .LVU121
 509              		.thumb
 510              		.syntax unified
 511              	.LBE115:
 512              	.LBE114:
 513              		.loc 4 487 3 view .LVU122
 514 00c4 B2FA82F2 		clz	r2, r2
 515 00c8 5200     		lsls	r2, r2, #1
 516 00ca 01FA02F2 		lsl	r2, r1, r2
 517 00ce 1343     		orrs	r3, r3, r2
 518 00d0 FB60     		str	r3, [r7, #12]
 519              	.LVL40:
 520              		.loc 4 487 3 view .LVU123
 521              	.LBE111:
 522              	.LBE110:
 216:Drivers/STM32L1xx_HAL_Driver/Src/stm32l1xx_ll_gpio.c **** 
 217:Drivers/STM32L1xx_HAL_Driver/Src/stm32l1xx_ll_gpio.c ****       if (GPIO_InitStruct->Mode == LL_GPIO_MODE_ALTERNATE)
 523              		.loc 1 217 7 is_stmt 1 view .LVU124
 524              		.loc 1 217 26 is_stmt 0 view .LVU125
 525 00d2 6B68     		ldr	r3, [r5, #4]
 526              		.loc 1 217 10 view .LVU126
 527 00d4 022B     		cmp	r3, #2
 528 00d6 25D0     		beq	.L35
 529              	.LVL41:
 530              	.L23:
 218:Drivers/STM32L1xx_HAL_Driver/Src/stm32l1xx_ll_gpio.c ****       {
 219:Drivers/STM32L1xx_HAL_Driver/Src/stm32l1xx_ll_gpio.c ****         /* Check Alternate parameter */
 220:Drivers/STM32L1xx_HAL_Driver/Src/stm32l1xx_ll_gpio.c ****         assert_param(IS_LL_GPIO_ALTERNATE(GPIO_InitStruct->Alternate));
 221:Drivers/STM32L1xx_HAL_Driver/Src/stm32l1xx_ll_gpio.c **** 
 222:Drivers/STM32L1xx_HAL_Driver/Src/stm32l1xx_ll_gpio.c ****         /* Speed mode configuration */
 223:Drivers/STM32L1xx_HAL_Driver/Src/stm32l1xx_ll_gpio.c ****         if (POSITION_VAL(currentpin) < 0x00000008U)
 224:Drivers/STM32L1xx_HAL_Driver/Src/stm32l1xx_ll_gpio.c ****         {
 225:Drivers/STM32L1xx_HAL_Driver/Src/stm32l1xx_ll_gpio.c ****           LL_GPIO_SetAFPin_0_7(GPIOx, currentpin, GPIO_InitStruct->Alternate);
 226:Drivers/STM32L1xx_HAL_Driver/Src/stm32l1xx_ll_gpio.c ****         }
 227:Drivers/STM32L1xx_HAL_Driver/Src/stm32l1xx_ll_gpio.c ****         else
 228:Drivers/STM32L1xx_HAL_Driver/Src/stm32l1xx_ll_gpio.c ****         {
 229:Drivers/STM32L1xx_HAL_Driver/Src/stm32l1xx_ll_gpio.c ****           LL_GPIO_SetAFPin_8_15(GPIOx, currentpin, GPIO_InitStruct->Alternate);
 230:Drivers/STM32L1xx_HAL_Driver/Src/stm32l1xx_ll_gpio.c ****         }
 231:Drivers/STM32L1xx_HAL_Driver/Src/stm32l1xx_ll_gpio.c ****       }
 232:Drivers/STM32L1xx_HAL_Driver/Src/stm32l1xx_ll_gpio.c ****     }
 233:Drivers/STM32L1xx_HAL_Driver/Src/stm32l1xx_ll_gpio.c ****     pinpos++;
 531              		.loc 1 233 5 is_stmt 1 view .LVU127
ARM GAS  C:\Users\domen\AppData\Local\Temp\ccQylUhh.s 			page 48


 532              		.loc 1 233 11 is_stmt 0 view .LVU128
 533 00d8 0136     		adds	r6, r6, #1
 534              	.LVL42:
 535              	.L22:
 195:Drivers/STM32L1xx_HAL_Driver/Src/stm32l1xx_ll_gpio.c ****   {
 536              		.loc 1 195 27 view .LVU129
 537 00da 2B68     		ldr	r3, [r5]
 195:Drivers/STM32L1xx_HAL_Driver/Src/stm32l1xx_ll_gpio.c ****   {
 538              		.loc 1 195 9 view .LVU130
 539 00dc 33FA06F2 		lsrs	r2, r3, r6
 540 00e0 5BD0     		beq	.L36
 198:Drivers/STM32L1xx_HAL_Driver/Src/stm32l1xx_ll_gpio.c **** 
 541              		.loc 1 198 5 is_stmt 1 view .LVU131
 198:Drivers/STM32L1xx_HAL_Driver/Src/stm32l1xx_ll_gpio.c **** 
 542              		.loc 1 198 56 is_stmt 0 view .LVU132
 543 00e2 0124     		movs	r4, #1
 544 00e4 B440     		lsls	r4, r4, r6
 545              	.LVL43:
 200:Drivers/STM32L1xx_HAL_Driver/Src/stm32l1xx_ll_gpio.c ****     {
 546              		.loc 1 200 5 is_stmt 1 view .LVU133
 200:Drivers/STM32L1xx_HAL_Driver/Src/stm32l1xx_ll_gpio.c ****     {
 547              		.loc 1 200 8 is_stmt 0 view .LVU134
 548 00e6 1C40     		ands	r4, r4, r3
 549              	.LVL44:
 200:Drivers/STM32L1xx_HAL_Driver/Src/stm32l1xx_ll_gpio.c ****     {
 550              		.loc 1 200 8 view .LVU135
 551 00e8 F6D0     		beq	.L23
 203:Drivers/STM32L1xx_HAL_Driver/Src/stm32l1xx_ll_gpio.c **** 
 552              		.loc 1 203 7 is_stmt 1 view .LVU136
 553 00ea 6968     		ldr	r1, [r5, #4]
 554              	.LVL45:
 555              	.LBB116:
 556              	.LBI116:
 274:Drivers/STM32L1xx_HAL_Driver/Inc/stm32l1xx_ll_gpio.h **** {
 557              		.loc 4 274 22 view .LVU137
 558              	.LBB117:
 276:Drivers/STM32L1xx_HAL_Driver/Inc/stm32l1xx_ll_gpio.h **** }
 559              		.loc 4 276 3 view .LVU138
 560 00ec 3B68     		ldr	r3, [r7]
 561              	.LVL46:
 562              	.LBB118:
 563              	.LBI118:
 981:Drivers/CMSIS/Include/cmsis_gcc.h **** {
 564              		.loc 3 981 31 view .LVU139
 565              	.LBB119:
 983:Drivers/CMSIS/Include/cmsis_gcc.h **** 
 566              		.loc 3 983 3 view .LVU140
 988:Drivers/CMSIS/Include/cmsis_gcc.h **** #else
 567              		.loc 3 988 4 view .LVU141
 568              		.syntax unified
 569              	@ 988 "Drivers/CMSIS/Include/cmsis_gcc.h" 1
 570 00ee 94FAA4F2 		rbit r2, r4
 571              	@ 0 "" 2
 572              	.LVL47:
 573              		.loc 3 1001 3 view .LVU142
 574              		.loc 3 1001 3 is_stmt 0 view .LVU143
 575              		.thumb
ARM GAS  C:\Users\domen\AppData\Local\Temp\ccQylUhh.s 			page 49


 576              		.syntax unified
 577              	.LBE119:
 578              	.LBE118:
 276:Drivers/STM32L1xx_HAL_Driver/Inc/stm32l1xx_ll_gpio.h **** }
 579              		.loc 4 276 3 view .LVU144
 580 00f2 B2FA82F2 		clz	r2, r2
 581 00f6 5200     		lsls	r2, r2, #1
 582 00f8 0320     		movs	r0, #3
 583 00fa 00FA02F2 		lsl	r2, r0, r2
 584 00fe 23EA0203 		bic	r3, r3, r2
 585              	.LVL48:
 586              	.LBB120:
 587              	.LBI120:
 981:Drivers/CMSIS/Include/cmsis_gcc.h **** {
 588              		.loc 3 981 31 is_stmt 1 view .LVU145
 589              	.LBB121:
 983:Drivers/CMSIS/Include/cmsis_gcc.h **** 
 590              		.loc 3 983 3 view .LVU146
 988:Drivers/CMSIS/Include/cmsis_gcc.h **** #else
 591              		.loc 3 988 4 view .LVU147
 592              		.syntax unified
 593              	@ 988 "Drivers/CMSIS/Include/cmsis_gcc.h" 1
 594 0102 94FAA4F2 		rbit r2, r4
 595              	@ 0 "" 2
 596              	.LVL49:
 597              		.loc 3 1001 3 view .LVU148
 598              		.loc 3 1001 3 is_stmt 0 view .LVU149
 599              		.thumb
 600              		.syntax unified
 601              	.LBE121:
 602              	.LBE120:
 276:Drivers/STM32L1xx_HAL_Driver/Inc/stm32l1xx_ll_gpio.h **** }
 603              		.loc 4 276 3 view .LVU150
 604 0106 B2FA82F2 		clz	r2, r2
 605 010a 5200     		lsls	r2, r2, #1
 606 010c 01FA02F2 		lsl	r2, r1, r2
 607 0110 1343     		orrs	r3, r3, r2
 608 0112 3B60     		str	r3, [r7]
 609              	.LVL50:
 276:Drivers/STM32L1xx_HAL_Driver/Inc/stm32l1xx_ll_gpio.h **** }
 610              		.loc 4 276 3 view .LVU151
 611              	.LBE117:
 612              	.LBE116:
 205:Drivers/STM32L1xx_HAL_Driver/Src/stm32l1xx_ll_gpio.c ****       {
 613              		.loc 1 205 7 is_stmt 1 view .LVU152
 205:Drivers/STM32L1xx_HAL_Driver/Src/stm32l1xx_ll_gpio.c ****       {
 614              		.loc 1 205 27 is_stmt 0 view .LVU153
 615 0114 6B68     		ldr	r3, [r5, #4]
 205:Drivers/STM32L1xx_HAL_Driver/Src/stm32l1xx_ll_gpio.c ****       {
 616              		.loc 1 205 58 view .LVU154
 617 0116 013B     		subs	r3, r3, #1
 205:Drivers/STM32L1xx_HAL_Driver/Src/stm32l1xx_ll_gpio.c ****       {
 618              		.loc 1 205 10 view .LVU155
 619 0118 012B     		cmp	r3, #1
 620 011a C5D8     		bhi	.L24
 208:Drivers/STM32L1xx_HAL_Driver/Src/stm32l1xx_ll_gpio.c **** 
 621              		.loc 1 208 9 is_stmt 1 view .LVU156
ARM GAS  C:\Users\domen\AppData\Local\Temp\ccQylUhh.s 			page 50


 622 011c AB68     		ldr	r3, [r5, #8]
 623 011e 8342     		cmp	r3, r0
 624 0120 ADD9     		bls	.L25
 625 0122 A8E7     		b	.L37
 626              	.L35:
 220:Drivers/STM32L1xx_HAL_Driver/Src/stm32l1xx_ll_gpio.c **** 
 627              		.loc 1 220 9 view .LVU157
 628 0124 6B69     		ldr	r3, [r5, #20]
 629 0126 0F2B     		cmp	r3, #15
 630 0128 1BD8     		bhi	.L38
 631              	.L26:
 223:Drivers/STM32L1xx_HAL_Driver/Src/stm32l1xx_ll_gpio.c ****         {
 632              		.loc 1 223 9 view .LVU158
 633              	.LVL51:
 634              	.LBB122:
 635              	.LBI122:
 981:Drivers/CMSIS/Include/cmsis_gcc.h **** {
 636              		.loc 3 981 31 view .LVU159
 637              	.LBB123:
 983:Drivers/CMSIS/Include/cmsis_gcc.h **** 
 638              		.loc 3 983 3 view .LVU160
 988:Drivers/CMSIS/Include/cmsis_gcc.h **** #else
 639              		.loc 3 988 4 view .LVU161
 640              		.syntax unified
 641              	@ 988 "Drivers/CMSIS/Include/cmsis_gcc.h" 1
 642 012a 94FAA4F3 		rbit r3, r4
 643              	@ 0 "" 2
 644              	.LVL52:
 645              		.loc 3 1001 3 view .LVU162
 646              		.loc 3 1001 3 is_stmt 0 view .LVU163
 647              		.thumb
 648              		.syntax unified
 649              	.LBE123:
 650              	.LBE122:
 223:Drivers/STM32L1xx_HAL_Driver/Src/stm32l1xx_ll_gpio.c ****         {
 651              		.loc 1 223 13 view .LVU164
 652 012e B3FA83F3 		clz	r3, r3
 223:Drivers/STM32L1xx_HAL_Driver/Src/stm32l1xx_ll_gpio.c ****         {
 653              		.loc 1 223 12 view .LVU165
 654 0132 072B     		cmp	r3, #7
 655 0134 1AD8     		bhi	.L27
 225:Drivers/STM32L1xx_HAL_Driver/Src/stm32l1xx_ll_gpio.c ****         }
 656              		.loc 1 225 11 is_stmt 1 view .LVU166
 657 0136 6969     		ldr	r1, [r5, #20]
 658              	.LVL53:
 659              	.LBB124:
 660              	.LBI124:
 488:Drivers/STM32L1xx_HAL_Driver/Inc/stm32l1xx_ll_gpio.h **** }
 489:Drivers/STM32L1xx_HAL_Driver/Inc/stm32l1xx_ll_gpio.h **** 
 490:Drivers/STM32L1xx_HAL_Driver/Inc/stm32l1xx_ll_gpio.h **** /**
 491:Drivers/STM32L1xx_HAL_Driver/Inc/stm32l1xx_ll_gpio.h ****   * @brief  Return gpio pull-up or pull-down for a dedicated pin on a dedicated port
 492:Drivers/STM32L1xx_HAL_Driver/Inc/stm32l1xx_ll_gpio.h ****   * @note   Warning: only one pin can be passed as parameter.
 493:Drivers/STM32L1xx_HAL_Driver/Inc/stm32l1xx_ll_gpio.h ****   * @rmtoll PUPDR        PUPDy         LL_GPIO_GetPinPull
 494:Drivers/STM32L1xx_HAL_Driver/Inc/stm32l1xx_ll_gpio.h ****   * @param  GPIOx GPIO Port
 495:Drivers/STM32L1xx_HAL_Driver/Inc/stm32l1xx_ll_gpio.h ****   * @param  Pin This parameter can be one of the following values:
 496:Drivers/STM32L1xx_HAL_Driver/Inc/stm32l1xx_ll_gpio.h ****   *         @arg @ref LL_GPIO_PIN_0
 497:Drivers/STM32L1xx_HAL_Driver/Inc/stm32l1xx_ll_gpio.h ****   *         @arg @ref LL_GPIO_PIN_1
ARM GAS  C:\Users\domen\AppData\Local\Temp\ccQylUhh.s 			page 51


 498:Drivers/STM32L1xx_HAL_Driver/Inc/stm32l1xx_ll_gpio.h ****   *         @arg @ref LL_GPIO_PIN_2
 499:Drivers/STM32L1xx_HAL_Driver/Inc/stm32l1xx_ll_gpio.h ****   *         @arg @ref LL_GPIO_PIN_3
 500:Drivers/STM32L1xx_HAL_Driver/Inc/stm32l1xx_ll_gpio.h ****   *         @arg @ref LL_GPIO_PIN_4
 501:Drivers/STM32L1xx_HAL_Driver/Inc/stm32l1xx_ll_gpio.h ****   *         @arg @ref LL_GPIO_PIN_5
 502:Drivers/STM32L1xx_HAL_Driver/Inc/stm32l1xx_ll_gpio.h ****   *         @arg @ref LL_GPIO_PIN_6
 503:Drivers/STM32L1xx_HAL_Driver/Inc/stm32l1xx_ll_gpio.h ****   *         @arg @ref LL_GPIO_PIN_7
 504:Drivers/STM32L1xx_HAL_Driver/Inc/stm32l1xx_ll_gpio.h ****   *         @arg @ref LL_GPIO_PIN_8
 505:Drivers/STM32L1xx_HAL_Driver/Inc/stm32l1xx_ll_gpio.h ****   *         @arg @ref LL_GPIO_PIN_9
 506:Drivers/STM32L1xx_HAL_Driver/Inc/stm32l1xx_ll_gpio.h ****   *         @arg @ref LL_GPIO_PIN_10
 507:Drivers/STM32L1xx_HAL_Driver/Inc/stm32l1xx_ll_gpio.h ****   *         @arg @ref LL_GPIO_PIN_11
 508:Drivers/STM32L1xx_HAL_Driver/Inc/stm32l1xx_ll_gpio.h ****   *         @arg @ref LL_GPIO_PIN_12
 509:Drivers/STM32L1xx_HAL_Driver/Inc/stm32l1xx_ll_gpio.h ****   *         @arg @ref LL_GPIO_PIN_13
 510:Drivers/STM32L1xx_HAL_Driver/Inc/stm32l1xx_ll_gpio.h ****   *         @arg @ref LL_GPIO_PIN_14
 511:Drivers/STM32L1xx_HAL_Driver/Inc/stm32l1xx_ll_gpio.h ****   *         @arg @ref LL_GPIO_PIN_15
 512:Drivers/STM32L1xx_HAL_Driver/Inc/stm32l1xx_ll_gpio.h ****   * @retval Returned value can be one of the following values:
 513:Drivers/STM32L1xx_HAL_Driver/Inc/stm32l1xx_ll_gpio.h ****   *         @arg @ref LL_GPIO_PULL_NO
 514:Drivers/STM32L1xx_HAL_Driver/Inc/stm32l1xx_ll_gpio.h ****   *         @arg @ref LL_GPIO_PULL_UP
 515:Drivers/STM32L1xx_HAL_Driver/Inc/stm32l1xx_ll_gpio.h ****   *         @arg @ref LL_GPIO_PULL_DOWN
 516:Drivers/STM32L1xx_HAL_Driver/Inc/stm32l1xx_ll_gpio.h ****   */
 517:Drivers/STM32L1xx_HAL_Driver/Inc/stm32l1xx_ll_gpio.h **** __STATIC_INLINE uint32_t LL_GPIO_GetPinPull(GPIO_TypeDef *GPIOx, uint32_t Pin)
 518:Drivers/STM32L1xx_HAL_Driver/Inc/stm32l1xx_ll_gpio.h **** {
 519:Drivers/STM32L1xx_HAL_Driver/Inc/stm32l1xx_ll_gpio.h ****   return (uint32_t)(READ_BIT(GPIOx->PUPDR,
 520:Drivers/STM32L1xx_HAL_Driver/Inc/stm32l1xx_ll_gpio.h ****                              (GPIO_PUPDR_PUPDR0 << (POSITION_VAL(Pin) * 2U))) >> (POSITION_VAL(Pin)
 521:Drivers/STM32L1xx_HAL_Driver/Inc/stm32l1xx_ll_gpio.h **** }
 522:Drivers/STM32L1xx_HAL_Driver/Inc/stm32l1xx_ll_gpio.h **** 
 523:Drivers/STM32L1xx_HAL_Driver/Inc/stm32l1xx_ll_gpio.h **** /**
 524:Drivers/STM32L1xx_HAL_Driver/Inc/stm32l1xx_ll_gpio.h ****   * @brief  Configure gpio alternate function of a dedicated pin from 0 to 7 for a dedicated port.
 525:Drivers/STM32L1xx_HAL_Driver/Inc/stm32l1xx_ll_gpio.h ****   * @note   Possible values are from AF0 to AF15 depending on target.
 526:Drivers/STM32L1xx_HAL_Driver/Inc/stm32l1xx_ll_gpio.h ****   * @note   Warning: only one pin can be passed as parameter.
 527:Drivers/STM32L1xx_HAL_Driver/Inc/stm32l1xx_ll_gpio.h ****   * @rmtoll AFRL         AFSELy        LL_GPIO_SetAFPin_0_7
 528:Drivers/STM32L1xx_HAL_Driver/Inc/stm32l1xx_ll_gpio.h ****   * @param  GPIOx GPIO Port
 529:Drivers/STM32L1xx_HAL_Driver/Inc/stm32l1xx_ll_gpio.h ****   * @param  Pin This parameter can be one of the following values:
 530:Drivers/STM32L1xx_HAL_Driver/Inc/stm32l1xx_ll_gpio.h ****   *         @arg @ref LL_GPIO_PIN_0
 531:Drivers/STM32L1xx_HAL_Driver/Inc/stm32l1xx_ll_gpio.h ****   *         @arg @ref LL_GPIO_PIN_1
 532:Drivers/STM32L1xx_HAL_Driver/Inc/stm32l1xx_ll_gpio.h ****   *         @arg @ref LL_GPIO_PIN_2
 533:Drivers/STM32L1xx_HAL_Driver/Inc/stm32l1xx_ll_gpio.h ****   *         @arg @ref LL_GPIO_PIN_3
 534:Drivers/STM32L1xx_HAL_Driver/Inc/stm32l1xx_ll_gpio.h ****   *         @arg @ref LL_GPIO_PIN_4
 535:Drivers/STM32L1xx_HAL_Driver/Inc/stm32l1xx_ll_gpio.h ****   *         @arg @ref LL_GPIO_PIN_5
 536:Drivers/STM32L1xx_HAL_Driver/Inc/stm32l1xx_ll_gpio.h ****   *         @arg @ref LL_GPIO_PIN_6
 537:Drivers/STM32L1xx_HAL_Driver/Inc/stm32l1xx_ll_gpio.h ****   *         @arg @ref LL_GPIO_PIN_7
 538:Drivers/STM32L1xx_HAL_Driver/Inc/stm32l1xx_ll_gpio.h ****   * @param  Alternate This parameter can be one of the following values:
 539:Drivers/STM32L1xx_HAL_Driver/Inc/stm32l1xx_ll_gpio.h ****   *         @arg @ref LL_GPIO_AF_0
 540:Drivers/STM32L1xx_HAL_Driver/Inc/stm32l1xx_ll_gpio.h ****   *         @arg @ref LL_GPIO_AF_1
 541:Drivers/STM32L1xx_HAL_Driver/Inc/stm32l1xx_ll_gpio.h ****   *         @arg @ref LL_GPIO_AF_2
 542:Drivers/STM32L1xx_HAL_Driver/Inc/stm32l1xx_ll_gpio.h ****   *         @arg @ref LL_GPIO_AF_3
 543:Drivers/STM32L1xx_HAL_Driver/Inc/stm32l1xx_ll_gpio.h ****   *         @arg @ref LL_GPIO_AF_4
 544:Drivers/STM32L1xx_HAL_Driver/Inc/stm32l1xx_ll_gpio.h ****   *         @arg @ref LL_GPIO_AF_5
 545:Drivers/STM32L1xx_HAL_Driver/Inc/stm32l1xx_ll_gpio.h ****   *         @arg @ref LL_GPIO_AF_6
 546:Drivers/STM32L1xx_HAL_Driver/Inc/stm32l1xx_ll_gpio.h ****   *         @arg @ref LL_GPIO_AF_7
 547:Drivers/STM32L1xx_HAL_Driver/Inc/stm32l1xx_ll_gpio.h ****   *         @arg @ref LL_GPIO_AF_8
 548:Drivers/STM32L1xx_HAL_Driver/Inc/stm32l1xx_ll_gpio.h ****   *         @arg @ref LL_GPIO_AF_9
 549:Drivers/STM32L1xx_HAL_Driver/Inc/stm32l1xx_ll_gpio.h ****   *         @arg @ref LL_GPIO_AF_10
 550:Drivers/STM32L1xx_HAL_Driver/Inc/stm32l1xx_ll_gpio.h ****   *         @arg @ref LL_GPIO_AF_11
 551:Drivers/STM32L1xx_HAL_Driver/Inc/stm32l1xx_ll_gpio.h ****   *         @arg @ref LL_GPIO_AF_12
 552:Drivers/STM32L1xx_HAL_Driver/Inc/stm32l1xx_ll_gpio.h ****   *         @arg @ref LL_GPIO_AF_13
 553:Drivers/STM32L1xx_HAL_Driver/Inc/stm32l1xx_ll_gpio.h ****   *         @arg @ref LL_GPIO_AF_14
 554:Drivers/STM32L1xx_HAL_Driver/Inc/stm32l1xx_ll_gpio.h ****   *         @arg @ref LL_GPIO_AF_15
ARM GAS  C:\Users\domen\AppData\Local\Temp\ccQylUhh.s 			page 52


 555:Drivers/STM32L1xx_HAL_Driver/Inc/stm32l1xx_ll_gpio.h ****   * @retval None
 556:Drivers/STM32L1xx_HAL_Driver/Inc/stm32l1xx_ll_gpio.h ****   */
 557:Drivers/STM32L1xx_HAL_Driver/Inc/stm32l1xx_ll_gpio.h **** __STATIC_INLINE void LL_GPIO_SetAFPin_0_7(GPIO_TypeDef *GPIOx, uint32_t Pin, uint32_t Alternate)
 661              		.loc 4 557 22 view .LVU167
 662              	.LBB125:
 558:Drivers/STM32L1xx_HAL_Driver/Inc/stm32l1xx_ll_gpio.h **** {
 559:Drivers/STM32L1xx_HAL_Driver/Inc/stm32l1xx_ll_gpio.h ****   MODIFY_REG(GPIOx->AFR[0], (GPIO_AFRL_AFSEL0 << (POSITION_VAL(Pin) * 4U)),
 663              		.loc 4 559 3 view .LVU168
 664 0138 3A6A     		ldr	r2, [r7, #32]
 665              	.LVL54:
 666              	.LBB126:
 667              	.LBI126:
 981:Drivers/CMSIS/Include/cmsis_gcc.h **** {
 668              		.loc 3 981 31 view .LVU169
 669              	.LBB127:
 983:Drivers/CMSIS/Include/cmsis_gcc.h **** 
 670              		.loc 3 983 3 view .LVU170
 988:Drivers/CMSIS/Include/cmsis_gcc.h **** #else
 671              		.loc 3 988 4 view .LVU171
 672              		.syntax unified
 673              	@ 988 "Drivers/CMSIS/Include/cmsis_gcc.h" 1
 674 013a 94FAA4F3 		rbit r3, r4
 675              	@ 0 "" 2
 676              	.LVL55:
 677              		.loc 3 1001 3 view .LVU172
 678              		.loc 3 1001 3 is_stmt 0 view .LVU173
 679              		.thumb
 680              		.syntax unified
 681              	.LBE127:
 682              	.LBE126:
 683              		.loc 4 559 3 view .LVU174
 684 013e B3FA83F3 		clz	r3, r3
 685 0142 9B00     		lsls	r3, r3, #2
 686 0144 0F20     		movs	r0, #15
 687 0146 00FA03F3 		lsl	r3, r0, r3
 688 014a 22EA0302 		bic	r2, r2, r3
 689              	.LVL56:
 690              	.LBB128:
 691              	.LBI128:
 981:Drivers/CMSIS/Include/cmsis_gcc.h **** {
 692              		.loc 3 981 31 is_stmt 1 view .LVU175
 693              	.LBB129:
 983:Drivers/CMSIS/Include/cmsis_gcc.h **** 
 694              		.loc 3 983 3 view .LVU176
 988:Drivers/CMSIS/Include/cmsis_gcc.h **** #else
 695              		.loc 3 988 4 view .LVU177
 696              		.syntax unified
 697              	@ 988 "Drivers/CMSIS/Include/cmsis_gcc.h" 1
 698 014e 94FAA4F3 		rbit r3, r4
 699              	@ 0 "" 2
 700              	.LVL57:
 701              		.loc 3 1001 3 view .LVU178
 702              		.loc 3 1001 3 is_stmt 0 view .LVU179
 703              		.thumb
 704              		.syntax unified
 705              	.LBE129:
 706              	.LBE128:
ARM GAS  C:\Users\domen\AppData\Local\Temp\ccQylUhh.s 			page 53


 707              		.loc 4 559 3 view .LVU180
 708 0152 B3FA83F3 		clz	r3, r3
 709 0156 9B00     		lsls	r3, r3, #2
 710 0158 01FA03F3 		lsl	r3, r1, r3
 711 015c 1343     		orrs	r3, r3, r2
 712 015e 3B62     		str	r3, [r7, #32]
 713 0160 BAE7     		b	.L23
 714              	.LVL58:
 715              	.L38:
 716              		.loc 4 559 3 view .LVU181
 717              	.LBE125:
 718              	.LBE124:
 220:Drivers/STM32L1xx_HAL_Driver/Src/stm32l1xx_ll_gpio.c **** 
 719              		.loc 1 220 9 discriminator 1 view .LVU182
 720 0162 DC21     		movs	r1, #220
 721 0164 1A48     		ldr	r0, .L41+4
 722 0166 FFF7FEFF 		bl	assert_failed
 723              	.LVL59:
 724 016a DEE7     		b	.L26
 725              	.L27:
 229:Drivers/STM32L1xx_HAL_Driver/Src/stm32l1xx_ll_gpio.c ****         }
 726              		.loc 1 229 11 is_stmt 1 view .LVU183
 727 016c 6A69     		ldr	r2, [r5, #20]
 728              	.LVL60:
 729              	.LBB130:
 730              	.LBI130:
 560:Drivers/STM32L1xx_HAL_Driver/Inc/stm32l1xx_ll_gpio.h ****              (Alternate << (POSITION_VAL(Pin) * 4U)));
 561:Drivers/STM32L1xx_HAL_Driver/Inc/stm32l1xx_ll_gpio.h **** }
 562:Drivers/STM32L1xx_HAL_Driver/Inc/stm32l1xx_ll_gpio.h **** 
 563:Drivers/STM32L1xx_HAL_Driver/Inc/stm32l1xx_ll_gpio.h **** /**
 564:Drivers/STM32L1xx_HAL_Driver/Inc/stm32l1xx_ll_gpio.h ****   * @brief  Return gpio alternate function of a dedicated pin from 0 to 7 for a dedicated port.
 565:Drivers/STM32L1xx_HAL_Driver/Inc/stm32l1xx_ll_gpio.h ****   * @rmtoll AFRL         AFSELy        LL_GPIO_GetAFPin_0_7
 566:Drivers/STM32L1xx_HAL_Driver/Inc/stm32l1xx_ll_gpio.h ****   * @param  GPIOx GPIO Port
 567:Drivers/STM32L1xx_HAL_Driver/Inc/stm32l1xx_ll_gpio.h ****   * @param  Pin This parameter can be one of the following values:
 568:Drivers/STM32L1xx_HAL_Driver/Inc/stm32l1xx_ll_gpio.h ****   *         @arg @ref LL_GPIO_PIN_0
 569:Drivers/STM32L1xx_HAL_Driver/Inc/stm32l1xx_ll_gpio.h ****   *         @arg @ref LL_GPIO_PIN_1
 570:Drivers/STM32L1xx_HAL_Driver/Inc/stm32l1xx_ll_gpio.h ****   *         @arg @ref LL_GPIO_PIN_2
 571:Drivers/STM32L1xx_HAL_Driver/Inc/stm32l1xx_ll_gpio.h ****   *         @arg @ref LL_GPIO_PIN_3
 572:Drivers/STM32L1xx_HAL_Driver/Inc/stm32l1xx_ll_gpio.h ****   *         @arg @ref LL_GPIO_PIN_4
 573:Drivers/STM32L1xx_HAL_Driver/Inc/stm32l1xx_ll_gpio.h ****   *         @arg @ref LL_GPIO_PIN_5
 574:Drivers/STM32L1xx_HAL_Driver/Inc/stm32l1xx_ll_gpio.h ****   *         @arg @ref LL_GPIO_PIN_6
 575:Drivers/STM32L1xx_HAL_Driver/Inc/stm32l1xx_ll_gpio.h ****   *         @arg @ref LL_GPIO_PIN_7
 576:Drivers/STM32L1xx_HAL_Driver/Inc/stm32l1xx_ll_gpio.h ****   * @retval Returned value can be one of the following values:
 577:Drivers/STM32L1xx_HAL_Driver/Inc/stm32l1xx_ll_gpio.h ****   *         @arg @ref LL_GPIO_AF_0
 578:Drivers/STM32L1xx_HAL_Driver/Inc/stm32l1xx_ll_gpio.h ****   *         @arg @ref LL_GPIO_AF_1
 579:Drivers/STM32L1xx_HAL_Driver/Inc/stm32l1xx_ll_gpio.h ****   *         @arg @ref LL_GPIO_AF_2
 580:Drivers/STM32L1xx_HAL_Driver/Inc/stm32l1xx_ll_gpio.h ****   *         @arg @ref LL_GPIO_AF_3
 581:Drivers/STM32L1xx_HAL_Driver/Inc/stm32l1xx_ll_gpio.h ****   *         @arg @ref LL_GPIO_AF_4
 582:Drivers/STM32L1xx_HAL_Driver/Inc/stm32l1xx_ll_gpio.h ****   *         @arg @ref LL_GPIO_AF_5
 583:Drivers/STM32L1xx_HAL_Driver/Inc/stm32l1xx_ll_gpio.h ****   *         @arg @ref LL_GPIO_AF_6
 584:Drivers/STM32L1xx_HAL_Driver/Inc/stm32l1xx_ll_gpio.h ****   *         @arg @ref LL_GPIO_AF_7
 585:Drivers/STM32L1xx_HAL_Driver/Inc/stm32l1xx_ll_gpio.h ****   *         @arg @ref LL_GPIO_AF_8
 586:Drivers/STM32L1xx_HAL_Driver/Inc/stm32l1xx_ll_gpio.h ****   *         @arg @ref LL_GPIO_AF_9
 587:Drivers/STM32L1xx_HAL_Driver/Inc/stm32l1xx_ll_gpio.h ****   *         @arg @ref LL_GPIO_AF_10
 588:Drivers/STM32L1xx_HAL_Driver/Inc/stm32l1xx_ll_gpio.h ****   *         @arg @ref LL_GPIO_AF_11
 589:Drivers/STM32L1xx_HAL_Driver/Inc/stm32l1xx_ll_gpio.h ****   *         @arg @ref LL_GPIO_AF_12
 590:Drivers/STM32L1xx_HAL_Driver/Inc/stm32l1xx_ll_gpio.h ****   *         @arg @ref LL_GPIO_AF_13
ARM GAS  C:\Users\domen\AppData\Local\Temp\ccQylUhh.s 			page 54


 591:Drivers/STM32L1xx_HAL_Driver/Inc/stm32l1xx_ll_gpio.h ****   *         @arg @ref LL_GPIO_AF_14
 592:Drivers/STM32L1xx_HAL_Driver/Inc/stm32l1xx_ll_gpio.h ****   *         @arg @ref LL_GPIO_AF_15
 593:Drivers/STM32L1xx_HAL_Driver/Inc/stm32l1xx_ll_gpio.h ****   */
 594:Drivers/STM32L1xx_HAL_Driver/Inc/stm32l1xx_ll_gpio.h **** __STATIC_INLINE uint32_t LL_GPIO_GetAFPin_0_7(GPIO_TypeDef *GPIOx, uint32_t Pin)
 595:Drivers/STM32L1xx_HAL_Driver/Inc/stm32l1xx_ll_gpio.h **** {
 596:Drivers/STM32L1xx_HAL_Driver/Inc/stm32l1xx_ll_gpio.h ****   return (uint32_t)(READ_BIT(GPIOx->AFR[0],
 597:Drivers/STM32L1xx_HAL_Driver/Inc/stm32l1xx_ll_gpio.h ****                              (GPIO_AFRL_AFSEL0 << (POSITION_VAL(Pin) * 4U))) >> (POSITION_VAL(Pin) 
 598:Drivers/STM32L1xx_HAL_Driver/Inc/stm32l1xx_ll_gpio.h **** }
 599:Drivers/STM32L1xx_HAL_Driver/Inc/stm32l1xx_ll_gpio.h **** 
 600:Drivers/STM32L1xx_HAL_Driver/Inc/stm32l1xx_ll_gpio.h **** /**
 601:Drivers/STM32L1xx_HAL_Driver/Inc/stm32l1xx_ll_gpio.h ****   * @brief  Configure gpio alternate function of a dedicated pin from 8 to 15 for a dedicated port.
 602:Drivers/STM32L1xx_HAL_Driver/Inc/stm32l1xx_ll_gpio.h ****   * @note   Possible values are from AF0 to AF15 depending on target.
 603:Drivers/STM32L1xx_HAL_Driver/Inc/stm32l1xx_ll_gpio.h ****   * @note   Warning: only one pin can be passed as parameter.
 604:Drivers/STM32L1xx_HAL_Driver/Inc/stm32l1xx_ll_gpio.h ****   * @rmtoll AFRH         AFSELy        LL_GPIO_SetAFPin_8_15
 605:Drivers/STM32L1xx_HAL_Driver/Inc/stm32l1xx_ll_gpio.h ****   * @param  GPIOx GPIO Port
 606:Drivers/STM32L1xx_HAL_Driver/Inc/stm32l1xx_ll_gpio.h ****   * @param  Pin This parameter can be one of the following values:
 607:Drivers/STM32L1xx_HAL_Driver/Inc/stm32l1xx_ll_gpio.h ****   *         @arg @ref LL_GPIO_PIN_8
 608:Drivers/STM32L1xx_HAL_Driver/Inc/stm32l1xx_ll_gpio.h ****   *         @arg @ref LL_GPIO_PIN_9
 609:Drivers/STM32L1xx_HAL_Driver/Inc/stm32l1xx_ll_gpio.h ****   *         @arg @ref LL_GPIO_PIN_10
 610:Drivers/STM32L1xx_HAL_Driver/Inc/stm32l1xx_ll_gpio.h ****   *         @arg @ref LL_GPIO_PIN_11
 611:Drivers/STM32L1xx_HAL_Driver/Inc/stm32l1xx_ll_gpio.h ****   *         @arg @ref LL_GPIO_PIN_12
 612:Drivers/STM32L1xx_HAL_Driver/Inc/stm32l1xx_ll_gpio.h ****   *         @arg @ref LL_GPIO_PIN_13
 613:Drivers/STM32L1xx_HAL_Driver/Inc/stm32l1xx_ll_gpio.h ****   *         @arg @ref LL_GPIO_PIN_14
 614:Drivers/STM32L1xx_HAL_Driver/Inc/stm32l1xx_ll_gpio.h ****   *         @arg @ref LL_GPIO_PIN_15
 615:Drivers/STM32L1xx_HAL_Driver/Inc/stm32l1xx_ll_gpio.h ****   * @param  Alternate This parameter can be one of the following values:
 616:Drivers/STM32L1xx_HAL_Driver/Inc/stm32l1xx_ll_gpio.h ****   *         @arg @ref LL_GPIO_AF_0
 617:Drivers/STM32L1xx_HAL_Driver/Inc/stm32l1xx_ll_gpio.h ****   *         @arg @ref LL_GPIO_AF_1
 618:Drivers/STM32L1xx_HAL_Driver/Inc/stm32l1xx_ll_gpio.h ****   *         @arg @ref LL_GPIO_AF_2
 619:Drivers/STM32L1xx_HAL_Driver/Inc/stm32l1xx_ll_gpio.h ****   *         @arg @ref LL_GPIO_AF_3
 620:Drivers/STM32L1xx_HAL_Driver/Inc/stm32l1xx_ll_gpio.h ****   *         @arg @ref LL_GPIO_AF_4
 621:Drivers/STM32L1xx_HAL_Driver/Inc/stm32l1xx_ll_gpio.h ****   *         @arg @ref LL_GPIO_AF_5
 622:Drivers/STM32L1xx_HAL_Driver/Inc/stm32l1xx_ll_gpio.h ****   *         @arg @ref LL_GPIO_AF_6
 623:Drivers/STM32L1xx_HAL_Driver/Inc/stm32l1xx_ll_gpio.h ****   *         @arg @ref LL_GPIO_AF_7
 624:Drivers/STM32L1xx_HAL_Driver/Inc/stm32l1xx_ll_gpio.h ****   *         @arg @ref LL_GPIO_AF_8
 625:Drivers/STM32L1xx_HAL_Driver/Inc/stm32l1xx_ll_gpio.h ****   *         @arg @ref LL_GPIO_AF_9
 626:Drivers/STM32L1xx_HAL_Driver/Inc/stm32l1xx_ll_gpio.h ****   *         @arg @ref LL_GPIO_AF_10
 627:Drivers/STM32L1xx_HAL_Driver/Inc/stm32l1xx_ll_gpio.h ****   *         @arg @ref LL_GPIO_AF_11
 628:Drivers/STM32L1xx_HAL_Driver/Inc/stm32l1xx_ll_gpio.h ****   *         @arg @ref LL_GPIO_AF_12
 629:Drivers/STM32L1xx_HAL_Driver/Inc/stm32l1xx_ll_gpio.h ****   *         @arg @ref LL_GPIO_AF_13
 630:Drivers/STM32L1xx_HAL_Driver/Inc/stm32l1xx_ll_gpio.h ****   *         @arg @ref LL_GPIO_AF_14
 631:Drivers/STM32L1xx_HAL_Driver/Inc/stm32l1xx_ll_gpio.h ****   *         @arg @ref LL_GPIO_AF_15
 632:Drivers/STM32L1xx_HAL_Driver/Inc/stm32l1xx_ll_gpio.h ****   * @retval None
 633:Drivers/STM32L1xx_HAL_Driver/Inc/stm32l1xx_ll_gpio.h ****   */
 634:Drivers/STM32L1xx_HAL_Driver/Inc/stm32l1xx_ll_gpio.h **** __STATIC_INLINE void LL_GPIO_SetAFPin_8_15(GPIO_TypeDef *GPIOx, uint32_t Pin, uint32_t Alternate)
 731              		.loc 4 634 22 view .LVU184
 732              	.LBB131:
 635:Drivers/STM32L1xx_HAL_Driver/Inc/stm32l1xx_ll_gpio.h **** {
 636:Drivers/STM32L1xx_HAL_Driver/Inc/stm32l1xx_ll_gpio.h ****   MODIFY_REG(GPIOx->AFR[1], (GPIO_AFRH_AFSEL8 << (POSITION_VAL(Pin >> 8U) * 4U)),
 733              		.loc 4 636 3 view .LVU185
 734 016e 796A     		ldr	r1, [r7, #36]
 735 0170 230A     		lsrs	r3, r4, #8
 736              	.LVL61:
 737              	.LBB132:
 738              	.LBI132:
 981:Drivers/CMSIS/Include/cmsis_gcc.h **** {
 739              		.loc 3 981 31 view .LVU186
 740              	.LBB133:
ARM GAS  C:\Users\domen\AppData\Local\Temp\ccQylUhh.s 			page 55


 983:Drivers/CMSIS/Include/cmsis_gcc.h **** 
 741              		.loc 3 983 3 view .LVU187
 988:Drivers/CMSIS/Include/cmsis_gcc.h **** #else
 742              		.loc 3 988 4 view .LVU188
 743              		.syntax unified
 744              	@ 988 "Drivers/CMSIS/Include/cmsis_gcc.h" 1
 745 0172 93FAA3F0 		rbit r0, r3
 746              	@ 0 "" 2
 747              	.LVL62:
 748              		.loc 3 1001 3 view .LVU189
 749              		.loc 3 1001 3 is_stmt 0 view .LVU190
 750              		.thumb
 751              		.syntax unified
 752              	.LBE133:
 753              	.LBE132:
 754              		.loc 4 636 3 view .LVU191
 755 0176 B0FA80F0 		clz	r0, r0
 756 017a 8000     		lsls	r0, r0, #2
 757 017c 0F24     		movs	r4, #15
 758              	.LVL63:
 759              		.loc 4 636 3 view .LVU192
 760 017e 04FA00F0 		lsl	r0, r4, r0
 761 0182 21EA0001 		bic	r1, r1, r0
 762              	.LVL64:
 763              	.LBB134:
 764              	.LBI134:
 981:Drivers/CMSIS/Include/cmsis_gcc.h **** {
 765              		.loc 3 981 31 is_stmt 1 view .LVU193
 766              	.LBB135:
 983:Drivers/CMSIS/Include/cmsis_gcc.h **** 
 767              		.loc 3 983 3 view .LVU194
 988:Drivers/CMSIS/Include/cmsis_gcc.h **** #else
 768              		.loc 3 988 4 view .LVU195
 769              		.syntax unified
 770              	@ 988 "Drivers/CMSIS/Include/cmsis_gcc.h" 1
 771 0186 93FAA3F3 		rbit r3, r3
 772              	@ 0 "" 2
 773              	.LVL65:
 774              		.loc 3 1001 3 view .LVU196
 775              		.loc 3 1001 3 is_stmt 0 view .LVU197
 776              		.thumb
 777              		.syntax unified
 778              	.LBE135:
 779              	.LBE134:
 780              		.loc 4 636 3 view .LVU198
 781 018a B3FA83F3 		clz	r3, r3
 782 018e 9B00     		lsls	r3, r3, #2
 783 0190 02FA03F3 		lsl	r3, r2, r3
 784 0194 0B43     		orrs	r3, r3, r1
 785 0196 7B62     		str	r3, [r7, #36]
 786 0198 9EE7     		b	.L23
 787              	.LVL66:
 788              	.L36:
 789              		.loc 4 636 3 view .LVU199
 790              	.LBE131:
 791              	.LBE130:
 234:Drivers/STM32L1xx_HAL_Driver/Src/stm32l1xx_ll_gpio.c ****   }
ARM GAS  C:\Users\domen\AppData\Local\Temp\ccQylUhh.s 			page 56


 235:Drivers/STM32L1xx_HAL_Driver/Src/stm32l1xx_ll_gpio.c **** 
 236:Drivers/STM32L1xx_HAL_Driver/Src/stm32l1xx_ll_gpio.c ****   if ((GPIO_InitStruct->Mode == LL_GPIO_MODE_OUTPUT) || (GPIO_InitStruct->Mode == LL_GPIO_MODE_ALTE
 792              		.loc 1 236 3 is_stmt 1 view .LVU200
 793              		.loc 1 236 23 is_stmt 0 view .LVU201
 794 019a 6B68     		ldr	r3, [r5, #4]
 795              		.loc 1 236 54 view .LVU202
 796 019c 013B     		subs	r3, r3, #1
 797              		.loc 1 236 6 view .LVU203
 798 019e 012B     		cmp	r3, #1
 799 01a0 01D9     		bls	.L39
 800              	.L29:
 237:Drivers/STM32L1xx_HAL_Driver/Src/stm32l1xx_ll_gpio.c ****   {
 238:Drivers/STM32L1xx_HAL_Driver/Src/stm32l1xx_ll_gpio.c ****     /* Check Output mode parameters */
 239:Drivers/STM32L1xx_HAL_Driver/Src/stm32l1xx_ll_gpio.c ****     assert_param(IS_LL_GPIO_OUTPUT_TYPE(GPIO_InitStruct->OutputType));
 240:Drivers/STM32L1xx_HAL_Driver/Src/stm32l1xx_ll_gpio.c **** 
 241:Drivers/STM32L1xx_HAL_Driver/Src/stm32l1xx_ll_gpio.c ****     /* Output mode configuration*/
 242:Drivers/STM32L1xx_HAL_Driver/Src/stm32l1xx_ll_gpio.c ****     LL_GPIO_SetPinOutputType(GPIOx, GPIO_InitStruct->Pin, GPIO_InitStruct->OutputType);
 243:Drivers/STM32L1xx_HAL_Driver/Src/stm32l1xx_ll_gpio.c **** 
 244:Drivers/STM32L1xx_HAL_Driver/Src/stm32l1xx_ll_gpio.c ****   }
 245:Drivers/STM32L1xx_HAL_Driver/Src/stm32l1xx_ll_gpio.c ****   return (SUCCESS);
 801              		.loc 1 245 3 is_stmt 1 view .LVU204
 246:Drivers/STM32L1xx_HAL_Driver/Src/stm32l1xx_ll_gpio.c **** }
 802              		.loc 1 246 1 is_stmt 0 view .LVU205
 803 01a2 0020     		movs	r0, #0
 804 01a4 F8BD     		pop	{r3, r4, r5, r6, r7, pc}
 805              	.LVL67:
 806              	.L39:
 239:Drivers/STM32L1xx_HAL_Driver/Src/stm32l1xx_ll_gpio.c **** 
 807              		.loc 1 239 5 is_stmt 1 view .LVU206
 808 01a6 EB68     		ldr	r3, [r5, #12]
 809 01a8 012B     		cmp	r3, #1
 810 01aa 09D8     		bhi	.L40
 811              	.L30:
 242:Drivers/STM32L1xx_HAL_Driver/Src/stm32l1xx_ll_gpio.c **** 
 812              		.loc 1 242 5 view .LVU207
 813 01ac 2968     		ldr	r1, [r5]
 814 01ae EA68     		ldr	r2, [r5, #12]
 815              	.LVL68:
 816              	.LBB136:
 817              	.LBI136:
 343:Drivers/STM32L1xx_HAL_Driver/Inc/stm32l1xx_ll_gpio.h **** {
 818              		.loc 4 343 22 view .LVU208
 819              	.LBB137:
 345:Drivers/STM32L1xx_HAL_Driver/Inc/stm32l1xx_ll_gpio.h **** }
 820              		.loc 4 345 3 view .LVU209
 821 01b0 7B68     		ldr	r3, [r7, #4]
 822 01b2 23EA0103 		bic	r3, r3, r1
 823 01b6 02FB01F2 		mul	r2, r2, r1
 824              	.LVL69:
 345:Drivers/STM32L1xx_HAL_Driver/Inc/stm32l1xx_ll_gpio.h **** }
 825              		.loc 4 345 3 is_stmt 0 view .LVU210
 826 01ba 1343     		orrs	r3, r3, r2
 827 01bc 7B60     		str	r3, [r7, #4]
 828              	.LVL70:
 345:Drivers/STM32L1xx_HAL_Driver/Inc/stm32l1xx_ll_gpio.h **** }
 829              		.loc 4 345 3 view .LVU211
 830 01be F0E7     		b	.L29
ARM GAS  C:\Users\domen\AppData\Local\Temp\ccQylUhh.s 			page 57


 831              	.LVL71:
 832              	.L40:
 345:Drivers/STM32L1xx_HAL_Driver/Inc/stm32l1xx_ll_gpio.h **** }
 833              		.loc 4 345 3 view .LVU212
 834              	.LBE137:
 835              	.LBE136:
 239:Drivers/STM32L1xx_HAL_Driver/Src/stm32l1xx_ll_gpio.c **** 
 836              		.loc 1 239 5 discriminator 1 view .LVU213
 837 01c0 EF21     		movs	r1, #239
 838 01c2 0348     		ldr	r0, .L41+4
 839 01c4 FFF7FEFF 		bl	assert_failed
 840              	.LVL72:
 841 01c8 F0E7     		b	.L30
 842              	.L42:
 843 01ca 00BF     		.align	2
 844              	.L41:
 845 01cc 00000240 		.word	1073872896
 846 01d0 00000000 		.word	.LC0
 847              		.cfi_endproc
 848              	.LFE117:
 850              		.section	.text.LL_GPIO_StructInit,"ax",%progbits
 851              		.align	1
