ARM GAS  C:\Users\domen\AppData\Local\Temp\ccbqR6EW.s 			page 1


   1              		.cpu cortex-m3
   2              		.eabi_attribute 20, 1
   3              		.eabi_attribute 21, 1
   4              		.eabi_attribute 23, 3
   5              		.eabi_attribute 24, 1
   6              		.eabi_attribute 25, 1
   7              		.eabi_attribute 26, 1
   8              		.eabi_attribute 30, 1
   9              		.eabi_attribute 34, 1
  10              		.eabi_attribute 18, 4
  11              		.file	"stm32l1xx_it.c"
  12              		.text
  13              	.Ltext0:
  14              		.cfi_sections	.debug_frame
  15              		.section	.text.NMI_Handler,"ax",%progbits
  16              		.align	1
  17              		.global	NMI_Handler
  18              		.arch armv7-m
  19              		.syntax unified
  20              		.thumb
  21              		.thumb_func
  22              		.fpu softvfp
  24              	NMI_Handler:
  25              	.LFB832:
  26              		.file 1 "Core/Src/stm32l1xx_it.c"
   1:Core/Src/stm32l1xx_it.c **** /* USER CODE BEGIN Header */
   2:Core/Src/stm32l1xx_it.c **** /**
   3:Core/Src/stm32l1xx_it.c ****   ******************************************************************************
   4:Core/Src/stm32l1xx_it.c ****   * @file    stm32l1xx_it.c
   5:Core/Src/stm32l1xx_it.c ****   * @brief   Interrupt Service Routines.
   6:Core/Src/stm32l1xx_it.c ****   ******************************************************************************
   7:Core/Src/stm32l1xx_it.c ****   * @attention
   8:Core/Src/stm32l1xx_it.c ****   *
   9:Core/Src/stm32l1xx_it.c ****   * <h2><center>&copy; Copyright (c) 2019 STMicroelectronics.
  10:Core/Src/stm32l1xx_it.c ****   * All rights reserved.</center></h2>
  11:Core/Src/stm32l1xx_it.c ****   *
  12:Core/Src/stm32l1xx_it.c ****   * This software component is licensed by ST under BSD 3-Clause license,
  13:Core/Src/stm32l1xx_it.c ****   * the "License"; You may not use this file except in compliance with the
  14:Core/Src/stm32l1xx_it.c ****   * License. You may obtain a copy of the License at:
  15:Core/Src/stm32l1xx_it.c ****   *                        opensource.org/licenses/BSD-3-Clause
  16:Core/Src/stm32l1xx_it.c ****   *
  17:Core/Src/stm32l1xx_it.c ****   ******************************************************************************
  18:Core/Src/stm32l1xx_it.c ****   */
  19:Core/Src/stm32l1xx_it.c **** /* USER CODE END Header */
  20:Core/Src/stm32l1xx_it.c **** 
  21:Core/Src/stm32l1xx_it.c **** /* Includes ------------------------------------------------------------------*/
  22:Core/Src/stm32l1xx_it.c **** #include "main.h"
  23:Core/Src/stm32l1xx_it.c **** #include "stm32l1xx_it.h"
  24:Core/Src/stm32l1xx_it.c **** /* Private includes ----------------------------------------------------------*/
  25:Core/Src/stm32l1xx_it.c **** /* USER CODE BEGIN Includes */
  26:Core/Src/stm32l1xx_it.c **** #include "uart_print_user.h"
  27:Core/Src/stm32l1xx_it.c **** #include "mfd_io.h"
  28:Core/Src/stm32l1xx_it.c **** #include "io.h"
  29:Core/Src/stm32l1xx_it.c **** /* USER CODE END Includes */
  30:Core/Src/stm32l1xx_it.c **** 
  31:Core/Src/stm32l1xx_it.c **** /* Private typedef -----------------------------------------------------------*/
  32:Core/Src/stm32l1xx_it.c **** /* USER CODE BEGIN TD */
ARM GAS  C:\Users\domen\AppData\Local\Temp\ccbqR6EW.s 			page 2


  33:Core/Src/stm32l1xx_it.c **** /* USER CODE END TD */
  34:Core/Src/stm32l1xx_it.c **** 
  35:Core/Src/stm32l1xx_it.c **** /* Private define ------------------------------------------------------------*/
  36:Core/Src/stm32l1xx_it.c **** /* USER CODE BEGIN PD */
  37:Core/Src/stm32l1xx_it.c ****  
  38:Core/Src/stm32l1xx_it.c **** /* USER CODE END PD */
  39:Core/Src/stm32l1xx_it.c **** 
  40:Core/Src/stm32l1xx_it.c **** /* Private macro -------------------------------------------------------------*/
  41:Core/Src/stm32l1xx_it.c **** /* USER CODE BEGIN PM */
  42:Core/Src/stm32l1xx_it.c **** 
  43:Core/Src/stm32l1xx_it.c **** /* USER CODE END PM */
  44:Core/Src/stm32l1xx_it.c **** 
  45:Core/Src/stm32l1xx_it.c **** /* Private variables ---------------------------------------------------------*/
  46:Core/Src/stm32l1xx_it.c **** /* USER CODE BEGIN PV */
  47:Core/Src/stm32l1xx_it.c **** uint32_t sysTickCount = 0;
  48:Core/Src/stm32l1xx_it.c **** 
  49:Core/Src/stm32l1xx_it.c **** /* USER CODE END PV */
  50:Core/Src/stm32l1xx_it.c **** 
  51:Core/Src/stm32l1xx_it.c **** /* Private function prototypes -----------------------------------------------*/
  52:Core/Src/stm32l1xx_it.c **** /* USER CODE BEGIN PFP */
  53:Core/Src/stm32l1xx_it.c **** 
  54:Core/Src/stm32l1xx_it.c **** /* USER CODE END PFP */
  55:Core/Src/stm32l1xx_it.c **** 
  56:Core/Src/stm32l1xx_it.c **** /* Private user code ---------------------------------------------------------*/
  57:Core/Src/stm32l1xx_it.c **** /* USER CODE BEGIN 0 */
  58:Core/Src/stm32l1xx_it.c **** 
  59:Core/Src/stm32l1xx_it.c **** /* USER CODE END 0 */
  60:Core/Src/stm32l1xx_it.c **** 
  61:Core/Src/stm32l1xx_it.c **** /* External variables --------------------------------------------------------*/
  62:Core/Src/stm32l1xx_it.c **** 
  63:Core/Src/stm32l1xx_it.c **** /* USER CODE BEGIN EV */
  64:Core/Src/stm32l1xx_it.c **** 
  65:Core/Src/stm32l1xx_it.c **** /* USER CODE END EV */
  66:Core/Src/stm32l1xx_it.c **** 
  67:Core/Src/stm32l1xx_it.c **** /******************************************************************************/
  68:Core/Src/stm32l1xx_it.c **** /*           Cortex-M3 Processor Interruption and Exception Handlers          */ 
  69:Core/Src/stm32l1xx_it.c **** /******************************************************************************/
  70:Core/Src/stm32l1xx_it.c **** /**
  71:Core/Src/stm32l1xx_it.c ****   * @brief This function handles Non maskable interrupt.
  72:Core/Src/stm32l1xx_it.c ****   */
  73:Core/Src/stm32l1xx_it.c **** void NMI_Handler(void)
  74:Core/Src/stm32l1xx_it.c **** {
  27              		.loc 1 74 1 view -0
  28              		.cfi_startproc
  29              		@ args = 0, pretend = 0, frame = 0
  30              		@ frame_needed = 0, uses_anonymous_args = 0
  31              		@ link register save eliminated.
  75:Core/Src/stm32l1xx_it.c ****   /* USER CODE BEGIN NonMaskableInt_IRQn 0 */
  76:Core/Src/stm32l1xx_it.c **** 
  77:Core/Src/stm32l1xx_it.c ****   /* USER CODE END NonMaskableInt_IRQn 0 */
  78:Core/Src/stm32l1xx_it.c ****   /* USER CODE BEGIN NonMaskableInt_IRQn 1 */
  79:Core/Src/stm32l1xx_it.c **** 
  80:Core/Src/stm32l1xx_it.c ****   /* USER CODE END NonMaskableInt_IRQn 1 */
  81:Core/Src/stm32l1xx_it.c **** }
  32              		.loc 1 81 1 view .LVU1
  33 0000 7047     		bx	lr
  34              		.cfi_endproc
ARM GAS  C:\Users\domen\AppData\Local\Temp\ccbqR6EW.s 			page 3


  35              	.LFE832:
  37              		.section	.text.HardFault_Handler,"ax",%progbits
  38              		.align	1
  39              		.global	HardFault_Handler
  40              		.syntax unified
  41              		.thumb
  42              		.thumb_func
  43              		.fpu softvfp
  45              	HardFault_Handler:
  46              	.LFB833:
  82:Core/Src/stm32l1xx_it.c **** 
  83:Core/Src/stm32l1xx_it.c **** /**
  84:Core/Src/stm32l1xx_it.c ****   * @brief This function handles Hard fault interrupt.
  85:Core/Src/stm32l1xx_it.c ****   */
  86:Core/Src/stm32l1xx_it.c **** void HardFault_Handler(void)
  87:Core/Src/stm32l1xx_it.c **** {
  47              		.loc 1 87 1 view -0
  48              		.cfi_startproc
  49              		@ Volatile: function does not return.
  50              		@ args = 0, pretend = 0, frame = 0
  51              		@ frame_needed = 0, uses_anonymous_args = 0
  52              		@ link register save eliminated.
  53              	.L3:
  88:Core/Src/stm32l1xx_it.c ****   /* USER CODE BEGIN HardFault_IRQn 0 */
  89:Core/Src/stm32l1xx_it.c **** 
  90:Core/Src/stm32l1xx_it.c ****   /* USER CODE END HardFault_IRQn 0 */
  91:Core/Src/stm32l1xx_it.c ****   while (1)
  54              		.loc 1 91 3 discriminator 1 view .LVU3
  92:Core/Src/stm32l1xx_it.c ****   {
  93:Core/Src/stm32l1xx_it.c ****     /* USER CODE BEGIN W1_HardFault_IRQn 0 */
  94:Core/Src/stm32l1xx_it.c ****     /* USER CODE END W1_HardFault_IRQn 0 */
  95:Core/Src/stm32l1xx_it.c ****   }
  55              		.loc 1 95 3 discriminator 1 view .LVU4
  56 0000 FEE7     		b	.L3
  57              		.cfi_endproc
  58              	.LFE833:
  60              		.section	.text.MemManage_Handler,"ax",%progbits
  61              		.align	1
  62              		.global	MemManage_Handler
  63              		.syntax unified
  64              		.thumb
  65              		.thumb_func
  66              		.fpu softvfp
  68              	MemManage_Handler:
  69              	.LFB834:
  96:Core/Src/stm32l1xx_it.c **** }
  97:Core/Src/stm32l1xx_it.c **** 
  98:Core/Src/stm32l1xx_it.c **** /**
  99:Core/Src/stm32l1xx_it.c ****   * @brief This function handles Memory management fault.
 100:Core/Src/stm32l1xx_it.c ****   */
 101:Core/Src/stm32l1xx_it.c **** void MemManage_Handler(void)
 102:Core/Src/stm32l1xx_it.c **** {
  70              		.loc 1 102 1 view -0
  71              		.cfi_startproc
  72              		@ Volatile: function does not return.
  73              		@ args = 0, pretend = 0, frame = 0
  74              		@ frame_needed = 0, uses_anonymous_args = 0
ARM GAS  C:\Users\domen\AppData\Local\Temp\ccbqR6EW.s 			page 4


  75              		@ link register save eliminated.
  76              	.L5:
 103:Core/Src/stm32l1xx_it.c ****   /* USER CODE BEGIN MemoryManagement_IRQn 0 */
 104:Core/Src/stm32l1xx_it.c **** 
 105:Core/Src/stm32l1xx_it.c ****   /* USER CODE END MemoryManagement_IRQn 0 */
 106:Core/Src/stm32l1xx_it.c ****   while (1)
  77              		.loc 1 106 3 discriminator 1 view .LVU6
 107:Core/Src/stm32l1xx_it.c ****   {
 108:Core/Src/stm32l1xx_it.c ****     /* USER CODE BEGIN W1_MemoryManagement_IRQn 0 */
 109:Core/Src/stm32l1xx_it.c ****     /* USER CODE END W1_MemoryManagement_IRQn 0 */
 110:Core/Src/stm32l1xx_it.c ****   }
  78              		.loc 1 110 3 discriminator 1 view .LVU7
  79 0000 FEE7     		b	.L5
  80              		.cfi_endproc
  81              	.LFE834:
  83              		.section	.text.BusFault_Handler,"ax",%progbits
  84              		.align	1
  85              		.global	BusFault_Handler
  86              		.syntax unified
  87              		.thumb
  88              		.thumb_func
  89              		.fpu softvfp
  91              	BusFault_Handler:
  92              	.LFB835:
 111:Core/Src/stm32l1xx_it.c **** }
 112:Core/Src/stm32l1xx_it.c **** 
 113:Core/Src/stm32l1xx_it.c **** /**
 114:Core/Src/stm32l1xx_it.c ****   * @brief This function handles Pre-fetch fault, memory access fault.
 115:Core/Src/stm32l1xx_it.c ****   */
 116:Core/Src/stm32l1xx_it.c **** void BusFault_Handler(void)
 117:Core/Src/stm32l1xx_it.c **** {
  93              		.loc 1 117 1 view -0
  94              		.cfi_startproc
  95              		@ Volatile: function does not return.
  96              		@ args = 0, pretend = 0, frame = 0
  97              		@ frame_needed = 0, uses_anonymous_args = 0
  98              		@ link register save eliminated.
  99              	.L7:
 118:Core/Src/stm32l1xx_it.c ****   /* USER CODE BEGIN BusFault_IRQn 0 */
 119:Core/Src/stm32l1xx_it.c **** 
 120:Core/Src/stm32l1xx_it.c ****   /* USER CODE END BusFault_IRQn 0 */
 121:Core/Src/stm32l1xx_it.c ****   while (1)
 100              		.loc 1 121 3 discriminator 1 view .LVU9
 122:Core/Src/stm32l1xx_it.c ****   {
 123:Core/Src/stm32l1xx_it.c ****     /* USER CODE BEGIN W1_BusFault_IRQn 0 */
 124:Core/Src/stm32l1xx_it.c ****     /* USER CODE END W1_BusFault_IRQn 0 */
 125:Core/Src/stm32l1xx_it.c ****   }
 101              		.loc 1 125 3 discriminator 1 view .LVU10
 102 0000 FEE7     		b	.L7
 103              		.cfi_endproc
 104              	.LFE835:
 106              		.section	.text.UsageFault_Handler,"ax",%progbits
 107              		.align	1
 108              		.global	UsageFault_Handler
 109              		.syntax unified
 110              		.thumb
 111              		.thumb_func
ARM GAS  C:\Users\domen\AppData\Local\Temp\ccbqR6EW.s 			page 5


 112              		.fpu softvfp
 114              	UsageFault_Handler:
 115              	.LFB836:
 126:Core/Src/stm32l1xx_it.c **** }
 127:Core/Src/stm32l1xx_it.c **** 
 128:Core/Src/stm32l1xx_it.c **** /**
 129:Core/Src/stm32l1xx_it.c ****   * @brief This function handles Undefined instruction or illegal state.
 130:Core/Src/stm32l1xx_it.c ****   */
 131:Core/Src/stm32l1xx_it.c **** void UsageFault_Handler(void)
 132:Core/Src/stm32l1xx_it.c **** {
 116              		.loc 1 132 1 view -0
 117              		.cfi_startproc
 118              		@ Volatile: function does not return.
 119              		@ args = 0, pretend = 0, frame = 0
 120              		@ frame_needed = 0, uses_anonymous_args = 0
 121              		@ link register save eliminated.
 122              	.L9:
 133:Core/Src/stm32l1xx_it.c ****   /* USER CODE BEGIN UsageFault_IRQn 0 */
 134:Core/Src/stm32l1xx_it.c **** 
 135:Core/Src/stm32l1xx_it.c ****   /* USER CODE END UsageFault_IRQn 0 */
 136:Core/Src/stm32l1xx_it.c ****   while (1)
 123              		.loc 1 136 3 discriminator 1 view .LVU12
 137:Core/Src/stm32l1xx_it.c ****   {
 138:Core/Src/stm32l1xx_it.c ****     /* USER CODE BEGIN W1_UsageFault_IRQn 0 */
 139:Core/Src/stm32l1xx_it.c ****     /* USER CODE END W1_UsageFault_IRQn 0 */
 140:Core/Src/stm32l1xx_it.c ****   }
 124              		.loc 1 140 3 discriminator 1 view .LVU13
 125 0000 FEE7     		b	.L9
 126              		.cfi_endproc
 127              	.LFE836:
 129              		.section	.text.SVC_Handler,"ax",%progbits
 130              		.align	1
 131              		.global	SVC_Handler
 132              		.syntax unified
 133              		.thumb
 134              		.thumb_func
 135              		.fpu softvfp
 137              	SVC_Handler:
 138              	.LFB837:
 141:Core/Src/stm32l1xx_it.c **** }
 142:Core/Src/stm32l1xx_it.c **** 
 143:Core/Src/stm32l1xx_it.c **** /**
 144:Core/Src/stm32l1xx_it.c ****   * @brief This function handles System service call via SWI instruction.
 145:Core/Src/stm32l1xx_it.c ****   */
 146:Core/Src/stm32l1xx_it.c **** void SVC_Handler(void)
 147:Core/Src/stm32l1xx_it.c **** {
 139              		.loc 1 147 1 view -0
 140              		.cfi_startproc
 141              		@ args = 0, pretend = 0, frame = 0
 142              		@ frame_needed = 0, uses_anonymous_args = 0
 143              		@ link register save eliminated.
 148:Core/Src/stm32l1xx_it.c ****   /* USER CODE BEGIN SVC_IRQn 0 */
 149:Core/Src/stm32l1xx_it.c **** 
 150:Core/Src/stm32l1xx_it.c ****   /* USER CODE END SVC_IRQn 0 */
 151:Core/Src/stm32l1xx_it.c ****   /* USER CODE BEGIN SVC_IRQn 1 */
 152:Core/Src/stm32l1xx_it.c **** 
 153:Core/Src/stm32l1xx_it.c ****   /* USER CODE END SVC_IRQn 1 */
ARM GAS  C:\Users\domen\AppData\Local\Temp\ccbqR6EW.s 			page 6


 154:Core/Src/stm32l1xx_it.c **** }
 144              		.loc 1 154 1 view .LVU15
 145 0000 7047     		bx	lr
 146              		.cfi_endproc
 147              	.LFE837:
 149              		.section	.text.DebugMon_Handler,"ax",%progbits
 150              		.align	1
 151              		.global	DebugMon_Handler
 152              		.syntax unified
 153              		.thumb
 154              		.thumb_func
 155              		.fpu softvfp
 157              	DebugMon_Handler:
 158              	.LFB838:
 155:Core/Src/stm32l1xx_it.c **** 
 156:Core/Src/stm32l1xx_it.c **** /**
 157:Core/Src/stm32l1xx_it.c ****   * @brief This function handles Debug monitor.
 158:Core/Src/stm32l1xx_it.c ****   */
 159:Core/Src/stm32l1xx_it.c **** void DebugMon_Handler(void)
 160:Core/Src/stm32l1xx_it.c **** {
 159              		.loc 1 160 1 view -0
 160              		.cfi_startproc
 161              		@ args = 0, pretend = 0, frame = 0
 162              		@ frame_needed = 0, uses_anonymous_args = 0
 163              		@ link register save eliminated.
 161:Core/Src/stm32l1xx_it.c ****   /* USER CODE BEGIN DebugMonitor_IRQn 0 */
 162:Core/Src/stm32l1xx_it.c **** 
 163:Core/Src/stm32l1xx_it.c ****   /* USER CODE END DebugMonitor_IRQn 0 */
 164:Core/Src/stm32l1xx_it.c ****   /* USER CODE BEGIN DebugMonitor_IRQn 1 */
 165:Core/Src/stm32l1xx_it.c **** 
 166:Core/Src/stm32l1xx_it.c ****   /* USER CODE END DebugMonitor_IRQn 1 */
 167:Core/Src/stm32l1xx_it.c **** }
 164              		.loc 1 167 1 view .LVU17
 165 0000 7047     		bx	lr
 166              		.cfi_endproc
 167              	.LFE838:
 169              		.section	.text.PendSV_Handler,"ax",%progbits
 170              		.align	1
 171              		.global	PendSV_Handler
 172              		.syntax unified
 173              		.thumb
 174              		.thumb_func
 175              		.fpu softvfp
 177              	PendSV_Handler:
 178              	.LFB839:
 168:Core/Src/stm32l1xx_it.c **** 
 169:Core/Src/stm32l1xx_it.c **** /**
 170:Core/Src/stm32l1xx_it.c ****   * @brief This function handles Pendable request for system service.
 171:Core/Src/stm32l1xx_it.c ****   */
 172:Core/Src/stm32l1xx_it.c **** void PendSV_Handler(void)
 173:Core/Src/stm32l1xx_it.c **** {
 179              		.loc 1 173 1 view -0
 180              		.cfi_startproc
 181              		@ args = 0, pretend = 0, frame = 0
 182              		@ frame_needed = 0, uses_anonymous_args = 0
 183              		@ link register save eliminated.
 174:Core/Src/stm32l1xx_it.c ****   /* USER CODE BEGIN PendSV_IRQn 0 */
ARM GAS  C:\Users\domen\AppData\Local\Temp\ccbqR6EW.s 			page 7


 175:Core/Src/stm32l1xx_it.c **** 
 176:Core/Src/stm32l1xx_it.c ****   /* USER CODE END PendSV_IRQn 0 */
 177:Core/Src/stm32l1xx_it.c ****   /* USER CODE BEGIN PendSV_IRQn 1 */
 178:Core/Src/stm32l1xx_it.c **** 
 179:Core/Src/stm32l1xx_it.c ****   /* USER CODE END PendSV_IRQn 1 */
 180:Core/Src/stm32l1xx_it.c **** }
 184              		.loc 1 180 1 view .LVU19
 185 0000 7047     		bx	lr
 186              		.cfi_endproc
 187              	.LFE839:
 189              		.section	.text.SysTick_Handler,"ax",%progbits
 190              		.align	1
 191              		.global	SysTick_Handler
 192              		.syntax unified
 193              		.thumb
 194              		.thumb_func
 195              		.fpu softvfp
 197              	SysTick_Handler:
 198              	.LFB840:
 181:Core/Src/stm32l1xx_it.c **** 
 182:Core/Src/stm32l1xx_it.c **** /**
 183:Core/Src/stm32l1xx_it.c ****   * @brief This function handles System tick timer.
 184:Core/Src/stm32l1xx_it.c ****   */
 185:Core/Src/stm32l1xx_it.c **** void SysTick_Handler(void)
 186:Core/Src/stm32l1xx_it.c **** {
 199              		.loc 1 186 1 view -0
 200              		.cfi_startproc
 201              		@ args = 0, pretend = 0, frame = 0
 202              		@ frame_needed = 0, uses_anonymous_args = 0
 203              		@ link register save eliminated.
 187:Core/Src/stm32l1xx_it.c ****   /* USER CODE BEGIN SysTick_IRQn 0 */
 188:Core/Src/stm32l1xx_it.c ****   sysTickCount++;
 204              		.loc 1 188 3 view .LVU21
 205              		.loc 1 188 15 is_stmt 0 view .LVU22
 206 0000 024A     		ldr	r2, .L14
 207 0002 1368     		ldr	r3, [r2]
 208 0004 0133     		adds	r3, r3, #1
 209 0006 1360     		str	r3, [r2]
 189:Core/Src/stm32l1xx_it.c ****   /* USER CODE END SysTick_IRQn 0 */
 190:Core/Src/stm32l1xx_it.c ****   
 191:Core/Src/stm32l1xx_it.c ****   /* USER CODE BEGIN SysTick_IRQn 1 */
 192:Core/Src/stm32l1xx_it.c **** 
 193:Core/Src/stm32l1xx_it.c ****   /* USER CODE END SysTick_IRQn 1 */
 194:Core/Src/stm32l1xx_it.c **** }
 210              		.loc 1 194 1 view .LVU23
 211 0008 7047     		bx	lr
 212              	.L15:
 213 000a 00BF     		.align	2
 214              	.L14:
 215 000c 00000000 		.word	.LANCHOR0
 216              		.cfi_endproc
 217              	.LFE840:
 219              		.section	.text.EXTI4_IRQHandler,"ax",%progbits
 220              		.align	1
 221              		.global	EXTI4_IRQHandler
 222              		.syntax unified
 223              		.thumb
ARM GAS  C:\Users\domen\AppData\Local\Temp\ccbqR6EW.s 			page 8


 224              		.thumb_func
 225              		.fpu softvfp
 227              	EXTI4_IRQHandler:
 228              	.LFB841:
 195:Core/Src/stm32l1xx_it.c **** 
 196:Core/Src/stm32l1xx_it.c **** /******************************************************************************/
 197:Core/Src/stm32l1xx_it.c **** /* STM32L1xx Peripheral Interrupt Handlers                                    */
 198:Core/Src/stm32l1xx_it.c **** /* Add here the Interrupt Handlers for the used peripherals.                  */
 199:Core/Src/stm32l1xx_it.c **** /* For the available peripheral interrupt handler names,                      */
 200:Core/Src/stm32l1xx_it.c **** /* please refer to the startup file (startup_stm32l1xx.s).                    */
 201:Core/Src/stm32l1xx_it.c **** /******************************************************************************/
 202:Core/Src/stm32l1xx_it.c **** 
 203:Core/Src/stm32l1xx_it.c **** /**
 204:Core/Src/stm32l1xx_it.c ****   * @brief This function handles EXTI line4 interrupt.
 205:Core/Src/stm32l1xx_it.c ****   */
 206:Core/Src/stm32l1xx_it.c **** void EXTI4_IRQHandler(void)
 207:Core/Src/stm32l1xx_it.c **** {
 229              		.loc 1 207 1 is_stmt 1 view -0
 230              		.cfi_startproc
 231              		@ args = 0, pretend = 0, frame = 0
 232              		@ frame_needed = 0, uses_anonymous_args = 0
 233 0000 08B5     		push	{r3, lr}
 234              	.LCFI0:
 235              		.cfi_def_cfa_offset 8
 236              		.cfi_offset 3, -8
 237              		.cfi_offset 14, -4
 208:Core/Src/stm32l1xx_it.c ****   /* USER CODE BEGIN EXTI4_IRQn 0 */
 209:Core/Src/stm32l1xx_it.c ****   
 210:Core/Src/stm32l1xx_it.c ****   /* USER CODE END EXTI4_IRQn 0 */
 211:Core/Src/stm32l1xx_it.c ****   if (LL_EXTI_IsActiveFlag_0_31(LL_EXTI_LINE_4) != RESET)
 238              		.loc 1 211 3 view .LVU25
 239              	.LVL0:
 240              	.LBB16:
 241              	.LBI16:
 242              		.file 2 "Drivers/STM32L1xx_HAL_Driver/Inc/stm32l1xx_ll_exti.h"
   1:Drivers/STM32L1xx_HAL_Driver/Inc/stm32l1xx_ll_exti.h **** /**
   2:Drivers/STM32L1xx_HAL_Driver/Inc/stm32l1xx_ll_exti.h ****   ******************************************************************************
   3:Drivers/STM32L1xx_HAL_Driver/Inc/stm32l1xx_ll_exti.h ****   * @file    stm32l1xx_ll_exti.h
   4:Drivers/STM32L1xx_HAL_Driver/Inc/stm32l1xx_ll_exti.h ****   * @author  MCD Application Team
   5:Drivers/STM32L1xx_HAL_Driver/Inc/stm32l1xx_ll_exti.h ****   * @brief   Header file of EXTI LL module.
   6:Drivers/STM32L1xx_HAL_Driver/Inc/stm32l1xx_ll_exti.h ****   ******************************************************************************
   7:Drivers/STM32L1xx_HAL_Driver/Inc/stm32l1xx_ll_exti.h ****   * @attention
   8:Drivers/STM32L1xx_HAL_Driver/Inc/stm32l1xx_ll_exti.h ****   *
   9:Drivers/STM32L1xx_HAL_Driver/Inc/stm32l1xx_ll_exti.h ****   * <h2><center>&copy; Copyright (c) 2017 STMicroelectronics.
  10:Drivers/STM32L1xx_HAL_Driver/Inc/stm32l1xx_ll_exti.h ****   * All rights reserved.</center></h2>
  11:Drivers/STM32L1xx_HAL_Driver/Inc/stm32l1xx_ll_exti.h ****   *
  12:Drivers/STM32L1xx_HAL_Driver/Inc/stm32l1xx_ll_exti.h ****   * This software component is licensed by ST under BSD 3-Clause license,
  13:Drivers/STM32L1xx_HAL_Driver/Inc/stm32l1xx_ll_exti.h ****   * the "License"; You may not use this file except in compliance with the
  14:Drivers/STM32L1xx_HAL_Driver/Inc/stm32l1xx_ll_exti.h ****   * License. You may obtain a copy of the License at:
  15:Drivers/STM32L1xx_HAL_Driver/Inc/stm32l1xx_ll_exti.h ****   *                        opensource.org/licenses/BSD-3-Clause
  16:Drivers/STM32L1xx_HAL_Driver/Inc/stm32l1xx_ll_exti.h ****   *
  17:Drivers/STM32L1xx_HAL_Driver/Inc/stm32l1xx_ll_exti.h ****   ******************************************************************************
  18:Drivers/STM32L1xx_HAL_Driver/Inc/stm32l1xx_ll_exti.h ****   */
  19:Drivers/STM32L1xx_HAL_Driver/Inc/stm32l1xx_ll_exti.h **** 
  20:Drivers/STM32L1xx_HAL_Driver/Inc/stm32l1xx_ll_exti.h **** /* Define to prevent recursive inclusion -------------------------------------*/
  21:Drivers/STM32L1xx_HAL_Driver/Inc/stm32l1xx_ll_exti.h **** #ifndef __STM32L1xx_LL_EXTI_H
  22:Drivers/STM32L1xx_HAL_Driver/Inc/stm32l1xx_ll_exti.h **** #define __STM32L1xx_LL_EXTI_H
ARM GAS  C:\Users\domen\AppData\Local\Temp\ccbqR6EW.s 			page 9


  23:Drivers/STM32L1xx_HAL_Driver/Inc/stm32l1xx_ll_exti.h **** 
  24:Drivers/STM32L1xx_HAL_Driver/Inc/stm32l1xx_ll_exti.h **** #ifdef __cplusplus
  25:Drivers/STM32L1xx_HAL_Driver/Inc/stm32l1xx_ll_exti.h **** extern "C" {
  26:Drivers/STM32L1xx_HAL_Driver/Inc/stm32l1xx_ll_exti.h **** #endif
  27:Drivers/STM32L1xx_HAL_Driver/Inc/stm32l1xx_ll_exti.h **** 
  28:Drivers/STM32L1xx_HAL_Driver/Inc/stm32l1xx_ll_exti.h **** /* Includes ------------------------------------------------------------------*/
  29:Drivers/STM32L1xx_HAL_Driver/Inc/stm32l1xx_ll_exti.h **** #include "stm32l1xx.h"
  30:Drivers/STM32L1xx_HAL_Driver/Inc/stm32l1xx_ll_exti.h **** 
  31:Drivers/STM32L1xx_HAL_Driver/Inc/stm32l1xx_ll_exti.h **** /** @addtogroup STM32L1xx_LL_Driver
  32:Drivers/STM32L1xx_HAL_Driver/Inc/stm32l1xx_ll_exti.h ****   * @{
  33:Drivers/STM32L1xx_HAL_Driver/Inc/stm32l1xx_ll_exti.h ****   */
  34:Drivers/STM32L1xx_HAL_Driver/Inc/stm32l1xx_ll_exti.h **** 
  35:Drivers/STM32L1xx_HAL_Driver/Inc/stm32l1xx_ll_exti.h **** #if defined (EXTI)
  36:Drivers/STM32L1xx_HAL_Driver/Inc/stm32l1xx_ll_exti.h **** 
  37:Drivers/STM32L1xx_HAL_Driver/Inc/stm32l1xx_ll_exti.h **** /** @defgroup EXTI_LL EXTI
  38:Drivers/STM32L1xx_HAL_Driver/Inc/stm32l1xx_ll_exti.h ****   * @{
  39:Drivers/STM32L1xx_HAL_Driver/Inc/stm32l1xx_ll_exti.h ****   */
  40:Drivers/STM32L1xx_HAL_Driver/Inc/stm32l1xx_ll_exti.h **** 
  41:Drivers/STM32L1xx_HAL_Driver/Inc/stm32l1xx_ll_exti.h **** /* Private types -------------------------------------------------------------*/
  42:Drivers/STM32L1xx_HAL_Driver/Inc/stm32l1xx_ll_exti.h **** /* Private variables ---------------------------------------------------------*/
  43:Drivers/STM32L1xx_HAL_Driver/Inc/stm32l1xx_ll_exti.h **** /* Private constants ---------------------------------------------------------*/
  44:Drivers/STM32L1xx_HAL_Driver/Inc/stm32l1xx_ll_exti.h **** /* Private Macros ------------------------------------------------------------*/
  45:Drivers/STM32L1xx_HAL_Driver/Inc/stm32l1xx_ll_exti.h **** #if defined(USE_FULL_LL_DRIVER)
  46:Drivers/STM32L1xx_HAL_Driver/Inc/stm32l1xx_ll_exti.h **** /** @defgroup EXTI_LL_Private_Macros EXTI Private Macros
  47:Drivers/STM32L1xx_HAL_Driver/Inc/stm32l1xx_ll_exti.h ****   * @{
  48:Drivers/STM32L1xx_HAL_Driver/Inc/stm32l1xx_ll_exti.h ****   */
  49:Drivers/STM32L1xx_HAL_Driver/Inc/stm32l1xx_ll_exti.h **** /**
  50:Drivers/STM32L1xx_HAL_Driver/Inc/stm32l1xx_ll_exti.h ****   * @}
  51:Drivers/STM32L1xx_HAL_Driver/Inc/stm32l1xx_ll_exti.h ****   */
  52:Drivers/STM32L1xx_HAL_Driver/Inc/stm32l1xx_ll_exti.h **** #endif /*USE_FULL_LL_DRIVER*/
  53:Drivers/STM32L1xx_HAL_Driver/Inc/stm32l1xx_ll_exti.h **** /* Exported types ------------------------------------------------------------*/
  54:Drivers/STM32L1xx_HAL_Driver/Inc/stm32l1xx_ll_exti.h **** #if defined(USE_FULL_LL_DRIVER)
  55:Drivers/STM32L1xx_HAL_Driver/Inc/stm32l1xx_ll_exti.h **** /** @defgroup EXTI_LL_ES_INIT EXTI Exported Init structure
  56:Drivers/STM32L1xx_HAL_Driver/Inc/stm32l1xx_ll_exti.h ****   * @{
  57:Drivers/STM32L1xx_HAL_Driver/Inc/stm32l1xx_ll_exti.h ****   */
  58:Drivers/STM32L1xx_HAL_Driver/Inc/stm32l1xx_ll_exti.h **** typedef struct
  59:Drivers/STM32L1xx_HAL_Driver/Inc/stm32l1xx_ll_exti.h **** {
  60:Drivers/STM32L1xx_HAL_Driver/Inc/stm32l1xx_ll_exti.h **** 
  61:Drivers/STM32L1xx_HAL_Driver/Inc/stm32l1xx_ll_exti.h ****   uint32_t Line_0_31;           /*!< Specifies the EXTI lines to be enabled or disabled for Lines i
  62:Drivers/STM32L1xx_HAL_Driver/Inc/stm32l1xx_ll_exti.h ****                                      This parameter can be any combination of @ref EXTI_LL_EC_LINE 
  63:Drivers/STM32L1xx_HAL_Driver/Inc/stm32l1xx_ll_exti.h **** 
  64:Drivers/STM32L1xx_HAL_Driver/Inc/stm32l1xx_ll_exti.h ****   FunctionalState LineCommand;  /*!< Specifies the new state of the selected EXTI lines.
  65:Drivers/STM32L1xx_HAL_Driver/Inc/stm32l1xx_ll_exti.h ****                                      This parameter can be set either to ENABLE or DISABLE */
  66:Drivers/STM32L1xx_HAL_Driver/Inc/stm32l1xx_ll_exti.h **** 
  67:Drivers/STM32L1xx_HAL_Driver/Inc/stm32l1xx_ll_exti.h ****   uint8_t Mode;                 /*!< Specifies the mode for the EXTI lines.
  68:Drivers/STM32L1xx_HAL_Driver/Inc/stm32l1xx_ll_exti.h ****                                      This parameter can be a value of @ref EXTI_LL_EC_MODE. */
  69:Drivers/STM32L1xx_HAL_Driver/Inc/stm32l1xx_ll_exti.h **** 
  70:Drivers/STM32L1xx_HAL_Driver/Inc/stm32l1xx_ll_exti.h ****   uint8_t Trigger;              /*!< Specifies the trigger signal active edge for the EXTI lines.
  71:Drivers/STM32L1xx_HAL_Driver/Inc/stm32l1xx_ll_exti.h ****                                      This parameter can be a value of @ref EXTI_LL_EC_TRIGGER. */
  72:Drivers/STM32L1xx_HAL_Driver/Inc/stm32l1xx_ll_exti.h **** } LL_EXTI_InitTypeDef;
  73:Drivers/STM32L1xx_HAL_Driver/Inc/stm32l1xx_ll_exti.h **** 
  74:Drivers/STM32L1xx_HAL_Driver/Inc/stm32l1xx_ll_exti.h **** /**
  75:Drivers/STM32L1xx_HAL_Driver/Inc/stm32l1xx_ll_exti.h ****   * @}
  76:Drivers/STM32L1xx_HAL_Driver/Inc/stm32l1xx_ll_exti.h ****   */
  77:Drivers/STM32L1xx_HAL_Driver/Inc/stm32l1xx_ll_exti.h **** #endif /*USE_FULL_LL_DRIVER*/
  78:Drivers/STM32L1xx_HAL_Driver/Inc/stm32l1xx_ll_exti.h **** 
  79:Drivers/STM32L1xx_HAL_Driver/Inc/stm32l1xx_ll_exti.h **** /* Exported constants --------------------------------------------------------*/
ARM GAS  C:\Users\domen\AppData\Local\Temp\ccbqR6EW.s 			page 10


  80:Drivers/STM32L1xx_HAL_Driver/Inc/stm32l1xx_ll_exti.h **** /** @defgroup EXTI_LL_Exported_Constants EXTI Exported Constants
  81:Drivers/STM32L1xx_HAL_Driver/Inc/stm32l1xx_ll_exti.h ****   * @{
  82:Drivers/STM32L1xx_HAL_Driver/Inc/stm32l1xx_ll_exti.h ****   */
  83:Drivers/STM32L1xx_HAL_Driver/Inc/stm32l1xx_ll_exti.h **** 
  84:Drivers/STM32L1xx_HAL_Driver/Inc/stm32l1xx_ll_exti.h **** /** @defgroup EXTI_LL_EC_LINE LINE
  85:Drivers/STM32L1xx_HAL_Driver/Inc/stm32l1xx_ll_exti.h ****   * @{
  86:Drivers/STM32L1xx_HAL_Driver/Inc/stm32l1xx_ll_exti.h ****   */
  87:Drivers/STM32L1xx_HAL_Driver/Inc/stm32l1xx_ll_exti.h **** #define LL_EXTI_LINE_0                 EXTI_IMR_IM0           /*!< Extended line 0 */
  88:Drivers/STM32L1xx_HAL_Driver/Inc/stm32l1xx_ll_exti.h **** #define LL_EXTI_LINE_1                 EXTI_IMR_IM1           /*!< Extended line 1 */
  89:Drivers/STM32L1xx_HAL_Driver/Inc/stm32l1xx_ll_exti.h **** #define LL_EXTI_LINE_2                 EXTI_IMR_IM2           /*!< Extended line 2 */
  90:Drivers/STM32L1xx_HAL_Driver/Inc/stm32l1xx_ll_exti.h **** #define LL_EXTI_LINE_3                 EXTI_IMR_IM3           /*!< Extended line 3 */
  91:Drivers/STM32L1xx_HAL_Driver/Inc/stm32l1xx_ll_exti.h **** #define LL_EXTI_LINE_4                 EXTI_IMR_IM4           /*!< Extended line 4 */
  92:Drivers/STM32L1xx_HAL_Driver/Inc/stm32l1xx_ll_exti.h **** #define LL_EXTI_LINE_5                 EXTI_IMR_IM5           /*!< Extended line 5 */
  93:Drivers/STM32L1xx_HAL_Driver/Inc/stm32l1xx_ll_exti.h **** #define LL_EXTI_LINE_6                 EXTI_IMR_IM6           /*!< Extended line 6 */
  94:Drivers/STM32L1xx_HAL_Driver/Inc/stm32l1xx_ll_exti.h **** #define LL_EXTI_LINE_7                 EXTI_IMR_IM7           /*!< Extended line 7 */
  95:Drivers/STM32L1xx_HAL_Driver/Inc/stm32l1xx_ll_exti.h **** #define LL_EXTI_LINE_8                 EXTI_IMR_IM8           /*!< Extended line 8 */
  96:Drivers/STM32L1xx_HAL_Driver/Inc/stm32l1xx_ll_exti.h **** #define LL_EXTI_LINE_9                 EXTI_IMR_IM9           /*!< Extended line 9 */
  97:Drivers/STM32L1xx_HAL_Driver/Inc/stm32l1xx_ll_exti.h **** #define LL_EXTI_LINE_10                EXTI_IMR_IM10          /*!< Extended line 10 */
  98:Drivers/STM32L1xx_HAL_Driver/Inc/stm32l1xx_ll_exti.h **** #define LL_EXTI_LINE_11                EXTI_IMR_IM11          /*!< Extended line 11 */
  99:Drivers/STM32L1xx_HAL_Driver/Inc/stm32l1xx_ll_exti.h **** #define LL_EXTI_LINE_12                EXTI_IMR_IM12          /*!< Extended line 12 */
 100:Drivers/STM32L1xx_HAL_Driver/Inc/stm32l1xx_ll_exti.h **** #define LL_EXTI_LINE_13                EXTI_IMR_IM13          /*!< Extended line 13 */
 101:Drivers/STM32L1xx_HAL_Driver/Inc/stm32l1xx_ll_exti.h **** #define LL_EXTI_LINE_14                EXTI_IMR_IM14          /*!< Extended line 14 */
 102:Drivers/STM32L1xx_HAL_Driver/Inc/stm32l1xx_ll_exti.h **** #define LL_EXTI_LINE_15                EXTI_IMR_IM15          /*!< Extended line 15 */
 103:Drivers/STM32L1xx_HAL_Driver/Inc/stm32l1xx_ll_exti.h **** #if defined(EXTI_IMR_IM16)
 104:Drivers/STM32L1xx_HAL_Driver/Inc/stm32l1xx_ll_exti.h **** #define LL_EXTI_LINE_16                EXTI_IMR_IM16          /*!< Extended line 16 */
 105:Drivers/STM32L1xx_HAL_Driver/Inc/stm32l1xx_ll_exti.h **** #endif
 106:Drivers/STM32L1xx_HAL_Driver/Inc/stm32l1xx_ll_exti.h **** #define LL_EXTI_LINE_17                EXTI_IMR_IM17          /*!< Extended line 17 */
 107:Drivers/STM32L1xx_HAL_Driver/Inc/stm32l1xx_ll_exti.h **** #if defined(EXTI_IMR_IM18)
 108:Drivers/STM32L1xx_HAL_Driver/Inc/stm32l1xx_ll_exti.h **** #define LL_EXTI_LINE_18                EXTI_IMR_IM18          /*!< Extended line 18 */
 109:Drivers/STM32L1xx_HAL_Driver/Inc/stm32l1xx_ll_exti.h **** #endif
 110:Drivers/STM32L1xx_HAL_Driver/Inc/stm32l1xx_ll_exti.h **** #define LL_EXTI_LINE_19                EXTI_IMR_IM19          /*!< Extended line 19 */
 111:Drivers/STM32L1xx_HAL_Driver/Inc/stm32l1xx_ll_exti.h **** #if defined(EXTI_IMR_IM20)
 112:Drivers/STM32L1xx_HAL_Driver/Inc/stm32l1xx_ll_exti.h **** #define LL_EXTI_LINE_20                EXTI_IMR_IM20          /*!< Extended line 20 */
 113:Drivers/STM32L1xx_HAL_Driver/Inc/stm32l1xx_ll_exti.h **** #endif
 114:Drivers/STM32L1xx_HAL_Driver/Inc/stm32l1xx_ll_exti.h **** #if defined(EXTI_IMR_IM21)
 115:Drivers/STM32L1xx_HAL_Driver/Inc/stm32l1xx_ll_exti.h **** #define LL_EXTI_LINE_21                EXTI_IMR_IM21          /*!< Extended line 21 */
 116:Drivers/STM32L1xx_HAL_Driver/Inc/stm32l1xx_ll_exti.h **** #endif
 117:Drivers/STM32L1xx_HAL_Driver/Inc/stm32l1xx_ll_exti.h **** #if defined(EXTI_IMR_IM22)
 118:Drivers/STM32L1xx_HAL_Driver/Inc/stm32l1xx_ll_exti.h **** #define LL_EXTI_LINE_22                EXTI_IMR_IM22          /*!< Extended line 22 */
 119:Drivers/STM32L1xx_HAL_Driver/Inc/stm32l1xx_ll_exti.h **** #endif
 120:Drivers/STM32L1xx_HAL_Driver/Inc/stm32l1xx_ll_exti.h **** #define LL_EXTI_LINE_23                EXTI_IMR_IM23          /*!< Extended line 23 */
 121:Drivers/STM32L1xx_HAL_Driver/Inc/stm32l1xx_ll_exti.h **** #if defined(EXTI_IMR_IM24)
 122:Drivers/STM32L1xx_HAL_Driver/Inc/stm32l1xx_ll_exti.h **** #define LL_EXTI_LINE_24                EXTI_IMR_IM24          /*!< Extended line 24 */
 123:Drivers/STM32L1xx_HAL_Driver/Inc/stm32l1xx_ll_exti.h **** #endif
 124:Drivers/STM32L1xx_HAL_Driver/Inc/stm32l1xx_ll_exti.h **** #if defined(EXTI_IMR_IM25)
 125:Drivers/STM32L1xx_HAL_Driver/Inc/stm32l1xx_ll_exti.h **** #define LL_EXTI_LINE_25                EXTI_IMR_IM25          /*!< Extended line 25 */
 126:Drivers/STM32L1xx_HAL_Driver/Inc/stm32l1xx_ll_exti.h **** #endif
 127:Drivers/STM32L1xx_HAL_Driver/Inc/stm32l1xx_ll_exti.h **** #if defined(EXTI_IMR_IM26)
 128:Drivers/STM32L1xx_HAL_Driver/Inc/stm32l1xx_ll_exti.h **** #define LL_EXTI_LINE_26                EXTI_IMR_IM26          /*!< Extended line 26 */
 129:Drivers/STM32L1xx_HAL_Driver/Inc/stm32l1xx_ll_exti.h **** #endif
 130:Drivers/STM32L1xx_HAL_Driver/Inc/stm32l1xx_ll_exti.h **** #if defined(EXTI_IMR_IM27)
 131:Drivers/STM32L1xx_HAL_Driver/Inc/stm32l1xx_ll_exti.h **** #define LL_EXTI_LINE_27                EXTI_IMR_IM27          /*!< Extended line 27 */
 132:Drivers/STM32L1xx_HAL_Driver/Inc/stm32l1xx_ll_exti.h **** #endif
 133:Drivers/STM32L1xx_HAL_Driver/Inc/stm32l1xx_ll_exti.h **** #if defined(EXTI_IMR_IM28)
 134:Drivers/STM32L1xx_HAL_Driver/Inc/stm32l1xx_ll_exti.h **** #define LL_EXTI_LINE_28                EXTI_IMR_IM28          /*!< Extended line 28 */
 135:Drivers/STM32L1xx_HAL_Driver/Inc/stm32l1xx_ll_exti.h **** #endif
 136:Drivers/STM32L1xx_HAL_Driver/Inc/stm32l1xx_ll_exti.h **** #if defined(EXTI_IMR_IM29)
ARM GAS  C:\Users\domen\AppData\Local\Temp\ccbqR6EW.s 			page 11


 137:Drivers/STM32L1xx_HAL_Driver/Inc/stm32l1xx_ll_exti.h **** #define LL_EXTI_LINE_29                EXTI_IMR_IM29          /*!< Extended line 29 */
 138:Drivers/STM32L1xx_HAL_Driver/Inc/stm32l1xx_ll_exti.h **** #endif
 139:Drivers/STM32L1xx_HAL_Driver/Inc/stm32l1xx_ll_exti.h **** #if defined(EXTI_IMR_IM30)
 140:Drivers/STM32L1xx_HAL_Driver/Inc/stm32l1xx_ll_exti.h **** #define LL_EXTI_LINE_30                EXTI_IMR_IM30          /*!< Extended line 30 */
 141:Drivers/STM32L1xx_HAL_Driver/Inc/stm32l1xx_ll_exti.h **** #endif
 142:Drivers/STM32L1xx_HAL_Driver/Inc/stm32l1xx_ll_exti.h **** #if defined(EXTI_IMR_IM31)
 143:Drivers/STM32L1xx_HAL_Driver/Inc/stm32l1xx_ll_exti.h **** #define LL_EXTI_LINE_31                EXTI_IMR_IM31          /*!< Extended line 31 */
 144:Drivers/STM32L1xx_HAL_Driver/Inc/stm32l1xx_ll_exti.h **** #endif
 145:Drivers/STM32L1xx_HAL_Driver/Inc/stm32l1xx_ll_exti.h **** #define LL_EXTI_LINE_ALL_0_31          EXTI_IMR_IM            /*!< All Extended line not reserved*/
 146:Drivers/STM32L1xx_HAL_Driver/Inc/stm32l1xx_ll_exti.h **** 
 147:Drivers/STM32L1xx_HAL_Driver/Inc/stm32l1xx_ll_exti.h **** 
 148:Drivers/STM32L1xx_HAL_Driver/Inc/stm32l1xx_ll_exti.h **** #define LL_EXTI_LINE_ALL               (0xFFFFFFFFU)  /*!< All Extended line */
 149:Drivers/STM32L1xx_HAL_Driver/Inc/stm32l1xx_ll_exti.h **** 
 150:Drivers/STM32L1xx_HAL_Driver/Inc/stm32l1xx_ll_exti.h **** #if defined(USE_FULL_LL_DRIVER)
 151:Drivers/STM32L1xx_HAL_Driver/Inc/stm32l1xx_ll_exti.h **** #define LL_EXTI_LINE_NONE              (0x00000000U)  /*!< None Extended line */
 152:Drivers/STM32L1xx_HAL_Driver/Inc/stm32l1xx_ll_exti.h **** #endif /*USE_FULL_LL_DRIVER*/
 153:Drivers/STM32L1xx_HAL_Driver/Inc/stm32l1xx_ll_exti.h **** 
 154:Drivers/STM32L1xx_HAL_Driver/Inc/stm32l1xx_ll_exti.h **** /**
 155:Drivers/STM32L1xx_HAL_Driver/Inc/stm32l1xx_ll_exti.h ****   * @}
 156:Drivers/STM32L1xx_HAL_Driver/Inc/stm32l1xx_ll_exti.h ****   */
 157:Drivers/STM32L1xx_HAL_Driver/Inc/stm32l1xx_ll_exti.h **** #if defined(USE_FULL_LL_DRIVER)
 158:Drivers/STM32L1xx_HAL_Driver/Inc/stm32l1xx_ll_exti.h **** 
 159:Drivers/STM32L1xx_HAL_Driver/Inc/stm32l1xx_ll_exti.h **** /** @defgroup EXTI_LL_EC_MODE Mode
 160:Drivers/STM32L1xx_HAL_Driver/Inc/stm32l1xx_ll_exti.h ****   * @{
 161:Drivers/STM32L1xx_HAL_Driver/Inc/stm32l1xx_ll_exti.h ****   */
 162:Drivers/STM32L1xx_HAL_Driver/Inc/stm32l1xx_ll_exti.h **** #define LL_EXTI_MODE_IT                 ((uint8_t)0x00U) /*!< Interrupt Mode */
 163:Drivers/STM32L1xx_HAL_Driver/Inc/stm32l1xx_ll_exti.h **** #define LL_EXTI_MODE_EVENT              ((uint8_t)0x01U) /*!< Event Mode */
 164:Drivers/STM32L1xx_HAL_Driver/Inc/stm32l1xx_ll_exti.h **** #define LL_EXTI_MODE_IT_EVENT           ((uint8_t)0x02U) /*!< Interrupt & Event Mode */
 165:Drivers/STM32L1xx_HAL_Driver/Inc/stm32l1xx_ll_exti.h **** /**
 166:Drivers/STM32L1xx_HAL_Driver/Inc/stm32l1xx_ll_exti.h ****   * @}
 167:Drivers/STM32L1xx_HAL_Driver/Inc/stm32l1xx_ll_exti.h ****   */
 168:Drivers/STM32L1xx_HAL_Driver/Inc/stm32l1xx_ll_exti.h **** 
 169:Drivers/STM32L1xx_HAL_Driver/Inc/stm32l1xx_ll_exti.h **** /** @defgroup EXTI_LL_EC_TRIGGER Edge Trigger
 170:Drivers/STM32L1xx_HAL_Driver/Inc/stm32l1xx_ll_exti.h ****   * @{
 171:Drivers/STM32L1xx_HAL_Driver/Inc/stm32l1xx_ll_exti.h ****   */
 172:Drivers/STM32L1xx_HAL_Driver/Inc/stm32l1xx_ll_exti.h **** #define LL_EXTI_TRIGGER_NONE            ((uint8_t)0x00U) /*!< No Trigger Mode */
 173:Drivers/STM32L1xx_HAL_Driver/Inc/stm32l1xx_ll_exti.h **** #define LL_EXTI_TRIGGER_RISING          ((uint8_t)0x01U) /*!< Trigger Rising Mode */
 174:Drivers/STM32L1xx_HAL_Driver/Inc/stm32l1xx_ll_exti.h **** #define LL_EXTI_TRIGGER_FALLING         ((uint8_t)0x02U) /*!< Trigger Falling Mode */
 175:Drivers/STM32L1xx_HAL_Driver/Inc/stm32l1xx_ll_exti.h **** #define LL_EXTI_TRIGGER_RISING_FALLING  ((uint8_t)0x03U) /*!< Trigger Rising & Falling Mode */
 176:Drivers/STM32L1xx_HAL_Driver/Inc/stm32l1xx_ll_exti.h **** 
 177:Drivers/STM32L1xx_HAL_Driver/Inc/stm32l1xx_ll_exti.h **** /**
 178:Drivers/STM32L1xx_HAL_Driver/Inc/stm32l1xx_ll_exti.h ****   * @}
 179:Drivers/STM32L1xx_HAL_Driver/Inc/stm32l1xx_ll_exti.h ****   */
 180:Drivers/STM32L1xx_HAL_Driver/Inc/stm32l1xx_ll_exti.h **** 
 181:Drivers/STM32L1xx_HAL_Driver/Inc/stm32l1xx_ll_exti.h **** 
 182:Drivers/STM32L1xx_HAL_Driver/Inc/stm32l1xx_ll_exti.h **** #endif /*USE_FULL_LL_DRIVER*/
 183:Drivers/STM32L1xx_HAL_Driver/Inc/stm32l1xx_ll_exti.h **** 
 184:Drivers/STM32L1xx_HAL_Driver/Inc/stm32l1xx_ll_exti.h **** 
 185:Drivers/STM32L1xx_HAL_Driver/Inc/stm32l1xx_ll_exti.h **** /**
 186:Drivers/STM32L1xx_HAL_Driver/Inc/stm32l1xx_ll_exti.h ****   * @}
 187:Drivers/STM32L1xx_HAL_Driver/Inc/stm32l1xx_ll_exti.h ****   */
 188:Drivers/STM32L1xx_HAL_Driver/Inc/stm32l1xx_ll_exti.h **** 
 189:Drivers/STM32L1xx_HAL_Driver/Inc/stm32l1xx_ll_exti.h **** /* Exported macro ------------------------------------------------------------*/
 190:Drivers/STM32L1xx_HAL_Driver/Inc/stm32l1xx_ll_exti.h **** /** @defgroup EXTI_LL_Exported_Macros EXTI Exported Macros
 191:Drivers/STM32L1xx_HAL_Driver/Inc/stm32l1xx_ll_exti.h ****   * @{
 192:Drivers/STM32L1xx_HAL_Driver/Inc/stm32l1xx_ll_exti.h ****   */
 193:Drivers/STM32L1xx_HAL_Driver/Inc/stm32l1xx_ll_exti.h **** 
ARM GAS  C:\Users\domen\AppData\Local\Temp\ccbqR6EW.s 			page 12


 194:Drivers/STM32L1xx_HAL_Driver/Inc/stm32l1xx_ll_exti.h **** /** @defgroup EXTI_LL_EM_WRITE_READ Common Write and read registers Macros
 195:Drivers/STM32L1xx_HAL_Driver/Inc/stm32l1xx_ll_exti.h ****   * @{
 196:Drivers/STM32L1xx_HAL_Driver/Inc/stm32l1xx_ll_exti.h ****   */
 197:Drivers/STM32L1xx_HAL_Driver/Inc/stm32l1xx_ll_exti.h **** 
 198:Drivers/STM32L1xx_HAL_Driver/Inc/stm32l1xx_ll_exti.h **** /**
 199:Drivers/STM32L1xx_HAL_Driver/Inc/stm32l1xx_ll_exti.h ****   * @brief  Write a value in EXTI register
 200:Drivers/STM32L1xx_HAL_Driver/Inc/stm32l1xx_ll_exti.h ****   * @param  __REG__ Register to be written
 201:Drivers/STM32L1xx_HAL_Driver/Inc/stm32l1xx_ll_exti.h ****   * @param  __VALUE__ Value to be written in the register
 202:Drivers/STM32L1xx_HAL_Driver/Inc/stm32l1xx_ll_exti.h ****   * @retval None
 203:Drivers/STM32L1xx_HAL_Driver/Inc/stm32l1xx_ll_exti.h ****   */
 204:Drivers/STM32L1xx_HAL_Driver/Inc/stm32l1xx_ll_exti.h **** #define LL_EXTI_WriteReg(__REG__, __VALUE__) WRITE_REG(EXTI->__REG__, (__VALUE__))
 205:Drivers/STM32L1xx_HAL_Driver/Inc/stm32l1xx_ll_exti.h **** 
 206:Drivers/STM32L1xx_HAL_Driver/Inc/stm32l1xx_ll_exti.h **** /**
 207:Drivers/STM32L1xx_HAL_Driver/Inc/stm32l1xx_ll_exti.h ****   * @brief  Read a value in EXTI register
 208:Drivers/STM32L1xx_HAL_Driver/Inc/stm32l1xx_ll_exti.h ****   * @param  __REG__ Register to be read
 209:Drivers/STM32L1xx_HAL_Driver/Inc/stm32l1xx_ll_exti.h ****   * @retval Register value
 210:Drivers/STM32L1xx_HAL_Driver/Inc/stm32l1xx_ll_exti.h ****   */
 211:Drivers/STM32L1xx_HAL_Driver/Inc/stm32l1xx_ll_exti.h **** #define LL_EXTI_ReadReg(__REG__) READ_REG(EXTI->__REG__)
 212:Drivers/STM32L1xx_HAL_Driver/Inc/stm32l1xx_ll_exti.h **** /**
 213:Drivers/STM32L1xx_HAL_Driver/Inc/stm32l1xx_ll_exti.h ****   * @}
 214:Drivers/STM32L1xx_HAL_Driver/Inc/stm32l1xx_ll_exti.h ****   */
 215:Drivers/STM32L1xx_HAL_Driver/Inc/stm32l1xx_ll_exti.h **** 
 216:Drivers/STM32L1xx_HAL_Driver/Inc/stm32l1xx_ll_exti.h **** 
 217:Drivers/STM32L1xx_HAL_Driver/Inc/stm32l1xx_ll_exti.h **** /**
 218:Drivers/STM32L1xx_HAL_Driver/Inc/stm32l1xx_ll_exti.h ****   * @}
 219:Drivers/STM32L1xx_HAL_Driver/Inc/stm32l1xx_ll_exti.h ****   */
 220:Drivers/STM32L1xx_HAL_Driver/Inc/stm32l1xx_ll_exti.h **** 
 221:Drivers/STM32L1xx_HAL_Driver/Inc/stm32l1xx_ll_exti.h **** 
 222:Drivers/STM32L1xx_HAL_Driver/Inc/stm32l1xx_ll_exti.h **** 
 223:Drivers/STM32L1xx_HAL_Driver/Inc/stm32l1xx_ll_exti.h **** /* Exported functions --------------------------------------------------------*/
 224:Drivers/STM32L1xx_HAL_Driver/Inc/stm32l1xx_ll_exti.h **** /** @defgroup EXTI_LL_Exported_Functions EXTI Exported Functions
 225:Drivers/STM32L1xx_HAL_Driver/Inc/stm32l1xx_ll_exti.h ****  * @{
 226:Drivers/STM32L1xx_HAL_Driver/Inc/stm32l1xx_ll_exti.h ****  */
 227:Drivers/STM32L1xx_HAL_Driver/Inc/stm32l1xx_ll_exti.h **** /** @defgroup EXTI_LL_EF_IT_Management IT_Management
 228:Drivers/STM32L1xx_HAL_Driver/Inc/stm32l1xx_ll_exti.h ****   * @{
 229:Drivers/STM32L1xx_HAL_Driver/Inc/stm32l1xx_ll_exti.h ****   */
 230:Drivers/STM32L1xx_HAL_Driver/Inc/stm32l1xx_ll_exti.h **** 
 231:Drivers/STM32L1xx_HAL_Driver/Inc/stm32l1xx_ll_exti.h **** /**
 232:Drivers/STM32L1xx_HAL_Driver/Inc/stm32l1xx_ll_exti.h ****   * @brief  Enable ExtiLine Interrupt request for Lines in range 0 to 31
 233:Drivers/STM32L1xx_HAL_Driver/Inc/stm32l1xx_ll_exti.h ****   * @note The reset value for the direct or internal lines (see RM)
 234:Drivers/STM32L1xx_HAL_Driver/Inc/stm32l1xx_ll_exti.h ****   *       is set to 1 in order to enable the interrupt by default.
 235:Drivers/STM32L1xx_HAL_Driver/Inc/stm32l1xx_ll_exti.h ****   *       Bits are set automatically at Power on.
 236:Drivers/STM32L1xx_HAL_Driver/Inc/stm32l1xx_ll_exti.h ****   * @rmtoll IMR         IMx           LL_EXTI_EnableIT_0_31
 237:Drivers/STM32L1xx_HAL_Driver/Inc/stm32l1xx_ll_exti.h ****   * @param  ExtiLine This parameter can be one of the following values:
 238:Drivers/STM32L1xx_HAL_Driver/Inc/stm32l1xx_ll_exti.h ****   *         @arg @ref LL_EXTI_LINE_0
 239:Drivers/STM32L1xx_HAL_Driver/Inc/stm32l1xx_ll_exti.h ****   *         @arg @ref LL_EXTI_LINE_1
 240:Drivers/STM32L1xx_HAL_Driver/Inc/stm32l1xx_ll_exti.h ****   *         @arg @ref LL_EXTI_LINE_2
 241:Drivers/STM32L1xx_HAL_Driver/Inc/stm32l1xx_ll_exti.h ****   *         @arg @ref LL_EXTI_LINE_3
 242:Drivers/STM32L1xx_HAL_Driver/Inc/stm32l1xx_ll_exti.h ****   *         @arg @ref LL_EXTI_LINE_4
 243:Drivers/STM32L1xx_HAL_Driver/Inc/stm32l1xx_ll_exti.h ****   *         @arg @ref LL_EXTI_LINE_5
 244:Drivers/STM32L1xx_HAL_Driver/Inc/stm32l1xx_ll_exti.h ****   *         @arg @ref LL_EXTI_LINE_6
 245:Drivers/STM32L1xx_HAL_Driver/Inc/stm32l1xx_ll_exti.h ****   *         @arg @ref LL_EXTI_LINE_7
 246:Drivers/STM32L1xx_HAL_Driver/Inc/stm32l1xx_ll_exti.h ****   *         @arg @ref LL_EXTI_LINE_8
 247:Drivers/STM32L1xx_HAL_Driver/Inc/stm32l1xx_ll_exti.h ****   *         @arg @ref LL_EXTI_LINE_9
 248:Drivers/STM32L1xx_HAL_Driver/Inc/stm32l1xx_ll_exti.h ****   *         @arg @ref LL_EXTI_LINE_10
 249:Drivers/STM32L1xx_HAL_Driver/Inc/stm32l1xx_ll_exti.h ****   *         @arg @ref LL_EXTI_LINE_11
 250:Drivers/STM32L1xx_HAL_Driver/Inc/stm32l1xx_ll_exti.h ****   *         @arg @ref LL_EXTI_LINE_12
ARM GAS  C:\Users\domen\AppData\Local\Temp\ccbqR6EW.s 			page 13


 251:Drivers/STM32L1xx_HAL_Driver/Inc/stm32l1xx_ll_exti.h ****   *         @arg @ref LL_EXTI_LINE_13
 252:Drivers/STM32L1xx_HAL_Driver/Inc/stm32l1xx_ll_exti.h ****   *         @arg @ref LL_EXTI_LINE_14
 253:Drivers/STM32L1xx_HAL_Driver/Inc/stm32l1xx_ll_exti.h ****   *         @arg @ref LL_EXTI_LINE_15
 254:Drivers/STM32L1xx_HAL_Driver/Inc/stm32l1xx_ll_exti.h ****   *         @arg @ref LL_EXTI_LINE_16
 255:Drivers/STM32L1xx_HAL_Driver/Inc/stm32l1xx_ll_exti.h ****   *         @arg @ref LL_EXTI_LINE_17
 256:Drivers/STM32L1xx_HAL_Driver/Inc/stm32l1xx_ll_exti.h ****   *         @arg @ref LL_EXTI_LINE_18
 257:Drivers/STM32L1xx_HAL_Driver/Inc/stm32l1xx_ll_exti.h ****   *         @arg @ref LL_EXTI_LINE_19
 258:Drivers/STM32L1xx_HAL_Driver/Inc/stm32l1xx_ll_exti.h ****   *         @arg @ref LL_EXTI_LINE_20
 259:Drivers/STM32L1xx_HAL_Driver/Inc/stm32l1xx_ll_exti.h ****   *         @arg @ref LL_EXTI_LINE_21
 260:Drivers/STM32L1xx_HAL_Driver/Inc/stm32l1xx_ll_exti.h ****   *         @arg @ref LL_EXTI_LINE_22
 261:Drivers/STM32L1xx_HAL_Driver/Inc/stm32l1xx_ll_exti.h ****   *         @arg @ref LL_EXTI_LINE_23
 262:Drivers/STM32L1xx_HAL_Driver/Inc/stm32l1xx_ll_exti.h ****   *         @arg @ref LL_EXTI_LINE_24
 263:Drivers/STM32L1xx_HAL_Driver/Inc/stm32l1xx_ll_exti.h ****   *         @arg @ref LL_EXTI_LINE_25
 264:Drivers/STM32L1xx_HAL_Driver/Inc/stm32l1xx_ll_exti.h ****   *         @arg @ref LL_EXTI_LINE_26
 265:Drivers/STM32L1xx_HAL_Driver/Inc/stm32l1xx_ll_exti.h ****   *         @arg @ref LL_EXTI_LINE_27
 266:Drivers/STM32L1xx_HAL_Driver/Inc/stm32l1xx_ll_exti.h ****   *         @arg @ref LL_EXTI_LINE_28
 267:Drivers/STM32L1xx_HAL_Driver/Inc/stm32l1xx_ll_exti.h ****   *         @arg @ref LL_EXTI_LINE_29
 268:Drivers/STM32L1xx_HAL_Driver/Inc/stm32l1xx_ll_exti.h ****   *         @arg @ref LL_EXTI_LINE_30
 269:Drivers/STM32L1xx_HAL_Driver/Inc/stm32l1xx_ll_exti.h ****   *         @arg @ref LL_EXTI_LINE_31
 270:Drivers/STM32L1xx_HAL_Driver/Inc/stm32l1xx_ll_exti.h ****   *         @arg @ref LL_EXTI_LINE_ALL_0_31
 271:Drivers/STM32L1xx_HAL_Driver/Inc/stm32l1xx_ll_exti.h ****   * @note   Please check each device line mapping for EXTI Line availability
 272:Drivers/STM32L1xx_HAL_Driver/Inc/stm32l1xx_ll_exti.h ****   * @retval None
 273:Drivers/STM32L1xx_HAL_Driver/Inc/stm32l1xx_ll_exti.h ****   */
 274:Drivers/STM32L1xx_HAL_Driver/Inc/stm32l1xx_ll_exti.h **** __STATIC_INLINE void LL_EXTI_EnableIT_0_31(uint32_t ExtiLine)
 275:Drivers/STM32L1xx_HAL_Driver/Inc/stm32l1xx_ll_exti.h **** {
 276:Drivers/STM32L1xx_HAL_Driver/Inc/stm32l1xx_ll_exti.h ****   SET_BIT(EXTI->IMR, ExtiLine);
 277:Drivers/STM32L1xx_HAL_Driver/Inc/stm32l1xx_ll_exti.h **** }
 278:Drivers/STM32L1xx_HAL_Driver/Inc/stm32l1xx_ll_exti.h **** 
 279:Drivers/STM32L1xx_HAL_Driver/Inc/stm32l1xx_ll_exti.h **** /**
 280:Drivers/STM32L1xx_HAL_Driver/Inc/stm32l1xx_ll_exti.h ****   * @brief  Disable ExtiLine Interrupt request for Lines in range 0 to 31
 281:Drivers/STM32L1xx_HAL_Driver/Inc/stm32l1xx_ll_exti.h ****   * @note The reset value for the direct or internal lines (see RM)
 282:Drivers/STM32L1xx_HAL_Driver/Inc/stm32l1xx_ll_exti.h ****   *       is set to 1 in order to enable the interrupt by default.
 283:Drivers/STM32L1xx_HAL_Driver/Inc/stm32l1xx_ll_exti.h ****   *       Bits are set automatically at Power on.
 284:Drivers/STM32L1xx_HAL_Driver/Inc/stm32l1xx_ll_exti.h ****   * @rmtoll IMR         IMx           LL_EXTI_DisableIT_0_31
 285:Drivers/STM32L1xx_HAL_Driver/Inc/stm32l1xx_ll_exti.h ****   * @param  ExtiLine This parameter can be one of the following values:
 286:Drivers/STM32L1xx_HAL_Driver/Inc/stm32l1xx_ll_exti.h ****   *         @arg @ref LL_EXTI_LINE_0
 287:Drivers/STM32L1xx_HAL_Driver/Inc/stm32l1xx_ll_exti.h ****   *         @arg @ref LL_EXTI_LINE_1
 288:Drivers/STM32L1xx_HAL_Driver/Inc/stm32l1xx_ll_exti.h ****   *         @arg @ref LL_EXTI_LINE_2
 289:Drivers/STM32L1xx_HAL_Driver/Inc/stm32l1xx_ll_exti.h ****   *         @arg @ref LL_EXTI_LINE_3
 290:Drivers/STM32L1xx_HAL_Driver/Inc/stm32l1xx_ll_exti.h ****   *         @arg @ref LL_EXTI_LINE_4
 291:Drivers/STM32L1xx_HAL_Driver/Inc/stm32l1xx_ll_exti.h ****   *         @arg @ref LL_EXTI_LINE_5
 292:Drivers/STM32L1xx_HAL_Driver/Inc/stm32l1xx_ll_exti.h ****   *         @arg @ref LL_EXTI_LINE_6
 293:Drivers/STM32L1xx_HAL_Driver/Inc/stm32l1xx_ll_exti.h ****   *         @arg @ref LL_EXTI_LINE_7
 294:Drivers/STM32L1xx_HAL_Driver/Inc/stm32l1xx_ll_exti.h ****   *         @arg @ref LL_EXTI_LINE_8
 295:Drivers/STM32L1xx_HAL_Driver/Inc/stm32l1xx_ll_exti.h ****   *         @arg @ref LL_EXTI_LINE_9
 296:Drivers/STM32L1xx_HAL_Driver/Inc/stm32l1xx_ll_exti.h ****   *         @arg @ref LL_EXTI_LINE_10
 297:Drivers/STM32L1xx_HAL_Driver/Inc/stm32l1xx_ll_exti.h ****   *         @arg @ref LL_EXTI_LINE_11
 298:Drivers/STM32L1xx_HAL_Driver/Inc/stm32l1xx_ll_exti.h ****   *         @arg @ref LL_EXTI_LINE_12
 299:Drivers/STM32L1xx_HAL_Driver/Inc/stm32l1xx_ll_exti.h ****   *         @arg @ref LL_EXTI_LINE_13
 300:Drivers/STM32L1xx_HAL_Driver/Inc/stm32l1xx_ll_exti.h ****   *         @arg @ref LL_EXTI_LINE_14
 301:Drivers/STM32L1xx_HAL_Driver/Inc/stm32l1xx_ll_exti.h ****   *         @arg @ref LL_EXTI_LINE_15
 302:Drivers/STM32L1xx_HAL_Driver/Inc/stm32l1xx_ll_exti.h ****   *         @arg @ref LL_EXTI_LINE_16
 303:Drivers/STM32L1xx_HAL_Driver/Inc/stm32l1xx_ll_exti.h ****   *         @arg @ref LL_EXTI_LINE_17
 304:Drivers/STM32L1xx_HAL_Driver/Inc/stm32l1xx_ll_exti.h ****   *         @arg @ref LL_EXTI_LINE_18
 305:Drivers/STM32L1xx_HAL_Driver/Inc/stm32l1xx_ll_exti.h ****   *         @arg @ref LL_EXTI_LINE_19
 306:Drivers/STM32L1xx_HAL_Driver/Inc/stm32l1xx_ll_exti.h ****   *         @arg @ref LL_EXTI_LINE_20
 307:Drivers/STM32L1xx_HAL_Driver/Inc/stm32l1xx_ll_exti.h ****   *         @arg @ref LL_EXTI_LINE_21
ARM GAS  C:\Users\domen\AppData\Local\Temp\ccbqR6EW.s 			page 14


 308:Drivers/STM32L1xx_HAL_Driver/Inc/stm32l1xx_ll_exti.h ****   *         @arg @ref LL_EXTI_LINE_22
 309:Drivers/STM32L1xx_HAL_Driver/Inc/stm32l1xx_ll_exti.h ****   *         @arg @ref LL_EXTI_LINE_23
 310:Drivers/STM32L1xx_HAL_Driver/Inc/stm32l1xx_ll_exti.h ****   *         @arg @ref LL_EXTI_LINE_24
 311:Drivers/STM32L1xx_HAL_Driver/Inc/stm32l1xx_ll_exti.h ****   *         @arg @ref LL_EXTI_LINE_25
 312:Drivers/STM32L1xx_HAL_Driver/Inc/stm32l1xx_ll_exti.h ****   *         @arg @ref LL_EXTI_LINE_26
 313:Drivers/STM32L1xx_HAL_Driver/Inc/stm32l1xx_ll_exti.h ****   *         @arg @ref LL_EXTI_LINE_27
 314:Drivers/STM32L1xx_HAL_Driver/Inc/stm32l1xx_ll_exti.h ****   *         @arg @ref LL_EXTI_LINE_28
 315:Drivers/STM32L1xx_HAL_Driver/Inc/stm32l1xx_ll_exti.h ****   *         @arg @ref LL_EXTI_LINE_29
 316:Drivers/STM32L1xx_HAL_Driver/Inc/stm32l1xx_ll_exti.h ****   *         @arg @ref LL_EXTI_LINE_30
 317:Drivers/STM32L1xx_HAL_Driver/Inc/stm32l1xx_ll_exti.h ****   *         @arg @ref LL_EXTI_LINE_31
 318:Drivers/STM32L1xx_HAL_Driver/Inc/stm32l1xx_ll_exti.h ****   *         @arg @ref LL_EXTI_LINE_ALL_0_31
 319:Drivers/STM32L1xx_HAL_Driver/Inc/stm32l1xx_ll_exti.h ****   * @note   Please check each device line mapping for EXTI Line availability
 320:Drivers/STM32L1xx_HAL_Driver/Inc/stm32l1xx_ll_exti.h ****   * @retval None
 321:Drivers/STM32L1xx_HAL_Driver/Inc/stm32l1xx_ll_exti.h ****   */
 322:Drivers/STM32L1xx_HAL_Driver/Inc/stm32l1xx_ll_exti.h **** __STATIC_INLINE void LL_EXTI_DisableIT_0_31(uint32_t ExtiLine)
 323:Drivers/STM32L1xx_HAL_Driver/Inc/stm32l1xx_ll_exti.h **** {
 324:Drivers/STM32L1xx_HAL_Driver/Inc/stm32l1xx_ll_exti.h ****   CLEAR_BIT(EXTI->IMR, ExtiLine);
 325:Drivers/STM32L1xx_HAL_Driver/Inc/stm32l1xx_ll_exti.h **** }
 326:Drivers/STM32L1xx_HAL_Driver/Inc/stm32l1xx_ll_exti.h **** 
 327:Drivers/STM32L1xx_HAL_Driver/Inc/stm32l1xx_ll_exti.h **** 
 328:Drivers/STM32L1xx_HAL_Driver/Inc/stm32l1xx_ll_exti.h **** /**
 329:Drivers/STM32L1xx_HAL_Driver/Inc/stm32l1xx_ll_exti.h ****   * @brief  Indicate if ExtiLine Interrupt request is enabled for Lines in range 0 to 31
 330:Drivers/STM32L1xx_HAL_Driver/Inc/stm32l1xx_ll_exti.h ****   * @note The reset value for the direct or internal lines (see RM)
 331:Drivers/STM32L1xx_HAL_Driver/Inc/stm32l1xx_ll_exti.h ****   *       is set to 1 in order to enable the interrupt by default.
 332:Drivers/STM32L1xx_HAL_Driver/Inc/stm32l1xx_ll_exti.h ****   *       Bits are set automatically at Power on.
 333:Drivers/STM32L1xx_HAL_Driver/Inc/stm32l1xx_ll_exti.h ****   * @rmtoll IMR         IMx           LL_EXTI_IsEnabledIT_0_31
 334:Drivers/STM32L1xx_HAL_Driver/Inc/stm32l1xx_ll_exti.h ****   * @param  ExtiLine This parameter can be one of the following values:
 335:Drivers/STM32L1xx_HAL_Driver/Inc/stm32l1xx_ll_exti.h ****   *         @arg @ref LL_EXTI_LINE_0
 336:Drivers/STM32L1xx_HAL_Driver/Inc/stm32l1xx_ll_exti.h ****   *         @arg @ref LL_EXTI_LINE_1
 337:Drivers/STM32L1xx_HAL_Driver/Inc/stm32l1xx_ll_exti.h ****   *         @arg @ref LL_EXTI_LINE_2
 338:Drivers/STM32L1xx_HAL_Driver/Inc/stm32l1xx_ll_exti.h ****   *         @arg @ref LL_EXTI_LINE_3
 339:Drivers/STM32L1xx_HAL_Driver/Inc/stm32l1xx_ll_exti.h ****   *         @arg @ref LL_EXTI_LINE_4
 340:Drivers/STM32L1xx_HAL_Driver/Inc/stm32l1xx_ll_exti.h ****   *         @arg @ref LL_EXTI_LINE_5
 341:Drivers/STM32L1xx_HAL_Driver/Inc/stm32l1xx_ll_exti.h ****   *         @arg @ref LL_EXTI_LINE_6
 342:Drivers/STM32L1xx_HAL_Driver/Inc/stm32l1xx_ll_exti.h ****   *         @arg @ref LL_EXTI_LINE_7
 343:Drivers/STM32L1xx_HAL_Driver/Inc/stm32l1xx_ll_exti.h ****   *         @arg @ref LL_EXTI_LINE_8
 344:Drivers/STM32L1xx_HAL_Driver/Inc/stm32l1xx_ll_exti.h ****   *         @arg @ref LL_EXTI_LINE_9
 345:Drivers/STM32L1xx_HAL_Driver/Inc/stm32l1xx_ll_exti.h ****   *         @arg @ref LL_EXTI_LINE_10
 346:Drivers/STM32L1xx_HAL_Driver/Inc/stm32l1xx_ll_exti.h ****   *         @arg @ref LL_EXTI_LINE_11
 347:Drivers/STM32L1xx_HAL_Driver/Inc/stm32l1xx_ll_exti.h ****   *         @arg @ref LL_EXTI_LINE_12
 348:Drivers/STM32L1xx_HAL_Driver/Inc/stm32l1xx_ll_exti.h ****   *         @arg @ref LL_EXTI_LINE_13
 349:Drivers/STM32L1xx_HAL_Driver/Inc/stm32l1xx_ll_exti.h ****   *         @arg @ref LL_EXTI_LINE_14
 350:Drivers/STM32L1xx_HAL_Driver/Inc/stm32l1xx_ll_exti.h ****   *         @arg @ref LL_EXTI_LINE_15
 351:Drivers/STM32L1xx_HAL_Driver/Inc/stm32l1xx_ll_exti.h ****   *         @arg @ref LL_EXTI_LINE_16
 352:Drivers/STM32L1xx_HAL_Driver/Inc/stm32l1xx_ll_exti.h ****   *         @arg @ref LL_EXTI_LINE_17
 353:Drivers/STM32L1xx_HAL_Driver/Inc/stm32l1xx_ll_exti.h ****   *         @arg @ref LL_EXTI_LINE_18
 354:Drivers/STM32L1xx_HAL_Driver/Inc/stm32l1xx_ll_exti.h ****   *         @arg @ref LL_EXTI_LINE_19
 355:Drivers/STM32L1xx_HAL_Driver/Inc/stm32l1xx_ll_exti.h ****   *         @arg @ref LL_EXTI_LINE_20
 356:Drivers/STM32L1xx_HAL_Driver/Inc/stm32l1xx_ll_exti.h ****   *         @arg @ref LL_EXTI_LINE_21
 357:Drivers/STM32L1xx_HAL_Driver/Inc/stm32l1xx_ll_exti.h ****   *         @arg @ref LL_EXTI_LINE_22
 358:Drivers/STM32L1xx_HAL_Driver/Inc/stm32l1xx_ll_exti.h ****   *         @arg @ref LL_EXTI_LINE_23
 359:Drivers/STM32L1xx_HAL_Driver/Inc/stm32l1xx_ll_exti.h ****   *         @arg @ref LL_EXTI_LINE_24
 360:Drivers/STM32L1xx_HAL_Driver/Inc/stm32l1xx_ll_exti.h ****   *         @arg @ref LL_EXTI_LINE_25
 361:Drivers/STM32L1xx_HAL_Driver/Inc/stm32l1xx_ll_exti.h ****   *         @arg @ref LL_EXTI_LINE_26
 362:Drivers/STM32L1xx_HAL_Driver/Inc/stm32l1xx_ll_exti.h ****   *         @arg @ref LL_EXTI_LINE_27
 363:Drivers/STM32L1xx_HAL_Driver/Inc/stm32l1xx_ll_exti.h ****   *         @arg @ref LL_EXTI_LINE_28
 364:Drivers/STM32L1xx_HAL_Driver/Inc/stm32l1xx_ll_exti.h ****   *         @arg @ref LL_EXTI_LINE_29
ARM GAS  C:\Users\domen\AppData\Local\Temp\ccbqR6EW.s 			page 15


 365:Drivers/STM32L1xx_HAL_Driver/Inc/stm32l1xx_ll_exti.h ****   *         @arg @ref LL_EXTI_LINE_30
 366:Drivers/STM32L1xx_HAL_Driver/Inc/stm32l1xx_ll_exti.h ****   *         @arg @ref LL_EXTI_LINE_31
 367:Drivers/STM32L1xx_HAL_Driver/Inc/stm32l1xx_ll_exti.h ****   *         @arg @ref LL_EXTI_LINE_ALL_0_31
 368:Drivers/STM32L1xx_HAL_Driver/Inc/stm32l1xx_ll_exti.h ****   * @note   Please check each device line mapping for EXTI Line availability
 369:Drivers/STM32L1xx_HAL_Driver/Inc/stm32l1xx_ll_exti.h ****   * @retval State of bit (1 or 0).
 370:Drivers/STM32L1xx_HAL_Driver/Inc/stm32l1xx_ll_exti.h ****   */
 371:Drivers/STM32L1xx_HAL_Driver/Inc/stm32l1xx_ll_exti.h **** __STATIC_INLINE uint32_t LL_EXTI_IsEnabledIT_0_31(uint32_t ExtiLine)
 372:Drivers/STM32L1xx_HAL_Driver/Inc/stm32l1xx_ll_exti.h **** {
 373:Drivers/STM32L1xx_HAL_Driver/Inc/stm32l1xx_ll_exti.h ****   return (READ_BIT(EXTI->IMR, ExtiLine) == (ExtiLine));
 374:Drivers/STM32L1xx_HAL_Driver/Inc/stm32l1xx_ll_exti.h **** }
 375:Drivers/STM32L1xx_HAL_Driver/Inc/stm32l1xx_ll_exti.h **** 
 376:Drivers/STM32L1xx_HAL_Driver/Inc/stm32l1xx_ll_exti.h **** 
 377:Drivers/STM32L1xx_HAL_Driver/Inc/stm32l1xx_ll_exti.h **** /**
 378:Drivers/STM32L1xx_HAL_Driver/Inc/stm32l1xx_ll_exti.h ****   * @}
 379:Drivers/STM32L1xx_HAL_Driver/Inc/stm32l1xx_ll_exti.h ****   */
 380:Drivers/STM32L1xx_HAL_Driver/Inc/stm32l1xx_ll_exti.h **** 
 381:Drivers/STM32L1xx_HAL_Driver/Inc/stm32l1xx_ll_exti.h **** /** @defgroup EXTI_LL_EF_Event_Management Event_Management
 382:Drivers/STM32L1xx_HAL_Driver/Inc/stm32l1xx_ll_exti.h ****   * @{
 383:Drivers/STM32L1xx_HAL_Driver/Inc/stm32l1xx_ll_exti.h ****   */
 384:Drivers/STM32L1xx_HAL_Driver/Inc/stm32l1xx_ll_exti.h **** 
 385:Drivers/STM32L1xx_HAL_Driver/Inc/stm32l1xx_ll_exti.h **** /**
 386:Drivers/STM32L1xx_HAL_Driver/Inc/stm32l1xx_ll_exti.h ****   * @brief  Enable ExtiLine Event request for Lines in range 0 to 31
 387:Drivers/STM32L1xx_HAL_Driver/Inc/stm32l1xx_ll_exti.h ****   * @rmtoll EMR         EMx           LL_EXTI_EnableEvent_0_31
 388:Drivers/STM32L1xx_HAL_Driver/Inc/stm32l1xx_ll_exti.h ****   * @param  ExtiLine This parameter can be one of the following values:
 389:Drivers/STM32L1xx_HAL_Driver/Inc/stm32l1xx_ll_exti.h ****   *         @arg @ref LL_EXTI_LINE_0
 390:Drivers/STM32L1xx_HAL_Driver/Inc/stm32l1xx_ll_exti.h ****   *         @arg @ref LL_EXTI_LINE_1
 391:Drivers/STM32L1xx_HAL_Driver/Inc/stm32l1xx_ll_exti.h ****   *         @arg @ref LL_EXTI_LINE_2
 392:Drivers/STM32L1xx_HAL_Driver/Inc/stm32l1xx_ll_exti.h ****   *         @arg @ref LL_EXTI_LINE_3
 393:Drivers/STM32L1xx_HAL_Driver/Inc/stm32l1xx_ll_exti.h ****   *         @arg @ref LL_EXTI_LINE_4
 394:Drivers/STM32L1xx_HAL_Driver/Inc/stm32l1xx_ll_exti.h ****   *         @arg @ref LL_EXTI_LINE_5
 395:Drivers/STM32L1xx_HAL_Driver/Inc/stm32l1xx_ll_exti.h ****   *         @arg @ref LL_EXTI_LINE_6
 396:Drivers/STM32L1xx_HAL_Driver/Inc/stm32l1xx_ll_exti.h ****   *         @arg @ref LL_EXTI_LINE_7
 397:Drivers/STM32L1xx_HAL_Driver/Inc/stm32l1xx_ll_exti.h ****   *         @arg @ref LL_EXTI_LINE_8
 398:Drivers/STM32L1xx_HAL_Driver/Inc/stm32l1xx_ll_exti.h ****   *         @arg @ref LL_EXTI_LINE_9
 399:Drivers/STM32L1xx_HAL_Driver/Inc/stm32l1xx_ll_exti.h ****   *         @arg @ref LL_EXTI_LINE_10
 400:Drivers/STM32L1xx_HAL_Driver/Inc/stm32l1xx_ll_exti.h ****   *         @arg @ref LL_EXTI_LINE_11
 401:Drivers/STM32L1xx_HAL_Driver/Inc/stm32l1xx_ll_exti.h ****   *         @arg @ref LL_EXTI_LINE_12
 402:Drivers/STM32L1xx_HAL_Driver/Inc/stm32l1xx_ll_exti.h ****   *         @arg @ref LL_EXTI_LINE_13
 403:Drivers/STM32L1xx_HAL_Driver/Inc/stm32l1xx_ll_exti.h ****   *         @arg @ref LL_EXTI_LINE_14
 404:Drivers/STM32L1xx_HAL_Driver/Inc/stm32l1xx_ll_exti.h ****   *         @arg @ref LL_EXTI_LINE_15
 405:Drivers/STM32L1xx_HAL_Driver/Inc/stm32l1xx_ll_exti.h ****   *         @arg @ref LL_EXTI_LINE_16
 406:Drivers/STM32L1xx_HAL_Driver/Inc/stm32l1xx_ll_exti.h ****   *         @arg @ref LL_EXTI_LINE_17
 407:Drivers/STM32L1xx_HAL_Driver/Inc/stm32l1xx_ll_exti.h ****   *         @arg @ref LL_EXTI_LINE_18
 408:Drivers/STM32L1xx_HAL_Driver/Inc/stm32l1xx_ll_exti.h ****   *         @arg @ref LL_EXTI_LINE_19
 409:Drivers/STM32L1xx_HAL_Driver/Inc/stm32l1xx_ll_exti.h ****   *         @arg @ref LL_EXTI_LINE_20
 410:Drivers/STM32L1xx_HAL_Driver/Inc/stm32l1xx_ll_exti.h ****   *         @arg @ref LL_EXTI_LINE_21
 411:Drivers/STM32L1xx_HAL_Driver/Inc/stm32l1xx_ll_exti.h ****   *         @arg @ref LL_EXTI_LINE_22
 412:Drivers/STM32L1xx_HAL_Driver/Inc/stm32l1xx_ll_exti.h ****   *         @arg @ref LL_EXTI_LINE_23
 413:Drivers/STM32L1xx_HAL_Driver/Inc/stm32l1xx_ll_exti.h ****   *         @arg @ref LL_EXTI_LINE_24
 414:Drivers/STM32L1xx_HAL_Driver/Inc/stm32l1xx_ll_exti.h ****   *         @arg @ref LL_EXTI_LINE_25
 415:Drivers/STM32L1xx_HAL_Driver/Inc/stm32l1xx_ll_exti.h ****   *         @arg @ref LL_EXTI_LINE_26
 416:Drivers/STM32L1xx_HAL_Driver/Inc/stm32l1xx_ll_exti.h ****   *         @arg @ref LL_EXTI_LINE_27
 417:Drivers/STM32L1xx_HAL_Driver/Inc/stm32l1xx_ll_exti.h ****   *         @arg @ref LL_EXTI_LINE_28
 418:Drivers/STM32L1xx_HAL_Driver/Inc/stm32l1xx_ll_exti.h ****   *         @arg @ref LL_EXTI_LINE_29
 419:Drivers/STM32L1xx_HAL_Driver/Inc/stm32l1xx_ll_exti.h ****   *         @arg @ref LL_EXTI_LINE_30
 420:Drivers/STM32L1xx_HAL_Driver/Inc/stm32l1xx_ll_exti.h ****   *         @arg @ref LL_EXTI_LINE_31
 421:Drivers/STM32L1xx_HAL_Driver/Inc/stm32l1xx_ll_exti.h ****   *         @arg @ref LL_EXTI_LINE_ALL_0_31
ARM GAS  C:\Users\domen\AppData\Local\Temp\ccbqR6EW.s 			page 16


 422:Drivers/STM32L1xx_HAL_Driver/Inc/stm32l1xx_ll_exti.h ****   * @note   Please check each device line mapping for EXTI Line availability
 423:Drivers/STM32L1xx_HAL_Driver/Inc/stm32l1xx_ll_exti.h ****   * @retval None
 424:Drivers/STM32L1xx_HAL_Driver/Inc/stm32l1xx_ll_exti.h ****   */
 425:Drivers/STM32L1xx_HAL_Driver/Inc/stm32l1xx_ll_exti.h **** __STATIC_INLINE void LL_EXTI_EnableEvent_0_31(uint32_t ExtiLine)
 426:Drivers/STM32L1xx_HAL_Driver/Inc/stm32l1xx_ll_exti.h **** {
 427:Drivers/STM32L1xx_HAL_Driver/Inc/stm32l1xx_ll_exti.h ****   SET_BIT(EXTI->EMR, ExtiLine);
 428:Drivers/STM32L1xx_HAL_Driver/Inc/stm32l1xx_ll_exti.h **** 
 429:Drivers/STM32L1xx_HAL_Driver/Inc/stm32l1xx_ll_exti.h **** }
 430:Drivers/STM32L1xx_HAL_Driver/Inc/stm32l1xx_ll_exti.h **** 
 431:Drivers/STM32L1xx_HAL_Driver/Inc/stm32l1xx_ll_exti.h **** 
 432:Drivers/STM32L1xx_HAL_Driver/Inc/stm32l1xx_ll_exti.h **** /**
 433:Drivers/STM32L1xx_HAL_Driver/Inc/stm32l1xx_ll_exti.h ****   * @brief  Disable ExtiLine Event request for Lines in range 0 to 31
 434:Drivers/STM32L1xx_HAL_Driver/Inc/stm32l1xx_ll_exti.h ****   * @rmtoll EMR         EMx           LL_EXTI_DisableEvent_0_31
 435:Drivers/STM32L1xx_HAL_Driver/Inc/stm32l1xx_ll_exti.h ****   * @param  ExtiLine This parameter can be one of the following values:
 436:Drivers/STM32L1xx_HAL_Driver/Inc/stm32l1xx_ll_exti.h ****   *         @arg @ref LL_EXTI_LINE_0
 437:Drivers/STM32L1xx_HAL_Driver/Inc/stm32l1xx_ll_exti.h ****   *         @arg @ref LL_EXTI_LINE_1
 438:Drivers/STM32L1xx_HAL_Driver/Inc/stm32l1xx_ll_exti.h ****   *         @arg @ref LL_EXTI_LINE_2
 439:Drivers/STM32L1xx_HAL_Driver/Inc/stm32l1xx_ll_exti.h ****   *         @arg @ref LL_EXTI_LINE_3
 440:Drivers/STM32L1xx_HAL_Driver/Inc/stm32l1xx_ll_exti.h ****   *         @arg @ref LL_EXTI_LINE_4
 441:Drivers/STM32L1xx_HAL_Driver/Inc/stm32l1xx_ll_exti.h ****   *         @arg @ref LL_EXTI_LINE_5
 442:Drivers/STM32L1xx_HAL_Driver/Inc/stm32l1xx_ll_exti.h ****   *         @arg @ref LL_EXTI_LINE_6
 443:Drivers/STM32L1xx_HAL_Driver/Inc/stm32l1xx_ll_exti.h ****   *         @arg @ref LL_EXTI_LINE_7
 444:Drivers/STM32L1xx_HAL_Driver/Inc/stm32l1xx_ll_exti.h ****   *         @arg @ref LL_EXTI_LINE_8
 445:Drivers/STM32L1xx_HAL_Driver/Inc/stm32l1xx_ll_exti.h ****   *         @arg @ref LL_EXTI_LINE_9
 446:Drivers/STM32L1xx_HAL_Driver/Inc/stm32l1xx_ll_exti.h ****   *         @arg @ref LL_EXTI_LINE_10
 447:Drivers/STM32L1xx_HAL_Driver/Inc/stm32l1xx_ll_exti.h ****   *         @arg @ref LL_EXTI_LINE_11
 448:Drivers/STM32L1xx_HAL_Driver/Inc/stm32l1xx_ll_exti.h ****   *         @arg @ref LL_EXTI_LINE_12
 449:Drivers/STM32L1xx_HAL_Driver/Inc/stm32l1xx_ll_exti.h ****   *         @arg @ref LL_EXTI_LINE_13
 450:Drivers/STM32L1xx_HAL_Driver/Inc/stm32l1xx_ll_exti.h ****   *         @arg @ref LL_EXTI_LINE_14
 451:Drivers/STM32L1xx_HAL_Driver/Inc/stm32l1xx_ll_exti.h ****   *         @arg @ref LL_EXTI_LINE_15
 452:Drivers/STM32L1xx_HAL_Driver/Inc/stm32l1xx_ll_exti.h ****   *         @arg @ref LL_EXTI_LINE_16
 453:Drivers/STM32L1xx_HAL_Driver/Inc/stm32l1xx_ll_exti.h ****   *         @arg @ref LL_EXTI_LINE_17
 454:Drivers/STM32L1xx_HAL_Driver/Inc/stm32l1xx_ll_exti.h ****   *         @arg @ref LL_EXTI_LINE_18
 455:Drivers/STM32L1xx_HAL_Driver/Inc/stm32l1xx_ll_exti.h ****   *         @arg @ref LL_EXTI_LINE_19
 456:Drivers/STM32L1xx_HAL_Driver/Inc/stm32l1xx_ll_exti.h ****   *         @arg @ref LL_EXTI_LINE_20
 457:Drivers/STM32L1xx_HAL_Driver/Inc/stm32l1xx_ll_exti.h ****   *         @arg @ref LL_EXTI_LINE_21
 458:Drivers/STM32L1xx_HAL_Driver/Inc/stm32l1xx_ll_exti.h ****   *         @arg @ref LL_EXTI_LINE_22
 459:Drivers/STM32L1xx_HAL_Driver/Inc/stm32l1xx_ll_exti.h ****   *         @arg @ref LL_EXTI_LINE_23
 460:Drivers/STM32L1xx_HAL_Driver/Inc/stm32l1xx_ll_exti.h ****   *         @arg @ref LL_EXTI_LINE_24
 461:Drivers/STM32L1xx_HAL_Driver/Inc/stm32l1xx_ll_exti.h ****   *         @arg @ref LL_EXTI_LINE_25
 462:Drivers/STM32L1xx_HAL_Driver/Inc/stm32l1xx_ll_exti.h ****   *         @arg @ref LL_EXTI_LINE_26
 463:Drivers/STM32L1xx_HAL_Driver/Inc/stm32l1xx_ll_exti.h ****   *         @arg @ref LL_EXTI_LINE_27
 464:Drivers/STM32L1xx_HAL_Driver/Inc/stm32l1xx_ll_exti.h ****   *         @arg @ref LL_EXTI_LINE_28
 465:Drivers/STM32L1xx_HAL_Driver/Inc/stm32l1xx_ll_exti.h ****   *         @arg @ref LL_EXTI_LINE_29
 466:Drivers/STM32L1xx_HAL_Driver/Inc/stm32l1xx_ll_exti.h ****   *         @arg @ref LL_EXTI_LINE_30
 467:Drivers/STM32L1xx_HAL_Driver/Inc/stm32l1xx_ll_exti.h ****   *         @arg @ref LL_EXTI_LINE_31
 468:Drivers/STM32L1xx_HAL_Driver/Inc/stm32l1xx_ll_exti.h ****   *         @arg @ref LL_EXTI_LINE_ALL_0_31
 469:Drivers/STM32L1xx_HAL_Driver/Inc/stm32l1xx_ll_exti.h ****   * @note   Please check each device line mapping for EXTI Line availability
 470:Drivers/STM32L1xx_HAL_Driver/Inc/stm32l1xx_ll_exti.h ****   * @retval None
 471:Drivers/STM32L1xx_HAL_Driver/Inc/stm32l1xx_ll_exti.h ****   */
 472:Drivers/STM32L1xx_HAL_Driver/Inc/stm32l1xx_ll_exti.h **** __STATIC_INLINE void LL_EXTI_DisableEvent_0_31(uint32_t ExtiLine)
 473:Drivers/STM32L1xx_HAL_Driver/Inc/stm32l1xx_ll_exti.h **** {
 474:Drivers/STM32L1xx_HAL_Driver/Inc/stm32l1xx_ll_exti.h ****   CLEAR_BIT(EXTI->EMR, ExtiLine);
 475:Drivers/STM32L1xx_HAL_Driver/Inc/stm32l1xx_ll_exti.h **** }
 476:Drivers/STM32L1xx_HAL_Driver/Inc/stm32l1xx_ll_exti.h **** 
 477:Drivers/STM32L1xx_HAL_Driver/Inc/stm32l1xx_ll_exti.h **** 
 478:Drivers/STM32L1xx_HAL_Driver/Inc/stm32l1xx_ll_exti.h **** /**
ARM GAS  C:\Users\domen\AppData\Local\Temp\ccbqR6EW.s 			page 17


 479:Drivers/STM32L1xx_HAL_Driver/Inc/stm32l1xx_ll_exti.h ****   * @brief  Indicate if ExtiLine Event request is enabled for Lines in range 0 to 31
 480:Drivers/STM32L1xx_HAL_Driver/Inc/stm32l1xx_ll_exti.h ****   * @rmtoll EMR         EMx           LL_EXTI_IsEnabledEvent_0_31
 481:Drivers/STM32L1xx_HAL_Driver/Inc/stm32l1xx_ll_exti.h ****   * @param  ExtiLine This parameter can be one of the following values:
 482:Drivers/STM32L1xx_HAL_Driver/Inc/stm32l1xx_ll_exti.h ****   *         @arg @ref LL_EXTI_LINE_0
 483:Drivers/STM32L1xx_HAL_Driver/Inc/stm32l1xx_ll_exti.h ****   *         @arg @ref LL_EXTI_LINE_1
 484:Drivers/STM32L1xx_HAL_Driver/Inc/stm32l1xx_ll_exti.h ****   *         @arg @ref LL_EXTI_LINE_2
 485:Drivers/STM32L1xx_HAL_Driver/Inc/stm32l1xx_ll_exti.h ****   *         @arg @ref LL_EXTI_LINE_3
 486:Drivers/STM32L1xx_HAL_Driver/Inc/stm32l1xx_ll_exti.h ****   *         @arg @ref LL_EXTI_LINE_4
 487:Drivers/STM32L1xx_HAL_Driver/Inc/stm32l1xx_ll_exti.h ****   *         @arg @ref LL_EXTI_LINE_5
 488:Drivers/STM32L1xx_HAL_Driver/Inc/stm32l1xx_ll_exti.h ****   *         @arg @ref LL_EXTI_LINE_6
 489:Drivers/STM32L1xx_HAL_Driver/Inc/stm32l1xx_ll_exti.h ****   *         @arg @ref LL_EXTI_LINE_7
 490:Drivers/STM32L1xx_HAL_Driver/Inc/stm32l1xx_ll_exti.h ****   *         @arg @ref LL_EXTI_LINE_8
 491:Drivers/STM32L1xx_HAL_Driver/Inc/stm32l1xx_ll_exti.h ****   *         @arg @ref LL_EXTI_LINE_9
 492:Drivers/STM32L1xx_HAL_Driver/Inc/stm32l1xx_ll_exti.h ****   *         @arg @ref LL_EXTI_LINE_10
 493:Drivers/STM32L1xx_HAL_Driver/Inc/stm32l1xx_ll_exti.h ****   *         @arg @ref LL_EXTI_LINE_11
 494:Drivers/STM32L1xx_HAL_Driver/Inc/stm32l1xx_ll_exti.h ****   *         @arg @ref LL_EXTI_LINE_12
 495:Drivers/STM32L1xx_HAL_Driver/Inc/stm32l1xx_ll_exti.h ****   *         @arg @ref LL_EXTI_LINE_13
 496:Drivers/STM32L1xx_HAL_Driver/Inc/stm32l1xx_ll_exti.h ****   *         @arg @ref LL_EXTI_LINE_14
 497:Drivers/STM32L1xx_HAL_Driver/Inc/stm32l1xx_ll_exti.h ****   *         @arg @ref LL_EXTI_LINE_15
 498:Drivers/STM32L1xx_HAL_Driver/Inc/stm32l1xx_ll_exti.h ****   *         @arg @ref LL_EXTI_LINE_16
 499:Drivers/STM32L1xx_HAL_Driver/Inc/stm32l1xx_ll_exti.h ****   *         @arg @ref LL_EXTI_LINE_17
 500:Drivers/STM32L1xx_HAL_Driver/Inc/stm32l1xx_ll_exti.h ****   *         @arg @ref LL_EXTI_LINE_18
 501:Drivers/STM32L1xx_HAL_Driver/Inc/stm32l1xx_ll_exti.h ****   *         @arg @ref LL_EXTI_LINE_19
 502:Drivers/STM32L1xx_HAL_Driver/Inc/stm32l1xx_ll_exti.h ****   *         @arg @ref LL_EXTI_LINE_20
 503:Drivers/STM32L1xx_HAL_Driver/Inc/stm32l1xx_ll_exti.h ****   *         @arg @ref LL_EXTI_LINE_21
 504:Drivers/STM32L1xx_HAL_Driver/Inc/stm32l1xx_ll_exti.h ****   *         @arg @ref LL_EXTI_LINE_22
 505:Drivers/STM32L1xx_HAL_Driver/Inc/stm32l1xx_ll_exti.h ****   *         @arg @ref LL_EXTI_LINE_23
 506:Drivers/STM32L1xx_HAL_Driver/Inc/stm32l1xx_ll_exti.h ****   *         @arg @ref LL_EXTI_LINE_24
 507:Drivers/STM32L1xx_HAL_Driver/Inc/stm32l1xx_ll_exti.h ****   *         @arg @ref LL_EXTI_LINE_25
 508:Drivers/STM32L1xx_HAL_Driver/Inc/stm32l1xx_ll_exti.h ****   *         @arg @ref LL_EXTI_LINE_26
 509:Drivers/STM32L1xx_HAL_Driver/Inc/stm32l1xx_ll_exti.h ****   *         @arg @ref LL_EXTI_LINE_27
 510:Drivers/STM32L1xx_HAL_Driver/Inc/stm32l1xx_ll_exti.h ****   *         @arg @ref LL_EXTI_LINE_28
 511:Drivers/STM32L1xx_HAL_Driver/Inc/stm32l1xx_ll_exti.h ****   *         @arg @ref LL_EXTI_LINE_29
 512:Drivers/STM32L1xx_HAL_Driver/Inc/stm32l1xx_ll_exti.h ****   *         @arg @ref LL_EXTI_LINE_30
 513:Drivers/STM32L1xx_HAL_Driver/Inc/stm32l1xx_ll_exti.h ****   *         @arg @ref LL_EXTI_LINE_31
 514:Drivers/STM32L1xx_HAL_Driver/Inc/stm32l1xx_ll_exti.h ****   *         @arg @ref LL_EXTI_LINE_ALL_0_31
 515:Drivers/STM32L1xx_HAL_Driver/Inc/stm32l1xx_ll_exti.h ****   * @note   Please check each device line mapping for EXTI Line availability
 516:Drivers/STM32L1xx_HAL_Driver/Inc/stm32l1xx_ll_exti.h ****   * @retval State of bit (1 or 0).
 517:Drivers/STM32L1xx_HAL_Driver/Inc/stm32l1xx_ll_exti.h ****   */
 518:Drivers/STM32L1xx_HAL_Driver/Inc/stm32l1xx_ll_exti.h **** __STATIC_INLINE uint32_t LL_EXTI_IsEnabledEvent_0_31(uint32_t ExtiLine)
 519:Drivers/STM32L1xx_HAL_Driver/Inc/stm32l1xx_ll_exti.h **** {
 520:Drivers/STM32L1xx_HAL_Driver/Inc/stm32l1xx_ll_exti.h ****   return (READ_BIT(EXTI->EMR, ExtiLine) == (ExtiLine));
 521:Drivers/STM32L1xx_HAL_Driver/Inc/stm32l1xx_ll_exti.h **** 
 522:Drivers/STM32L1xx_HAL_Driver/Inc/stm32l1xx_ll_exti.h **** }
 523:Drivers/STM32L1xx_HAL_Driver/Inc/stm32l1xx_ll_exti.h **** 
 524:Drivers/STM32L1xx_HAL_Driver/Inc/stm32l1xx_ll_exti.h **** 
 525:Drivers/STM32L1xx_HAL_Driver/Inc/stm32l1xx_ll_exti.h **** /**
 526:Drivers/STM32L1xx_HAL_Driver/Inc/stm32l1xx_ll_exti.h ****   * @}
 527:Drivers/STM32L1xx_HAL_Driver/Inc/stm32l1xx_ll_exti.h ****   */
 528:Drivers/STM32L1xx_HAL_Driver/Inc/stm32l1xx_ll_exti.h **** 
 529:Drivers/STM32L1xx_HAL_Driver/Inc/stm32l1xx_ll_exti.h **** /** @defgroup EXTI_LL_EF_Rising_Trigger_Management Rising_Trigger_Management
 530:Drivers/STM32L1xx_HAL_Driver/Inc/stm32l1xx_ll_exti.h ****   * @{
 531:Drivers/STM32L1xx_HAL_Driver/Inc/stm32l1xx_ll_exti.h ****   */
 532:Drivers/STM32L1xx_HAL_Driver/Inc/stm32l1xx_ll_exti.h **** 
 533:Drivers/STM32L1xx_HAL_Driver/Inc/stm32l1xx_ll_exti.h **** /**
 534:Drivers/STM32L1xx_HAL_Driver/Inc/stm32l1xx_ll_exti.h ****   * @brief  Enable ExtiLine Rising Edge Trigger for Lines in range 0 to 31
 535:Drivers/STM32L1xx_HAL_Driver/Inc/stm32l1xx_ll_exti.h ****   * @note The configurable wakeup lines are edge-triggered. No glitch must be
ARM GAS  C:\Users\domen\AppData\Local\Temp\ccbqR6EW.s 			page 18


 536:Drivers/STM32L1xx_HAL_Driver/Inc/stm32l1xx_ll_exti.h ****   *       generated on these lines. If a rising edge on a configurable interrupt
 537:Drivers/STM32L1xx_HAL_Driver/Inc/stm32l1xx_ll_exti.h ****   *       line occurs during a write operation in the EXTI_RTSR register, the
 538:Drivers/STM32L1xx_HAL_Driver/Inc/stm32l1xx_ll_exti.h ****   *       pending bit is not set.
 539:Drivers/STM32L1xx_HAL_Driver/Inc/stm32l1xx_ll_exti.h ****   *       Rising and falling edge triggers can be set for
 540:Drivers/STM32L1xx_HAL_Driver/Inc/stm32l1xx_ll_exti.h ****   *       the same interrupt line. In this case, both generate a trigger
 541:Drivers/STM32L1xx_HAL_Driver/Inc/stm32l1xx_ll_exti.h ****   *       condition.
 542:Drivers/STM32L1xx_HAL_Driver/Inc/stm32l1xx_ll_exti.h ****   * @rmtoll RTSR        RTx           LL_EXTI_EnableRisingTrig_0_31
 543:Drivers/STM32L1xx_HAL_Driver/Inc/stm32l1xx_ll_exti.h ****   * @param  ExtiLine This parameter can be a combination of the following values:
 544:Drivers/STM32L1xx_HAL_Driver/Inc/stm32l1xx_ll_exti.h ****   *         @arg @ref LL_EXTI_LINE_0
 545:Drivers/STM32L1xx_HAL_Driver/Inc/stm32l1xx_ll_exti.h ****   *         @arg @ref LL_EXTI_LINE_1
 546:Drivers/STM32L1xx_HAL_Driver/Inc/stm32l1xx_ll_exti.h ****   *         @arg @ref LL_EXTI_LINE_2
 547:Drivers/STM32L1xx_HAL_Driver/Inc/stm32l1xx_ll_exti.h ****   *         @arg @ref LL_EXTI_LINE_3
 548:Drivers/STM32L1xx_HAL_Driver/Inc/stm32l1xx_ll_exti.h ****   *         @arg @ref LL_EXTI_LINE_4
 549:Drivers/STM32L1xx_HAL_Driver/Inc/stm32l1xx_ll_exti.h ****   *         @arg @ref LL_EXTI_LINE_5
 550:Drivers/STM32L1xx_HAL_Driver/Inc/stm32l1xx_ll_exti.h ****   *         @arg @ref LL_EXTI_LINE_6
 551:Drivers/STM32L1xx_HAL_Driver/Inc/stm32l1xx_ll_exti.h ****   *         @arg @ref LL_EXTI_LINE_7
 552:Drivers/STM32L1xx_HAL_Driver/Inc/stm32l1xx_ll_exti.h ****   *         @arg @ref LL_EXTI_LINE_8
 553:Drivers/STM32L1xx_HAL_Driver/Inc/stm32l1xx_ll_exti.h ****   *         @arg @ref LL_EXTI_LINE_9
 554:Drivers/STM32L1xx_HAL_Driver/Inc/stm32l1xx_ll_exti.h ****   *         @arg @ref LL_EXTI_LINE_10
 555:Drivers/STM32L1xx_HAL_Driver/Inc/stm32l1xx_ll_exti.h ****   *         @arg @ref LL_EXTI_LINE_11
 556:Drivers/STM32L1xx_HAL_Driver/Inc/stm32l1xx_ll_exti.h ****   *         @arg @ref LL_EXTI_LINE_12
 557:Drivers/STM32L1xx_HAL_Driver/Inc/stm32l1xx_ll_exti.h ****   *         @arg @ref LL_EXTI_LINE_13
 558:Drivers/STM32L1xx_HAL_Driver/Inc/stm32l1xx_ll_exti.h ****   *         @arg @ref LL_EXTI_LINE_14
 559:Drivers/STM32L1xx_HAL_Driver/Inc/stm32l1xx_ll_exti.h ****   *         @arg @ref LL_EXTI_LINE_15
 560:Drivers/STM32L1xx_HAL_Driver/Inc/stm32l1xx_ll_exti.h ****   *         @arg @ref LL_EXTI_LINE_16
 561:Drivers/STM32L1xx_HAL_Driver/Inc/stm32l1xx_ll_exti.h ****   *         @arg @ref LL_EXTI_LINE_18
 562:Drivers/STM32L1xx_HAL_Driver/Inc/stm32l1xx_ll_exti.h ****   *         @arg @ref LL_EXTI_LINE_19
 563:Drivers/STM32L1xx_HAL_Driver/Inc/stm32l1xx_ll_exti.h ****   *         @arg @ref LL_EXTI_LINE_20
 564:Drivers/STM32L1xx_HAL_Driver/Inc/stm32l1xx_ll_exti.h ****   *         @arg @ref LL_EXTI_LINE_21
 565:Drivers/STM32L1xx_HAL_Driver/Inc/stm32l1xx_ll_exti.h ****   *         @arg @ref LL_EXTI_LINE_22
 566:Drivers/STM32L1xx_HAL_Driver/Inc/stm32l1xx_ll_exti.h ****   *         @arg @ref LL_EXTI_LINE_29
 567:Drivers/STM32L1xx_HAL_Driver/Inc/stm32l1xx_ll_exti.h ****   *         @arg @ref LL_EXTI_LINE_30
 568:Drivers/STM32L1xx_HAL_Driver/Inc/stm32l1xx_ll_exti.h ****   *         @arg @ref LL_EXTI_LINE_31
 569:Drivers/STM32L1xx_HAL_Driver/Inc/stm32l1xx_ll_exti.h ****   * @note   Please check each device line mapping for EXTI Line availability
 570:Drivers/STM32L1xx_HAL_Driver/Inc/stm32l1xx_ll_exti.h ****   * @retval None
 571:Drivers/STM32L1xx_HAL_Driver/Inc/stm32l1xx_ll_exti.h ****   */
 572:Drivers/STM32L1xx_HAL_Driver/Inc/stm32l1xx_ll_exti.h **** __STATIC_INLINE void LL_EXTI_EnableRisingTrig_0_31(uint32_t ExtiLine)
 573:Drivers/STM32L1xx_HAL_Driver/Inc/stm32l1xx_ll_exti.h **** {
 574:Drivers/STM32L1xx_HAL_Driver/Inc/stm32l1xx_ll_exti.h ****   SET_BIT(EXTI->RTSR, ExtiLine);
 575:Drivers/STM32L1xx_HAL_Driver/Inc/stm32l1xx_ll_exti.h **** 
 576:Drivers/STM32L1xx_HAL_Driver/Inc/stm32l1xx_ll_exti.h **** }
 577:Drivers/STM32L1xx_HAL_Driver/Inc/stm32l1xx_ll_exti.h **** 
 578:Drivers/STM32L1xx_HAL_Driver/Inc/stm32l1xx_ll_exti.h **** 
 579:Drivers/STM32L1xx_HAL_Driver/Inc/stm32l1xx_ll_exti.h **** /**
 580:Drivers/STM32L1xx_HAL_Driver/Inc/stm32l1xx_ll_exti.h ****   * @brief  Disable ExtiLine Rising Edge Trigger for Lines in range 0 to 31
 581:Drivers/STM32L1xx_HAL_Driver/Inc/stm32l1xx_ll_exti.h ****   * @note The configurable wakeup lines are edge-triggered. No glitch must be
 582:Drivers/STM32L1xx_HAL_Driver/Inc/stm32l1xx_ll_exti.h ****   *       generated on these lines. If a rising edge on a configurable interrupt
 583:Drivers/STM32L1xx_HAL_Driver/Inc/stm32l1xx_ll_exti.h ****   *       line occurs during a write operation in the EXTI_RTSR register, the
 584:Drivers/STM32L1xx_HAL_Driver/Inc/stm32l1xx_ll_exti.h ****   *       pending bit is not set.
 585:Drivers/STM32L1xx_HAL_Driver/Inc/stm32l1xx_ll_exti.h ****   *       Rising and falling edge triggers can be set for
 586:Drivers/STM32L1xx_HAL_Driver/Inc/stm32l1xx_ll_exti.h ****   *       the same interrupt line. In this case, both generate a trigger
 587:Drivers/STM32L1xx_HAL_Driver/Inc/stm32l1xx_ll_exti.h ****   *       condition.
 588:Drivers/STM32L1xx_HAL_Driver/Inc/stm32l1xx_ll_exti.h ****   * @rmtoll RTSR        RTx           LL_EXTI_DisableRisingTrig_0_31
 589:Drivers/STM32L1xx_HAL_Driver/Inc/stm32l1xx_ll_exti.h ****   * @param  ExtiLine This parameter can be a combination of the following values:
 590:Drivers/STM32L1xx_HAL_Driver/Inc/stm32l1xx_ll_exti.h ****   *         @arg @ref LL_EXTI_LINE_0
 591:Drivers/STM32L1xx_HAL_Driver/Inc/stm32l1xx_ll_exti.h ****   *         @arg @ref LL_EXTI_LINE_1
 592:Drivers/STM32L1xx_HAL_Driver/Inc/stm32l1xx_ll_exti.h ****   *         @arg @ref LL_EXTI_LINE_2
ARM GAS  C:\Users\domen\AppData\Local\Temp\ccbqR6EW.s 			page 19


 593:Drivers/STM32L1xx_HAL_Driver/Inc/stm32l1xx_ll_exti.h ****   *         @arg @ref LL_EXTI_LINE_3
 594:Drivers/STM32L1xx_HAL_Driver/Inc/stm32l1xx_ll_exti.h ****   *         @arg @ref LL_EXTI_LINE_4
 595:Drivers/STM32L1xx_HAL_Driver/Inc/stm32l1xx_ll_exti.h ****   *         @arg @ref LL_EXTI_LINE_5
 596:Drivers/STM32L1xx_HAL_Driver/Inc/stm32l1xx_ll_exti.h ****   *         @arg @ref LL_EXTI_LINE_6
 597:Drivers/STM32L1xx_HAL_Driver/Inc/stm32l1xx_ll_exti.h ****   *         @arg @ref LL_EXTI_LINE_7
 598:Drivers/STM32L1xx_HAL_Driver/Inc/stm32l1xx_ll_exti.h ****   *         @arg @ref LL_EXTI_LINE_8
 599:Drivers/STM32L1xx_HAL_Driver/Inc/stm32l1xx_ll_exti.h ****   *         @arg @ref LL_EXTI_LINE_9
 600:Drivers/STM32L1xx_HAL_Driver/Inc/stm32l1xx_ll_exti.h ****   *         @arg @ref LL_EXTI_LINE_10
 601:Drivers/STM32L1xx_HAL_Driver/Inc/stm32l1xx_ll_exti.h ****   *         @arg @ref LL_EXTI_LINE_11
 602:Drivers/STM32L1xx_HAL_Driver/Inc/stm32l1xx_ll_exti.h ****   *         @arg @ref LL_EXTI_LINE_12
 603:Drivers/STM32L1xx_HAL_Driver/Inc/stm32l1xx_ll_exti.h ****   *         @arg @ref LL_EXTI_LINE_13
 604:Drivers/STM32L1xx_HAL_Driver/Inc/stm32l1xx_ll_exti.h ****   *         @arg @ref LL_EXTI_LINE_14
 605:Drivers/STM32L1xx_HAL_Driver/Inc/stm32l1xx_ll_exti.h ****   *         @arg @ref LL_EXTI_LINE_15
 606:Drivers/STM32L1xx_HAL_Driver/Inc/stm32l1xx_ll_exti.h ****   *         @arg @ref LL_EXTI_LINE_16
 607:Drivers/STM32L1xx_HAL_Driver/Inc/stm32l1xx_ll_exti.h ****   *         @arg @ref LL_EXTI_LINE_18
 608:Drivers/STM32L1xx_HAL_Driver/Inc/stm32l1xx_ll_exti.h ****   *         @arg @ref LL_EXTI_LINE_19
 609:Drivers/STM32L1xx_HAL_Driver/Inc/stm32l1xx_ll_exti.h ****   *         @arg @ref LL_EXTI_LINE_20
 610:Drivers/STM32L1xx_HAL_Driver/Inc/stm32l1xx_ll_exti.h ****   *         @arg @ref LL_EXTI_LINE_21
 611:Drivers/STM32L1xx_HAL_Driver/Inc/stm32l1xx_ll_exti.h ****   *         @arg @ref LL_EXTI_LINE_22
 612:Drivers/STM32L1xx_HAL_Driver/Inc/stm32l1xx_ll_exti.h ****   *         @arg @ref LL_EXTI_LINE_29
 613:Drivers/STM32L1xx_HAL_Driver/Inc/stm32l1xx_ll_exti.h ****   *         @arg @ref LL_EXTI_LINE_30
 614:Drivers/STM32L1xx_HAL_Driver/Inc/stm32l1xx_ll_exti.h ****   *         @arg @ref LL_EXTI_LINE_31
 615:Drivers/STM32L1xx_HAL_Driver/Inc/stm32l1xx_ll_exti.h ****   * @note   Please check each device line mapping for EXTI Line availability
 616:Drivers/STM32L1xx_HAL_Driver/Inc/stm32l1xx_ll_exti.h ****   * @retval None
 617:Drivers/STM32L1xx_HAL_Driver/Inc/stm32l1xx_ll_exti.h ****   */
 618:Drivers/STM32L1xx_HAL_Driver/Inc/stm32l1xx_ll_exti.h **** __STATIC_INLINE void LL_EXTI_DisableRisingTrig_0_31(uint32_t ExtiLine)
 619:Drivers/STM32L1xx_HAL_Driver/Inc/stm32l1xx_ll_exti.h **** {
 620:Drivers/STM32L1xx_HAL_Driver/Inc/stm32l1xx_ll_exti.h ****   CLEAR_BIT(EXTI->RTSR, ExtiLine);
 621:Drivers/STM32L1xx_HAL_Driver/Inc/stm32l1xx_ll_exti.h **** 
 622:Drivers/STM32L1xx_HAL_Driver/Inc/stm32l1xx_ll_exti.h **** }
 623:Drivers/STM32L1xx_HAL_Driver/Inc/stm32l1xx_ll_exti.h **** 
 624:Drivers/STM32L1xx_HAL_Driver/Inc/stm32l1xx_ll_exti.h **** 
 625:Drivers/STM32L1xx_HAL_Driver/Inc/stm32l1xx_ll_exti.h **** /**
 626:Drivers/STM32L1xx_HAL_Driver/Inc/stm32l1xx_ll_exti.h ****   * @brief  Check if rising edge trigger is enabled for Lines in range 0 to 31
 627:Drivers/STM32L1xx_HAL_Driver/Inc/stm32l1xx_ll_exti.h ****   * @rmtoll RTSR        RTx           LL_EXTI_IsEnabledRisingTrig_0_31
 628:Drivers/STM32L1xx_HAL_Driver/Inc/stm32l1xx_ll_exti.h ****   * @param  ExtiLine This parameter can be a combination of the following values:
 629:Drivers/STM32L1xx_HAL_Driver/Inc/stm32l1xx_ll_exti.h ****   *         @arg @ref LL_EXTI_LINE_0
 630:Drivers/STM32L1xx_HAL_Driver/Inc/stm32l1xx_ll_exti.h ****   *         @arg @ref LL_EXTI_LINE_1
 631:Drivers/STM32L1xx_HAL_Driver/Inc/stm32l1xx_ll_exti.h ****   *         @arg @ref LL_EXTI_LINE_2
 632:Drivers/STM32L1xx_HAL_Driver/Inc/stm32l1xx_ll_exti.h ****   *         @arg @ref LL_EXTI_LINE_3
 633:Drivers/STM32L1xx_HAL_Driver/Inc/stm32l1xx_ll_exti.h ****   *         @arg @ref LL_EXTI_LINE_4
 634:Drivers/STM32L1xx_HAL_Driver/Inc/stm32l1xx_ll_exti.h ****   *         @arg @ref LL_EXTI_LINE_5
 635:Drivers/STM32L1xx_HAL_Driver/Inc/stm32l1xx_ll_exti.h ****   *         @arg @ref LL_EXTI_LINE_6
 636:Drivers/STM32L1xx_HAL_Driver/Inc/stm32l1xx_ll_exti.h ****   *         @arg @ref LL_EXTI_LINE_7
 637:Drivers/STM32L1xx_HAL_Driver/Inc/stm32l1xx_ll_exti.h ****   *         @arg @ref LL_EXTI_LINE_8
 638:Drivers/STM32L1xx_HAL_Driver/Inc/stm32l1xx_ll_exti.h ****   *         @arg @ref LL_EXTI_LINE_9
 639:Drivers/STM32L1xx_HAL_Driver/Inc/stm32l1xx_ll_exti.h ****   *         @arg @ref LL_EXTI_LINE_10
 640:Drivers/STM32L1xx_HAL_Driver/Inc/stm32l1xx_ll_exti.h ****   *         @arg @ref LL_EXTI_LINE_11
 641:Drivers/STM32L1xx_HAL_Driver/Inc/stm32l1xx_ll_exti.h ****   *         @arg @ref LL_EXTI_LINE_12
 642:Drivers/STM32L1xx_HAL_Driver/Inc/stm32l1xx_ll_exti.h ****   *         @arg @ref LL_EXTI_LINE_13
 643:Drivers/STM32L1xx_HAL_Driver/Inc/stm32l1xx_ll_exti.h ****   *         @arg @ref LL_EXTI_LINE_14
 644:Drivers/STM32L1xx_HAL_Driver/Inc/stm32l1xx_ll_exti.h ****   *         @arg @ref LL_EXTI_LINE_15
 645:Drivers/STM32L1xx_HAL_Driver/Inc/stm32l1xx_ll_exti.h ****   *         @arg @ref LL_EXTI_LINE_16
 646:Drivers/STM32L1xx_HAL_Driver/Inc/stm32l1xx_ll_exti.h ****   *         @arg @ref LL_EXTI_LINE_18
 647:Drivers/STM32L1xx_HAL_Driver/Inc/stm32l1xx_ll_exti.h ****   *         @arg @ref LL_EXTI_LINE_19
 648:Drivers/STM32L1xx_HAL_Driver/Inc/stm32l1xx_ll_exti.h ****   *         @arg @ref LL_EXTI_LINE_20
 649:Drivers/STM32L1xx_HAL_Driver/Inc/stm32l1xx_ll_exti.h ****   *         @arg @ref LL_EXTI_LINE_21
ARM GAS  C:\Users\domen\AppData\Local\Temp\ccbqR6EW.s 			page 20


 650:Drivers/STM32L1xx_HAL_Driver/Inc/stm32l1xx_ll_exti.h ****   *         @arg @ref LL_EXTI_LINE_22
 651:Drivers/STM32L1xx_HAL_Driver/Inc/stm32l1xx_ll_exti.h ****   *         @arg @ref LL_EXTI_LINE_29
 652:Drivers/STM32L1xx_HAL_Driver/Inc/stm32l1xx_ll_exti.h ****   *         @arg @ref LL_EXTI_LINE_30
 653:Drivers/STM32L1xx_HAL_Driver/Inc/stm32l1xx_ll_exti.h ****   *         @arg @ref LL_EXTI_LINE_31
 654:Drivers/STM32L1xx_HAL_Driver/Inc/stm32l1xx_ll_exti.h ****   * @note   Please check each device line mapping for EXTI Line availability
 655:Drivers/STM32L1xx_HAL_Driver/Inc/stm32l1xx_ll_exti.h ****   * @retval State of bit (1 or 0).
 656:Drivers/STM32L1xx_HAL_Driver/Inc/stm32l1xx_ll_exti.h ****   */
 657:Drivers/STM32L1xx_HAL_Driver/Inc/stm32l1xx_ll_exti.h **** __STATIC_INLINE uint32_t LL_EXTI_IsEnabledRisingTrig_0_31(uint32_t ExtiLine)
 658:Drivers/STM32L1xx_HAL_Driver/Inc/stm32l1xx_ll_exti.h **** {
 659:Drivers/STM32L1xx_HAL_Driver/Inc/stm32l1xx_ll_exti.h ****   return (READ_BIT(EXTI->RTSR, ExtiLine) == (ExtiLine));
 660:Drivers/STM32L1xx_HAL_Driver/Inc/stm32l1xx_ll_exti.h **** }
 661:Drivers/STM32L1xx_HAL_Driver/Inc/stm32l1xx_ll_exti.h **** 
 662:Drivers/STM32L1xx_HAL_Driver/Inc/stm32l1xx_ll_exti.h **** 
 663:Drivers/STM32L1xx_HAL_Driver/Inc/stm32l1xx_ll_exti.h **** /**
 664:Drivers/STM32L1xx_HAL_Driver/Inc/stm32l1xx_ll_exti.h ****   * @}
 665:Drivers/STM32L1xx_HAL_Driver/Inc/stm32l1xx_ll_exti.h ****   */
 666:Drivers/STM32L1xx_HAL_Driver/Inc/stm32l1xx_ll_exti.h **** 
 667:Drivers/STM32L1xx_HAL_Driver/Inc/stm32l1xx_ll_exti.h **** /** @defgroup EXTI_LL_EF_Falling_Trigger_Management Falling_Trigger_Management
 668:Drivers/STM32L1xx_HAL_Driver/Inc/stm32l1xx_ll_exti.h ****   * @{
 669:Drivers/STM32L1xx_HAL_Driver/Inc/stm32l1xx_ll_exti.h ****   */
 670:Drivers/STM32L1xx_HAL_Driver/Inc/stm32l1xx_ll_exti.h **** 
 671:Drivers/STM32L1xx_HAL_Driver/Inc/stm32l1xx_ll_exti.h **** /**
 672:Drivers/STM32L1xx_HAL_Driver/Inc/stm32l1xx_ll_exti.h ****   * @brief  Enable ExtiLine Falling Edge Trigger for Lines in range 0 to 31
 673:Drivers/STM32L1xx_HAL_Driver/Inc/stm32l1xx_ll_exti.h ****   * @note The configurable wakeup lines are edge-triggered. No glitch must be
 674:Drivers/STM32L1xx_HAL_Driver/Inc/stm32l1xx_ll_exti.h ****   *       generated on these lines. If a falling edge on a configurable interrupt
 675:Drivers/STM32L1xx_HAL_Driver/Inc/stm32l1xx_ll_exti.h ****   *       line occurs during a write operation in the EXTI_FTSR register, the
 676:Drivers/STM32L1xx_HAL_Driver/Inc/stm32l1xx_ll_exti.h ****   *       pending bit is not set.
 677:Drivers/STM32L1xx_HAL_Driver/Inc/stm32l1xx_ll_exti.h ****   *       Rising and falling edge triggers can be set for
 678:Drivers/STM32L1xx_HAL_Driver/Inc/stm32l1xx_ll_exti.h ****   *       the same interrupt line. In this case, both generate a trigger
 679:Drivers/STM32L1xx_HAL_Driver/Inc/stm32l1xx_ll_exti.h ****   *       condition.
 680:Drivers/STM32L1xx_HAL_Driver/Inc/stm32l1xx_ll_exti.h ****   * @rmtoll FTSR        FTx           LL_EXTI_EnableFallingTrig_0_31
 681:Drivers/STM32L1xx_HAL_Driver/Inc/stm32l1xx_ll_exti.h ****   * @param  ExtiLine This parameter can be a combination of the following values:
 682:Drivers/STM32L1xx_HAL_Driver/Inc/stm32l1xx_ll_exti.h ****   *         @arg @ref LL_EXTI_LINE_0
 683:Drivers/STM32L1xx_HAL_Driver/Inc/stm32l1xx_ll_exti.h ****   *         @arg @ref LL_EXTI_LINE_1
 684:Drivers/STM32L1xx_HAL_Driver/Inc/stm32l1xx_ll_exti.h ****   *         @arg @ref LL_EXTI_LINE_2
 685:Drivers/STM32L1xx_HAL_Driver/Inc/stm32l1xx_ll_exti.h ****   *         @arg @ref LL_EXTI_LINE_3
 686:Drivers/STM32L1xx_HAL_Driver/Inc/stm32l1xx_ll_exti.h ****   *         @arg @ref LL_EXTI_LINE_4
 687:Drivers/STM32L1xx_HAL_Driver/Inc/stm32l1xx_ll_exti.h ****   *         @arg @ref LL_EXTI_LINE_5
 688:Drivers/STM32L1xx_HAL_Driver/Inc/stm32l1xx_ll_exti.h ****   *         @arg @ref LL_EXTI_LINE_6
 689:Drivers/STM32L1xx_HAL_Driver/Inc/stm32l1xx_ll_exti.h ****   *         @arg @ref LL_EXTI_LINE_7
 690:Drivers/STM32L1xx_HAL_Driver/Inc/stm32l1xx_ll_exti.h ****   *         @arg @ref LL_EXTI_LINE_8
 691:Drivers/STM32L1xx_HAL_Driver/Inc/stm32l1xx_ll_exti.h ****   *         @arg @ref LL_EXTI_LINE_9
 692:Drivers/STM32L1xx_HAL_Driver/Inc/stm32l1xx_ll_exti.h ****   *         @arg @ref LL_EXTI_LINE_10
 693:Drivers/STM32L1xx_HAL_Driver/Inc/stm32l1xx_ll_exti.h ****   *         @arg @ref LL_EXTI_LINE_11
 694:Drivers/STM32L1xx_HAL_Driver/Inc/stm32l1xx_ll_exti.h ****   *         @arg @ref LL_EXTI_LINE_12
 695:Drivers/STM32L1xx_HAL_Driver/Inc/stm32l1xx_ll_exti.h ****   *         @arg @ref LL_EXTI_LINE_13
 696:Drivers/STM32L1xx_HAL_Driver/Inc/stm32l1xx_ll_exti.h ****   *         @arg @ref LL_EXTI_LINE_14
 697:Drivers/STM32L1xx_HAL_Driver/Inc/stm32l1xx_ll_exti.h ****   *         @arg @ref LL_EXTI_LINE_15
 698:Drivers/STM32L1xx_HAL_Driver/Inc/stm32l1xx_ll_exti.h ****   *         @arg @ref LL_EXTI_LINE_16
 699:Drivers/STM32L1xx_HAL_Driver/Inc/stm32l1xx_ll_exti.h ****   *         @arg @ref LL_EXTI_LINE_18
 700:Drivers/STM32L1xx_HAL_Driver/Inc/stm32l1xx_ll_exti.h ****   *         @arg @ref LL_EXTI_LINE_19
 701:Drivers/STM32L1xx_HAL_Driver/Inc/stm32l1xx_ll_exti.h ****   *         @arg @ref LL_EXTI_LINE_20
 702:Drivers/STM32L1xx_HAL_Driver/Inc/stm32l1xx_ll_exti.h ****   *         @arg @ref LL_EXTI_LINE_21
 703:Drivers/STM32L1xx_HAL_Driver/Inc/stm32l1xx_ll_exti.h ****   *         @arg @ref LL_EXTI_LINE_22
 704:Drivers/STM32L1xx_HAL_Driver/Inc/stm32l1xx_ll_exti.h ****   *         @arg @ref LL_EXTI_LINE_29
 705:Drivers/STM32L1xx_HAL_Driver/Inc/stm32l1xx_ll_exti.h ****   *         @arg @ref LL_EXTI_LINE_30
 706:Drivers/STM32L1xx_HAL_Driver/Inc/stm32l1xx_ll_exti.h ****   *         @arg @ref LL_EXTI_LINE_31
ARM GAS  C:\Users\domen\AppData\Local\Temp\ccbqR6EW.s 			page 21


 707:Drivers/STM32L1xx_HAL_Driver/Inc/stm32l1xx_ll_exti.h ****   * @note   Please check each device line mapping for EXTI Line availability
 708:Drivers/STM32L1xx_HAL_Driver/Inc/stm32l1xx_ll_exti.h ****   * @retval None
 709:Drivers/STM32L1xx_HAL_Driver/Inc/stm32l1xx_ll_exti.h ****   */
 710:Drivers/STM32L1xx_HAL_Driver/Inc/stm32l1xx_ll_exti.h **** __STATIC_INLINE void LL_EXTI_EnableFallingTrig_0_31(uint32_t ExtiLine)
 711:Drivers/STM32L1xx_HAL_Driver/Inc/stm32l1xx_ll_exti.h **** {
 712:Drivers/STM32L1xx_HAL_Driver/Inc/stm32l1xx_ll_exti.h ****   SET_BIT(EXTI->FTSR, ExtiLine);
 713:Drivers/STM32L1xx_HAL_Driver/Inc/stm32l1xx_ll_exti.h **** }
 714:Drivers/STM32L1xx_HAL_Driver/Inc/stm32l1xx_ll_exti.h **** 
 715:Drivers/STM32L1xx_HAL_Driver/Inc/stm32l1xx_ll_exti.h **** 
 716:Drivers/STM32L1xx_HAL_Driver/Inc/stm32l1xx_ll_exti.h **** /**
 717:Drivers/STM32L1xx_HAL_Driver/Inc/stm32l1xx_ll_exti.h ****   * @brief  Disable ExtiLine Falling Edge Trigger for Lines in range 0 to 31
 718:Drivers/STM32L1xx_HAL_Driver/Inc/stm32l1xx_ll_exti.h ****   * @note The configurable wakeup lines are edge-triggered. No glitch must be
 719:Drivers/STM32L1xx_HAL_Driver/Inc/stm32l1xx_ll_exti.h ****   *       generated on these lines. If a Falling edge on a configurable interrupt
 720:Drivers/STM32L1xx_HAL_Driver/Inc/stm32l1xx_ll_exti.h ****   *       line occurs during a write operation in the EXTI_FTSR register, the
 721:Drivers/STM32L1xx_HAL_Driver/Inc/stm32l1xx_ll_exti.h ****   *       pending bit is not set.
 722:Drivers/STM32L1xx_HAL_Driver/Inc/stm32l1xx_ll_exti.h ****   *       Rising and falling edge triggers can be set for the same interrupt line.
 723:Drivers/STM32L1xx_HAL_Driver/Inc/stm32l1xx_ll_exti.h ****   *       In this case, both generate a trigger condition.
 724:Drivers/STM32L1xx_HAL_Driver/Inc/stm32l1xx_ll_exti.h ****   * @rmtoll FTSR        FTx           LL_EXTI_DisableFallingTrig_0_31
 725:Drivers/STM32L1xx_HAL_Driver/Inc/stm32l1xx_ll_exti.h ****   * @param  ExtiLine This parameter can be a combination of the following values:
 726:Drivers/STM32L1xx_HAL_Driver/Inc/stm32l1xx_ll_exti.h ****   *         @arg @ref LL_EXTI_LINE_0
 727:Drivers/STM32L1xx_HAL_Driver/Inc/stm32l1xx_ll_exti.h ****   *         @arg @ref LL_EXTI_LINE_1
 728:Drivers/STM32L1xx_HAL_Driver/Inc/stm32l1xx_ll_exti.h ****   *         @arg @ref LL_EXTI_LINE_2
 729:Drivers/STM32L1xx_HAL_Driver/Inc/stm32l1xx_ll_exti.h ****   *         @arg @ref LL_EXTI_LINE_3
 730:Drivers/STM32L1xx_HAL_Driver/Inc/stm32l1xx_ll_exti.h ****   *         @arg @ref LL_EXTI_LINE_4
 731:Drivers/STM32L1xx_HAL_Driver/Inc/stm32l1xx_ll_exti.h ****   *         @arg @ref LL_EXTI_LINE_5
 732:Drivers/STM32L1xx_HAL_Driver/Inc/stm32l1xx_ll_exti.h ****   *         @arg @ref LL_EXTI_LINE_6
 733:Drivers/STM32L1xx_HAL_Driver/Inc/stm32l1xx_ll_exti.h ****   *         @arg @ref LL_EXTI_LINE_7
 734:Drivers/STM32L1xx_HAL_Driver/Inc/stm32l1xx_ll_exti.h ****   *         @arg @ref LL_EXTI_LINE_8
 735:Drivers/STM32L1xx_HAL_Driver/Inc/stm32l1xx_ll_exti.h ****   *         @arg @ref LL_EXTI_LINE_9
 736:Drivers/STM32L1xx_HAL_Driver/Inc/stm32l1xx_ll_exti.h ****   *         @arg @ref LL_EXTI_LINE_10
 737:Drivers/STM32L1xx_HAL_Driver/Inc/stm32l1xx_ll_exti.h ****   *         @arg @ref LL_EXTI_LINE_11
 738:Drivers/STM32L1xx_HAL_Driver/Inc/stm32l1xx_ll_exti.h ****   *         @arg @ref LL_EXTI_LINE_12
 739:Drivers/STM32L1xx_HAL_Driver/Inc/stm32l1xx_ll_exti.h ****   *         @arg @ref LL_EXTI_LINE_13
 740:Drivers/STM32L1xx_HAL_Driver/Inc/stm32l1xx_ll_exti.h ****   *         @arg @ref LL_EXTI_LINE_14
 741:Drivers/STM32L1xx_HAL_Driver/Inc/stm32l1xx_ll_exti.h ****   *         @arg @ref LL_EXTI_LINE_15
 742:Drivers/STM32L1xx_HAL_Driver/Inc/stm32l1xx_ll_exti.h ****   *         @arg @ref LL_EXTI_LINE_16
 743:Drivers/STM32L1xx_HAL_Driver/Inc/stm32l1xx_ll_exti.h ****   *         @arg @ref LL_EXTI_LINE_18
 744:Drivers/STM32L1xx_HAL_Driver/Inc/stm32l1xx_ll_exti.h ****   *         @arg @ref LL_EXTI_LINE_19
 745:Drivers/STM32L1xx_HAL_Driver/Inc/stm32l1xx_ll_exti.h ****   *         @arg @ref LL_EXTI_LINE_20
 746:Drivers/STM32L1xx_HAL_Driver/Inc/stm32l1xx_ll_exti.h ****   *         @arg @ref LL_EXTI_LINE_21
 747:Drivers/STM32L1xx_HAL_Driver/Inc/stm32l1xx_ll_exti.h ****   *         @arg @ref LL_EXTI_LINE_22
 748:Drivers/STM32L1xx_HAL_Driver/Inc/stm32l1xx_ll_exti.h ****   *         @arg @ref LL_EXTI_LINE_29
 749:Drivers/STM32L1xx_HAL_Driver/Inc/stm32l1xx_ll_exti.h ****   *         @arg @ref LL_EXTI_LINE_30
 750:Drivers/STM32L1xx_HAL_Driver/Inc/stm32l1xx_ll_exti.h ****   *         @arg @ref LL_EXTI_LINE_31
 751:Drivers/STM32L1xx_HAL_Driver/Inc/stm32l1xx_ll_exti.h ****   * @note   Please check each device line mapping for EXTI Line availability
 752:Drivers/STM32L1xx_HAL_Driver/Inc/stm32l1xx_ll_exti.h ****   * @retval None
 753:Drivers/STM32L1xx_HAL_Driver/Inc/stm32l1xx_ll_exti.h ****   */
 754:Drivers/STM32L1xx_HAL_Driver/Inc/stm32l1xx_ll_exti.h **** __STATIC_INLINE void LL_EXTI_DisableFallingTrig_0_31(uint32_t ExtiLine)
 755:Drivers/STM32L1xx_HAL_Driver/Inc/stm32l1xx_ll_exti.h **** {
 756:Drivers/STM32L1xx_HAL_Driver/Inc/stm32l1xx_ll_exti.h ****   CLEAR_BIT(EXTI->FTSR, ExtiLine);
 757:Drivers/STM32L1xx_HAL_Driver/Inc/stm32l1xx_ll_exti.h **** }
 758:Drivers/STM32L1xx_HAL_Driver/Inc/stm32l1xx_ll_exti.h **** 
 759:Drivers/STM32L1xx_HAL_Driver/Inc/stm32l1xx_ll_exti.h **** 
 760:Drivers/STM32L1xx_HAL_Driver/Inc/stm32l1xx_ll_exti.h **** /**
 761:Drivers/STM32L1xx_HAL_Driver/Inc/stm32l1xx_ll_exti.h ****   * @brief  Check if falling edge trigger is enabled for Lines in range 0 to 31
 762:Drivers/STM32L1xx_HAL_Driver/Inc/stm32l1xx_ll_exti.h ****   * @rmtoll FTSR        FTx           LL_EXTI_IsEnabledFallingTrig_0_31
 763:Drivers/STM32L1xx_HAL_Driver/Inc/stm32l1xx_ll_exti.h ****   * @param  ExtiLine This parameter can be a combination of the following values:
ARM GAS  C:\Users\domen\AppData\Local\Temp\ccbqR6EW.s 			page 22


 764:Drivers/STM32L1xx_HAL_Driver/Inc/stm32l1xx_ll_exti.h ****   *         @arg @ref LL_EXTI_LINE_0
 765:Drivers/STM32L1xx_HAL_Driver/Inc/stm32l1xx_ll_exti.h ****   *         @arg @ref LL_EXTI_LINE_1
 766:Drivers/STM32L1xx_HAL_Driver/Inc/stm32l1xx_ll_exti.h ****   *         @arg @ref LL_EXTI_LINE_2
 767:Drivers/STM32L1xx_HAL_Driver/Inc/stm32l1xx_ll_exti.h ****   *         @arg @ref LL_EXTI_LINE_3
 768:Drivers/STM32L1xx_HAL_Driver/Inc/stm32l1xx_ll_exti.h ****   *         @arg @ref LL_EXTI_LINE_4
 769:Drivers/STM32L1xx_HAL_Driver/Inc/stm32l1xx_ll_exti.h ****   *         @arg @ref LL_EXTI_LINE_5
 770:Drivers/STM32L1xx_HAL_Driver/Inc/stm32l1xx_ll_exti.h ****   *         @arg @ref LL_EXTI_LINE_6
 771:Drivers/STM32L1xx_HAL_Driver/Inc/stm32l1xx_ll_exti.h ****   *         @arg @ref LL_EXTI_LINE_7
 772:Drivers/STM32L1xx_HAL_Driver/Inc/stm32l1xx_ll_exti.h ****   *         @arg @ref LL_EXTI_LINE_8
 773:Drivers/STM32L1xx_HAL_Driver/Inc/stm32l1xx_ll_exti.h ****   *         @arg @ref LL_EXTI_LINE_9
 774:Drivers/STM32L1xx_HAL_Driver/Inc/stm32l1xx_ll_exti.h ****   *         @arg @ref LL_EXTI_LINE_10
 775:Drivers/STM32L1xx_HAL_Driver/Inc/stm32l1xx_ll_exti.h ****   *         @arg @ref LL_EXTI_LINE_11
 776:Drivers/STM32L1xx_HAL_Driver/Inc/stm32l1xx_ll_exti.h ****   *         @arg @ref LL_EXTI_LINE_12
 777:Drivers/STM32L1xx_HAL_Driver/Inc/stm32l1xx_ll_exti.h ****   *         @arg @ref LL_EXTI_LINE_13
 778:Drivers/STM32L1xx_HAL_Driver/Inc/stm32l1xx_ll_exti.h ****   *         @arg @ref LL_EXTI_LINE_14
 779:Drivers/STM32L1xx_HAL_Driver/Inc/stm32l1xx_ll_exti.h ****   *         @arg @ref LL_EXTI_LINE_15
 780:Drivers/STM32L1xx_HAL_Driver/Inc/stm32l1xx_ll_exti.h ****   *         @arg @ref LL_EXTI_LINE_16
 781:Drivers/STM32L1xx_HAL_Driver/Inc/stm32l1xx_ll_exti.h ****   *         @arg @ref LL_EXTI_LINE_18
 782:Drivers/STM32L1xx_HAL_Driver/Inc/stm32l1xx_ll_exti.h ****   *         @arg @ref LL_EXTI_LINE_19
 783:Drivers/STM32L1xx_HAL_Driver/Inc/stm32l1xx_ll_exti.h ****   *         @arg @ref LL_EXTI_LINE_20
 784:Drivers/STM32L1xx_HAL_Driver/Inc/stm32l1xx_ll_exti.h ****   *         @arg @ref LL_EXTI_LINE_21
 785:Drivers/STM32L1xx_HAL_Driver/Inc/stm32l1xx_ll_exti.h ****   *         @arg @ref LL_EXTI_LINE_22
 786:Drivers/STM32L1xx_HAL_Driver/Inc/stm32l1xx_ll_exti.h ****   *         @arg @ref LL_EXTI_LINE_29
 787:Drivers/STM32L1xx_HAL_Driver/Inc/stm32l1xx_ll_exti.h ****   *         @arg @ref LL_EXTI_LINE_30
 788:Drivers/STM32L1xx_HAL_Driver/Inc/stm32l1xx_ll_exti.h ****   *         @arg @ref LL_EXTI_LINE_31
 789:Drivers/STM32L1xx_HAL_Driver/Inc/stm32l1xx_ll_exti.h ****   * @note   Please check each device line mapping for EXTI Line availability
 790:Drivers/STM32L1xx_HAL_Driver/Inc/stm32l1xx_ll_exti.h ****   * @retval State of bit (1 or 0).
 791:Drivers/STM32L1xx_HAL_Driver/Inc/stm32l1xx_ll_exti.h ****   */
 792:Drivers/STM32L1xx_HAL_Driver/Inc/stm32l1xx_ll_exti.h **** __STATIC_INLINE uint32_t LL_EXTI_IsEnabledFallingTrig_0_31(uint32_t ExtiLine)
 793:Drivers/STM32L1xx_HAL_Driver/Inc/stm32l1xx_ll_exti.h **** {
 794:Drivers/STM32L1xx_HAL_Driver/Inc/stm32l1xx_ll_exti.h ****   return (READ_BIT(EXTI->FTSR, ExtiLine) == (ExtiLine));
 795:Drivers/STM32L1xx_HAL_Driver/Inc/stm32l1xx_ll_exti.h **** }
 796:Drivers/STM32L1xx_HAL_Driver/Inc/stm32l1xx_ll_exti.h **** 
 797:Drivers/STM32L1xx_HAL_Driver/Inc/stm32l1xx_ll_exti.h **** 
 798:Drivers/STM32L1xx_HAL_Driver/Inc/stm32l1xx_ll_exti.h **** /**
 799:Drivers/STM32L1xx_HAL_Driver/Inc/stm32l1xx_ll_exti.h ****   * @}
 800:Drivers/STM32L1xx_HAL_Driver/Inc/stm32l1xx_ll_exti.h ****   */
 801:Drivers/STM32L1xx_HAL_Driver/Inc/stm32l1xx_ll_exti.h **** 
 802:Drivers/STM32L1xx_HAL_Driver/Inc/stm32l1xx_ll_exti.h **** /** @defgroup EXTI_LL_EF_Software_Interrupt_Management Software_Interrupt_Management
 803:Drivers/STM32L1xx_HAL_Driver/Inc/stm32l1xx_ll_exti.h ****   * @{
 804:Drivers/STM32L1xx_HAL_Driver/Inc/stm32l1xx_ll_exti.h ****   */
 805:Drivers/STM32L1xx_HAL_Driver/Inc/stm32l1xx_ll_exti.h **** 
 806:Drivers/STM32L1xx_HAL_Driver/Inc/stm32l1xx_ll_exti.h **** /**
 807:Drivers/STM32L1xx_HAL_Driver/Inc/stm32l1xx_ll_exti.h ****   * @brief  Generate a software Interrupt Event for Lines in range 0 to 31
 808:Drivers/STM32L1xx_HAL_Driver/Inc/stm32l1xx_ll_exti.h ****   * @note If the interrupt is enabled on this line in the EXTI_IMR, writing a 1 to
 809:Drivers/STM32L1xx_HAL_Driver/Inc/stm32l1xx_ll_exti.h ****   *       this bit when it is at '0' sets the corresponding pending bit in EXTI_PR
 810:Drivers/STM32L1xx_HAL_Driver/Inc/stm32l1xx_ll_exti.h ****   *       resulting in an interrupt request generation.
 811:Drivers/STM32L1xx_HAL_Driver/Inc/stm32l1xx_ll_exti.h ****   *       This bit is cleared by clearing the corresponding bit in the EXTI_PR
 812:Drivers/STM32L1xx_HAL_Driver/Inc/stm32l1xx_ll_exti.h ****   *       register (by writing a 1 into the bit)
 813:Drivers/STM32L1xx_HAL_Driver/Inc/stm32l1xx_ll_exti.h ****   * @rmtoll SWIER       SWIx          LL_EXTI_GenerateSWI_0_31
 814:Drivers/STM32L1xx_HAL_Driver/Inc/stm32l1xx_ll_exti.h ****   * @param  ExtiLine This parameter can be a combination of the following values:
 815:Drivers/STM32L1xx_HAL_Driver/Inc/stm32l1xx_ll_exti.h ****   *         @arg @ref LL_EXTI_LINE_0
 816:Drivers/STM32L1xx_HAL_Driver/Inc/stm32l1xx_ll_exti.h ****   *         @arg @ref LL_EXTI_LINE_1
 817:Drivers/STM32L1xx_HAL_Driver/Inc/stm32l1xx_ll_exti.h ****   *         @arg @ref LL_EXTI_LINE_2
 818:Drivers/STM32L1xx_HAL_Driver/Inc/stm32l1xx_ll_exti.h ****   *         @arg @ref LL_EXTI_LINE_3
 819:Drivers/STM32L1xx_HAL_Driver/Inc/stm32l1xx_ll_exti.h ****   *         @arg @ref LL_EXTI_LINE_4
 820:Drivers/STM32L1xx_HAL_Driver/Inc/stm32l1xx_ll_exti.h ****   *         @arg @ref LL_EXTI_LINE_5
ARM GAS  C:\Users\domen\AppData\Local\Temp\ccbqR6EW.s 			page 23


 821:Drivers/STM32L1xx_HAL_Driver/Inc/stm32l1xx_ll_exti.h ****   *         @arg @ref LL_EXTI_LINE_6
 822:Drivers/STM32L1xx_HAL_Driver/Inc/stm32l1xx_ll_exti.h ****   *         @arg @ref LL_EXTI_LINE_7
 823:Drivers/STM32L1xx_HAL_Driver/Inc/stm32l1xx_ll_exti.h ****   *         @arg @ref LL_EXTI_LINE_8
 824:Drivers/STM32L1xx_HAL_Driver/Inc/stm32l1xx_ll_exti.h ****   *         @arg @ref LL_EXTI_LINE_9
 825:Drivers/STM32L1xx_HAL_Driver/Inc/stm32l1xx_ll_exti.h ****   *         @arg @ref LL_EXTI_LINE_10
 826:Drivers/STM32L1xx_HAL_Driver/Inc/stm32l1xx_ll_exti.h ****   *         @arg @ref LL_EXTI_LINE_11
 827:Drivers/STM32L1xx_HAL_Driver/Inc/stm32l1xx_ll_exti.h ****   *         @arg @ref LL_EXTI_LINE_12
 828:Drivers/STM32L1xx_HAL_Driver/Inc/stm32l1xx_ll_exti.h ****   *         @arg @ref LL_EXTI_LINE_13
 829:Drivers/STM32L1xx_HAL_Driver/Inc/stm32l1xx_ll_exti.h ****   *         @arg @ref LL_EXTI_LINE_14
 830:Drivers/STM32L1xx_HAL_Driver/Inc/stm32l1xx_ll_exti.h ****   *         @arg @ref LL_EXTI_LINE_15
 831:Drivers/STM32L1xx_HAL_Driver/Inc/stm32l1xx_ll_exti.h ****   *         @arg @ref LL_EXTI_LINE_16
 832:Drivers/STM32L1xx_HAL_Driver/Inc/stm32l1xx_ll_exti.h ****   *         @arg @ref LL_EXTI_LINE_18
 833:Drivers/STM32L1xx_HAL_Driver/Inc/stm32l1xx_ll_exti.h ****   *         @arg @ref LL_EXTI_LINE_19
 834:Drivers/STM32L1xx_HAL_Driver/Inc/stm32l1xx_ll_exti.h ****   *         @arg @ref LL_EXTI_LINE_20
 835:Drivers/STM32L1xx_HAL_Driver/Inc/stm32l1xx_ll_exti.h ****   *         @arg @ref LL_EXTI_LINE_21
 836:Drivers/STM32L1xx_HAL_Driver/Inc/stm32l1xx_ll_exti.h ****   *         @arg @ref LL_EXTI_LINE_22
 837:Drivers/STM32L1xx_HAL_Driver/Inc/stm32l1xx_ll_exti.h ****   *         @arg @ref LL_EXTI_LINE_29
 838:Drivers/STM32L1xx_HAL_Driver/Inc/stm32l1xx_ll_exti.h ****   *         @arg @ref LL_EXTI_LINE_30
 839:Drivers/STM32L1xx_HAL_Driver/Inc/stm32l1xx_ll_exti.h ****   *         @arg @ref LL_EXTI_LINE_31
 840:Drivers/STM32L1xx_HAL_Driver/Inc/stm32l1xx_ll_exti.h ****   * @note   Please check each device line mapping for EXTI Line availability
 841:Drivers/STM32L1xx_HAL_Driver/Inc/stm32l1xx_ll_exti.h ****   * @retval None
 842:Drivers/STM32L1xx_HAL_Driver/Inc/stm32l1xx_ll_exti.h ****   */
 843:Drivers/STM32L1xx_HAL_Driver/Inc/stm32l1xx_ll_exti.h **** __STATIC_INLINE void LL_EXTI_GenerateSWI_0_31(uint32_t ExtiLine)
 844:Drivers/STM32L1xx_HAL_Driver/Inc/stm32l1xx_ll_exti.h **** {
 845:Drivers/STM32L1xx_HAL_Driver/Inc/stm32l1xx_ll_exti.h ****   SET_BIT(EXTI->SWIER, ExtiLine);
 846:Drivers/STM32L1xx_HAL_Driver/Inc/stm32l1xx_ll_exti.h **** }
 847:Drivers/STM32L1xx_HAL_Driver/Inc/stm32l1xx_ll_exti.h **** 
 848:Drivers/STM32L1xx_HAL_Driver/Inc/stm32l1xx_ll_exti.h **** 
 849:Drivers/STM32L1xx_HAL_Driver/Inc/stm32l1xx_ll_exti.h **** /**
 850:Drivers/STM32L1xx_HAL_Driver/Inc/stm32l1xx_ll_exti.h ****   * @}
 851:Drivers/STM32L1xx_HAL_Driver/Inc/stm32l1xx_ll_exti.h ****   */
 852:Drivers/STM32L1xx_HAL_Driver/Inc/stm32l1xx_ll_exti.h **** 
 853:Drivers/STM32L1xx_HAL_Driver/Inc/stm32l1xx_ll_exti.h **** /** @defgroup EXTI_LL_EF_Flag_Management Flag_Management
 854:Drivers/STM32L1xx_HAL_Driver/Inc/stm32l1xx_ll_exti.h ****   * @{
 855:Drivers/STM32L1xx_HAL_Driver/Inc/stm32l1xx_ll_exti.h ****   */
 856:Drivers/STM32L1xx_HAL_Driver/Inc/stm32l1xx_ll_exti.h **** 
 857:Drivers/STM32L1xx_HAL_Driver/Inc/stm32l1xx_ll_exti.h **** /**
 858:Drivers/STM32L1xx_HAL_Driver/Inc/stm32l1xx_ll_exti.h ****   * @brief  Check if the ExtLine Flag is set or not for Lines in range 0 to 31
 859:Drivers/STM32L1xx_HAL_Driver/Inc/stm32l1xx_ll_exti.h ****   * @note This bit is set when the selected edge event arrives on the interrupt
 860:Drivers/STM32L1xx_HAL_Driver/Inc/stm32l1xx_ll_exti.h ****   *       line. This bit is cleared by writing a 1 to the bit.
 861:Drivers/STM32L1xx_HAL_Driver/Inc/stm32l1xx_ll_exti.h ****   * @rmtoll PR          PIFx           LL_EXTI_IsActiveFlag_0_31
 862:Drivers/STM32L1xx_HAL_Driver/Inc/stm32l1xx_ll_exti.h ****   * @param  ExtiLine This parameter can be a combination of the following values:
 863:Drivers/STM32L1xx_HAL_Driver/Inc/stm32l1xx_ll_exti.h ****   *         @arg @ref LL_EXTI_LINE_0
 864:Drivers/STM32L1xx_HAL_Driver/Inc/stm32l1xx_ll_exti.h ****   *         @arg @ref LL_EXTI_LINE_1
 865:Drivers/STM32L1xx_HAL_Driver/Inc/stm32l1xx_ll_exti.h ****   *         @arg @ref LL_EXTI_LINE_2
 866:Drivers/STM32L1xx_HAL_Driver/Inc/stm32l1xx_ll_exti.h ****   *         @arg @ref LL_EXTI_LINE_3
 867:Drivers/STM32L1xx_HAL_Driver/Inc/stm32l1xx_ll_exti.h ****   *         @arg @ref LL_EXTI_LINE_4
 868:Drivers/STM32L1xx_HAL_Driver/Inc/stm32l1xx_ll_exti.h ****   *         @arg @ref LL_EXTI_LINE_5
 869:Drivers/STM32L1xx_HAL_Driver/Inc/stm32l1xx_ll_exti.h ****   *         @arg @ref LL_EXTI_LINE_6
 870:Drivers/STM32L1xx_HAL_Driver/Inc/stm32l1xx_ll_exti.h ****   *         @arg @ref LL_EXTI_LINE_7
 871:Drivers/STM32L1xx_HAL_Driver/Inc/stm32l1xx_ll_exti.h ****   *         @arg @ref LL_EXTI_LINE_8
 872:Drivers/STM32L1xx_HAL_Driver/Inc/stm32l1xx_ll_exti.h ****   *         @arg @ref LL_EXTI_LINE_9
 873:Drivers/STM32L1xx_HAL_Driver/Inc/stm32l1xx_ll_exti.h ****   *         @arg @ref LL_EXTI_LINE_10
 874:Drivers/STM32L1xx_HAL_Driver/Inc/stm32l1xx_ll_exti.h ****   *         @arg @ref LL_EXTI_LINE_11
 875:Drivers/STM32L1xx_HAL_Driver/Inc/stm32l1xx_ll_exti.h ****   *         @arg @ref LL_EXTI_LINE_12
 876:Drivers/STM32L1xx_HAL_Driver/Inc/stm32l1xx_ll_exti.h ****   *         @arg @ref LL_EXTI_LINE_13
 877:Drivers/STM32L1xx_HAL_Driver/Inc/stm32l1xx_ll_exti.h ****   *         @arg @ref LL_EXTI_LINE_14
ARM GAS  C:\Users\domen\AppData\Local\Temp\ccbqR6EW.s 			page 24


 878:Drivers/STM32L1xx_HAL_Driver/Inc/stm32l1xx_ll_exti.h ****   *         @arg @ref LL_EXTI_LINE_15
 879:Drivers/STM32L1xx_HAL_Driver/Inc/stm32l1xx_ll_exti.h ****   *         @arg @ref LL_EXTI_LINE_16
 880:Drivers/STM32L1xx_HAL_Driver/Inc/stm32l1xx_ll_exti.h ****   *         @arg @ref LL_EXTI_LINE_18
 881:Drivers/STM32L1xx_HAL_Driver/Inc/stm32l1xx_ll_exti.h ****   *         @arg @ref LL_EXTI_LINE_19
 882:Drivers/STM32L1xx_HAL_Driver/Inc/stm32l1xx_ll_exti.h ****   *         @arg @ref LL_EXTI_LINE_20
 883:Drivers/STM32L1xx_HAL_Driver/Inc/stm32l1xx_ll_exti.h ****   *         @arg @ref LL_EXTI_LINE_21
 884:Drivers/STM32L1xx_HAL_Driver/Inc/stm32l1xx_ll_exti.h ****   *         @arg @ref LL_EXTI_LINE_22
 885:Drivers/STM32L1xx_HAL_Driver/Inc/stm32l1xx_ll_exti.h ****   *         @arg @ref LL_EXTI_LINE_29
 886:Drivers/STM32L1xx_HAL_Driver/Inc/stm32l1xx_ll_exti.h ****   *         @arg @ref LL_EXTI_LINE_30
 887:Drivers/STM32L1xx_HAL_Driver/Inc/stm32l1xx_ll_exti.h ****   *         @arg @ref LL_EXTI_LINE_31
 888:Drivers/STM32L1xx_HAL_Driver/Inc/stm32l1xx_ll_exti.h ****   * @note   Please check each device line mapping for EXTI Line availability
 889:Drivers/STM32L1xx_HAL_Driver/Inc/stm32l1xx_ll_exti.h ****   * @retval State of bit (1 or 0).
 890:Drivers/STM32L1xx_HAL_Driver/Inc/stm32l1xx_ll_exti.h ****   */
 891:Drivers/STM32L1xx_HAL_Driver/Inc/stm32l1xx_ll_exti.h **** __STATIC_INLINE uint32_t LL_EXTI_IsActiveFlag_0_31(uint32_t ExtiLine)
 243              		.loc 2 891 26 view .LVU26
 244              	.LBB17:
 892:Drivers/STM32L1xx_HAL_Driver/Inc/stm32l1xx_ll_exti.h **** {
 893:Drivers/STM32L1xx_HAL_Driver/Inc/stm32l1xx_ll_exti.h ****   return (READ_BIT(EXTI->PR, ExtiLine) == (ExtiLine));
 245              		.loc 2 893 3 view .LVU27
 246              		.loc 2 893 11 is_stmt 0 view .LVU28
 247 0002 064B     		ldr	r3, .L20
 248 0004 5B69     		ldr	r3, [r3, #20]
 249              	.LVL1:
 250              		.loc 2 893 11 view .LVU29
 251              	.LBE17:
 252              	.LBE16:
 253              		.loc 1 211 6 view .LVU30
 254 0006 13F0100F 		tst	r3, #16
 255 000a 00D1     		bne	.L19
 256              	.L16:
 212:Core/Src/stm32l1xx_it.c ****   {
 213:Core/Src/stm32l1xx_it.c ****     LL_EXTI_ClearFlag_0_31(LL_EXTI_LINE_4);
 214:Core/Src/stm32l1xx_it.c ****     /* USER CODE BEGIN LL_EXTI_LINE_4 */
 215:Core/Src/stm32l1xx_it.c ****     //ctrlErrorLed((bool)LL_GPIO_IsInputPinSet(DIN_GPIO_Port, DIN_Pin));
 216:Core/Src/stm32l1xx_it.c ****     notifyPinChange();
 217:Core/Src/stm32l1xx_it.c **** 
 218:Core/Src/stm32l1xx_it.c ****     /* USER CODE END LL_EXTI_LINE_4 */
 219:Core/Src/stm32l1xx_it.c ****   }
 220:Core/Src/stm32l1xx_it.c ****   /* USER CODE BEGIN EXTI4_IRQn 1 */
 221:Core/Src/stm32l1xx_it.c **** 
 222:Core/Src/stm32l1xx_it.c ****   /* USER CODE END EXTI4_IRQn 1 */
 223:Core/Src/stm32l1xx_it.c **** }
 257              		.loc 1 223 1 view .LVU31
 258 000c 08BD     		pop	{r3, pc}
 259              	.L19:
 213:Core/Src/stm32l1xx_it.c ****     /* USER CODE BEGIN LL_EXTI_LINE_4 */
 260              		.loc 1 213 5 is_stmt 1 view .LVU32
 261              	.LVL2:
 262              	.LBB18:
 263              	.LBI18:
 894:Drivers/STM32L1xx_HAL_Driver/Inc/stm32l1xx_ll_exti.h **** }
 895:Drivers/STM32L1xx_HAL_Driver/Inc/stm32l1xx_ll_exti.h **** 
 896:Drivers/STM32L1xx_HAL_Driver/Inc/stm32l1xx_ll_exti.h **** 
 897:Drivers/STM32L1xx_HAL_Driver/Inc/stm32l1xx_ll_exti.h **** /**
 898:Drivers/STM32L1xx_HAL_Driver/Inc/stm32l1xx_ll_exti.h ****   * @brief  Read ExtLine Combination Flag for Lines in range 0 to 31
 899:Drivers/STM32L1xx_HAL_Driver/Inc/stm32l1xx_ll_exti.h ****   * @note This bit is set when the selected edge event arrives on the interrupt
 900:Drivers/STM32L1xx_HAL_Driver/Inc/stm32l1xx_ll_exti.h ****   *       line. This bit is cleared by writing a 1 to the bit.
ARM GAS  C:\Users\domen\AppData\Local\Temp\ccbqR6EW.s 			page 25


 901:Drivers/STM32L1xx_HAL_Driver/Inc/stm32l1xx_ll_exti.h ****   * @rmtoll PR          PIFx           LL_EXTI_ReadFlag_0_31
 902:Drivers/STM32L1xx_HAL_Driver/Inc/stm32l1xx_ll_exti.h ****   * @param  ExtiLine This parameter can be a combination of the following values:
 903:Drivers/STM32L1xx_HAL_Driver/Inc/stm32l1xx_ll_exti.h ****   *         @arg @ref LL_EXTI_LINE_0
 904:Drivers/STM32L1xx_HAL_Driver/Inc/stm32l1xx_ll_exti.h ****   *         @arg @ref LL_EXTI_LINE_1
 905:Drivers/STM32L1xx_HAL_Driver/Inc/stm32l1xx_ll_exti.h ****   *         @arg @ref LL_EXTI_LINE_2
 906:Drivers/STM32L1xx_HAL_Driver/Inc/stm32l1xx_ll_exti.h ****   *         @arg @ref LL_EXTI_LINE_3
 907:Drivers/STM32L1xx_HAL_Driver/Inc/stm32l1xx_ll_exti.h ****   *         @arg @ref LL_EXTI_LINE_4
 908:Drivers/STM32L1xx_HAL_Driver/Inc/stm32l1xx_ll_exti.h ****   *         @arg @ref LL_EXTI_LINE_5
 909:Drivers/STM32L1xx_HAL_Driver/Inc/stm32l1xx_ll_exti.h ****   *         @arg @ref LL_EXTI_LINE_6
 910:Drivers/STM32L1xx_HAL_Driver/Inc/stm32l1xx_ll_exti.h ****   *         @arg @ref LL_EXTI_LINE_7
 911:Drivers/STM32L1xx_HAL_Driver/Inc/stm32l1xx_ll_exti.h ****   *         @arg @ref LL_EXTI_LINE_8
 912:Drivers/STM32L1xx_HAL_Driver/Inc/stm32l1xx_ll_exti.h ****   *         @arg @ref LL_EXTI_LINE_9
 913:Drivers/STM32L1xx_HAL_Driver/Inc/stm32l1xx_ll_exti.h ****   *         @arg @ref LL_EXTI_LINE_10
 914:Drivers/STM32L1xx_HAL_Driver/Inc/stm32l1xx_ll_exti.h ****   *         @arg @ref LL_EXTI_LINE_11
 915:Drivers/STM32L1xx_HAL_Driver/Inc/stm32l1xx_ll_exti.h ****   *         @arg @ref LL_EXTI_LINE_12
 916:Drivers/STM32L1xx_HAL_Driver/Inc/stm32l1xx_ll_exti.h ****   *         @arg @ref LL_EXTI_LINE_13
 917:Drivers/STM32L1xx_HAL_Driver/Inc/stm32l1xx_ll_exti.h ****   *         @arg @ref LL_EXTI_LINE_14
 918:Drivers/STM32L1xx_HAL_Driver/Inc/stm32l1xx_ll_exti.h ****   *         @arg @ref LL_EXTI_LINE_15
 919:Drivers/STM32L1xx_HAL_Driver/Inc/stm32l1xx_ll_exti.h ****   *         @arg @ref LL_EXTI_LINE_16
 920:Drivers/STM32L1xx_HAL_Driver/Inc/stm32l1xx_ll_exti.h ****   *         @arg @ref LL_EXTI_LINE_18
 921:Drivers/STM32L1xx_HAL_Driver/Inc/stm32l1xx_ll_exti.h ****   *         @arg @ref LL_EXTI_LINE_19
 922:Drivers/STM32L1xx_HAL_Driver/Inc/stm32l1xx_ll_exti.h ****   *         @arg @ref LL_EXTI_LINE_20
 923:Drivers/STM32L1xx_HAL_Driver/Inc/stm32l1xx_ll_exti.h ****   *         @arg @ref LL_EXTI_LINE_21
 924:Drivers/STM32L1xx_HAL_Driver/Inc/stm32l1xx_ll_exti.h ****   *         @arg @ref LL_EXTI_LINE_22
 925:Drivers/STM32L1xx_HAL_Driver/Inc/stm32l1xx_ll_exti.h ****   *         @arg @ref LL_EXTI_LINE_29
 926:Drivers/STM32L1xx_HAL_Driver/Inc/stm32l1xx_ll_exti.h ****   *         @arg @ref LL_EXTI_LINE_30
 927:Drivers/STM32L1xx_HAL_Driver/Inc/stm32l1xx_ll_exti.h ****   *         @arg @ref LL_EXTI_LINE_31
 928:Drivers/STM32L1xx_HAL_Driver/Inc/stm32l1xx_ll_exti.h ****   * @note   Please check each device line mapping for EXTI Line availability
 929:Drivers/STM32L1xx_HAL_Driver/Inc/stm32l1xx_ll_exti.h ****   * @retval @note This bit is set when the selected edge event arrives on the interrupt
 930:Drivers/STM32L1xx_HAL_Driver/Inc/stm32l1xx_ll_exti.h ****   */
 931:Drivers/STM32L1xx_HAL_Driver/Inc/stm32l1xx_ll_exti.h **** __STATIC_INLINE uint32_t LL_EXTI_ReadFlag_0_31(uint32_t ExtiLine)
 932:Drivers/STM32L1xx_HAL_Driver/Inc/stm32l1xx_ll_exti.h **** {
 933:Drivers/STM32L1xx_HAL_Driver/Inc/stm32l1xx_ll_exti.h ****   return (uint32_t)(READ_BIT(EXTI->PR, ExtiLine));
 934:Drivers/STM32L1xx_HAL_Driver/Inc/stm32l1xx_ll_exti.h **** }
 935:Drivers/STM32L1xx_HAL_Driver/Inc/stm32l1xx_ll_exti.h **** 
 936:Drivers/STM32L1xx_HAL_Driver/Inc/stm32l1xx_ll_exti.h **** 
 937:Drivers/STM32L1xx_HAL_Driver/Inc/stm32l1xx_ll_exti.h **** /**
 938:Drivers/STM32L1xx_HAL_Driver/Inc/stm32l1xx_ll_exti.h ****   * @brief  Clear ExtLine Flags  for Lines in range 0 to 31
 939:Drivers/STM32L1xx_HAL_Driver/Inc/stm32l1xx_ll_exti.h ****   * @note This bit is set when the selected edge event arrives on the interrupt
 940:Drivers/STM32L1xx_HAL_Driver/Inc/stm32l1xx_ll_exti.h ****   *       line. This bit is cleared by writing a 1 to the bit.
 941:Drivers/STM32L1xx_HAL_Driver/Inc/stm32l1xx_ll_exti.h ****   * @rmtoll PR          PIFx           LL_EXTI_ClearFlag_0_31
 942:Drivers/STM32L1xx_HAL_Driver/Inc/stm32l1xx_ll_exti.h ****   * @param  ExtiLine This parameter can be a combination of the following values:
 943:Drivers/STM32L1xx_HAL_Driver/Inc/stm32l1xx_ll_exti.h ****   *         @arg @ref LL_EXTI_LINE_0
 944:Drivers/STM32L1xx_HAL_Driver/Inc/stm32l1xx_ll_exti.h ****   *         @arg @ref LL_EXTI_LINE_1
 945:Drivers/STM32L1xx_HAL_Driver/Inc/stm32l1xx_ll_exti.h ****   *         @arg @ref LL_EXTI_LINE_2
 946:Drivers/STM32L1xx_HAL_Driver/Inc/stm32l1xx_ll_exti.h ****   *         @arg @ref LL_EXTI_LINE_3
 947:Drivers/STM32L1xx_HAL_Driver/Inc/stm32l1xx_ll_exti.h ****   *         @arg @ref LL_EXTI_LINE_4
 948:Drivers/STM32L1xx_HAL_Driver/Inc/stm32l1xx_ll_exti.h ****   *         @arg @ref LL_EXTI_LINE_5
 949:Drivers/STM32L1xx_HAL_Driver/Inc/stm32l1xx_ll_exti.h ****   *         @arg @ref LL_EXTI_LINE_6
 950:Drivers/STM32L1xx_HAL_Driver/Inc/stm32l1xx_ll_exti.h ****   *         @arg @ref LL_EXTI_LINE_7
 951:Drivers/STM32L1xx_HAL_Driver/Inc/stm32l1xx_ll_exti.h ****   *         @arg @ref LL_EXTI_LINE_8
 952:Drivers/STM32L1xx_HAL_Driver/Inc/stm32l1xx_ll_exti.h ****   *         @arg @ref LL_EXTI_LINE_9
 953:Drivers/STM32L1xx_HAL_Driver/Inc/stm32l1xx_ll_exti.h ****   *         @arg @ref LL_EXTI_LINE_10
 954:Drivers/STM32L1xx_HAL_Driver/Inc/stm32l1xx_ll_exti.h ****   *         @arg @ref LL_EXTI_LINE_11
 955:Drivers/STM32L1xx_HAL_Driver/Inc/stm32l1xx_ll_exti.h ****   *         @arg @ref LL_EXTI_LINE_12
 956:Drivers/STM32L1xx_HAL_Driver/Inc/stm32l1xx_ll_exti.h ****   *         @arg @ref LL_EXTI_LINE_13
 957:Drivers/STM32L1xx_HAL_Driver/Inc/stm32l1xx_ll_exti.h ****   *         @arg @ref LL_EXTI_LINE_14
ARM GAS  C:\Users\domen\AppData\Local\Temp\ccbqR6EW.s 			page 26


 958:Drivers/STM32L1xx_HAL_Driver/Inc/stm32l1xx_ll_exti.h ****   *         @arg @ref LL_EXTI_LINE_15
 959:Drivers/STM32L1xx_HAL_Driver/Inc/stm32l1xx_ll_exti.h ****   *         @arg @ref LL_EXTI_LINE_16
 960:Drivers/STM32L1xx_HAL_Driver/Inc/stm32l1xx_ll_exti.h ****   *         @arg @ref LL_EXTI_LINE_18
 961:Drivers/STM32L1xx_HAL_Driver/Inc/stm32l1xx_ll_exti.h ****   *         @arg @ref LL_EXTI_LINE_19
 962:Drivers/STM32L1xx_HAL_Driver/Inc/stm32l1xx_ll_exti.h ****   *         @arg @ref LL_EXTI_LINE_20
 963:Drivers/STM32L1xx_HAL_Driver/Inc/stm32l1xx_ll_exti.h ****   *         @arg @ref LL_EXTI_LINE_21
 964:Drivers/STM32L1xx_HAL_Driver/Inc/stm32l1xx_ll_exti.h ****   *         @arg @ref LL_EXTI_LINE_22
 965:Drivers/STM32L1xx_HAL_Driver/Inc/stm32l1xx_ll_exti.h ****   *         @arg @ref LL_EXTI_LINE_29
 966:Drivers/STM32L1xx_HAL_Driver/Inc/stm32l1xx_ll_exti.h ****   *         @arg @ref LL_EXTI_LINE_30
 967:Drivers/STM32L1xx_HAL_Driver/Inc/stm32l1xx_ll_exti.h ****   *         @arg @ref LL_EXTI_LINE_31
 968:Drivers/STM32L1xx_HAL_Driver/Inc/stm32l1xx_ll_exti.h ****   * @note   Please check each device line mapping for EXTI Line availability
 969:Drivers/STM32L1xx_HAL_Driver/Inc/stm32l1xx_ll_exti.h ****   * @retval None
 970:Drivers/STM32L1xx_HAL_Driver/Inc/stm32l1xx_ll_exti.h ****   */
 971:Drivers/STM32L1xx_HAL_Driver/Inc/stm32l1xx_ll_exti.h **** __STATIC_INLINE void LL_EXTI_ClearFlag_0_31(uint32_t ExtiLine)
 264              		.loc 2 971 22 view .LVU33
 265              	.LBB19:
 972:Drivers/STM32L1xx_HAL_Driver/Inc/stm32l1xx_ll_exti.h **** {
 973:Drivers/STM32L1xx_HAL_Driver/Inc/stm32l1xx_ll_exti.h ****   WRITE_REG(EXTI->PR, ExtiLine);
 266              		.loc 2 973 3 view .LVU34
 267 000e 034B     		ldr	r3, .L20
 268 0010 1022     		movs	r2, #16
 269 0012 5A61     		str	r2, [r3, #20]
 270              	.LVL3:
 271              		.loc 2 973 3 is_stmt 0 view .LVU35
 272              	.LBE19:
 273              	.LBE18:
 216:Core/Src/stm32l1xx_it.c **** 
 274              		.loc 1 216 5 is_stmt 1 view .LVU36
 275 0014 FFF7FEFF 		bl	notifyPinChange
 276              	.LVL4:
 277              		.loc 1 223 1 is_stmt 0 view .LVU37
 278 0018 F8E7     		b	.L16
 279              	.L21:
 280 001a 00BF     		.align	2
 281              	.L20:
 282 001c 00040140 		.word	1073808384
 283              		.cfi_endproc
 284              	.LFE841:
 286              		.section	.text.USART1_IRQHandler,"ax",%progbits
 287              		.align	1
 288              		.global	USART1_IRQHandler
 289              		.syntax unified
 290              		.thumb
 291              		.thumb_func
 292              		.fpu softvfp
 294              	USART1_IRQHandler:
 295              	.LFB842:
 224:Core/Src/stm32l1xx_it.c **** 
 225:Core/Src/stm32l1xx_it.c **** /**
 226:Core/Src/stm32l1xx_it.c ****   * @brief This function handles USART1 global interrupt.
 227:Core/Src/stm32l1xx_it.c ****   */
 228:Core/Src/stm32l1xx_it.c **** void USART1_IRQHandler(void)
 229:Core/Src/stm32l1xx_it.c **** {
 296              		.loc 1 229 1 is_stmt 1 view -0
 297              		.cfi_startproc
 298              		@ args = 0, pretend = 0, frame = 0
 299              		@ frame_needed = 0, uses_anonymous_args = 0
ARM GAS  C:\Users\domen\AppData\Local\Temp\ccbqR6EW.s 			page 27


 300 0000 08B5     		push	{r3, lr}
 301              	.LCFI1:
 302              		.cfi_def_cfa_offset 8
 303              		.cfi_offset 3, -8
 304              		.cfi_offset 14, -4
 230:Core/Src/stm32l1xx_it.c ****   /* USER CODE BEGIN USART1_IRQn 0 */
 231:Core/Src/stm32l1xx_it.c ****   if (LL_USART_IsActiveFlag_RXNE(USART1))
 305              		.loc 1 231 3 view .LVU39
 306              	.LVL5:
 307              	.LBB20:
 308              	.LBI20:
 309              		.file 3 "Drivers/STM32L1xx_HAL_Driver/Inc/stm32l1xx_ll_usart.h"
   1:Drivers/STM32L1xx_HAL_Driver/Inc/stm32l1xx_ll_usart.h **** /**
   2:Drivers/STM32L1xx_HAL_Driver/Inc/stm32l1xx_ll_usart.h ****   ******************************************************************************
   3:Drivers/STM32L1xx_HAL_Driver/Inc/stm32l1xx_ll_usart.h ****   * @file    stm32l1xx_ll_usart.h
   4:Drivers/STM32L1xx_HAL_Driver/Inc/stm32l1xx_ll_usart.h ****   * @author  MCD Application Team
   5:Drivers/STM32L1xx_HAL_Driver/Inc/stm32l1xx_ll_usart.h ****   * @brief   Header file of USART LL module.
   6:Drivers/STM32L1xx_HAL_Driver/Inc/stm32l1xx_ll_usart.h ****   ******************************************************************************
   7:Drivers/STM32L1xx_HAL_Driver/Inc/stm32l1xx_ll_usart.h ****   * @attention
   8:Drivers/STM32L1xx_HAL_Driver/Inc/stm32l1xx_ll_usart.h ****   *
   9:Drivers/STM32L1xx_HAL_Driver/Inc/stm32l1xx_ll_usart.h ****   * <h2><center>&copy; Copyright (c) 2016 STMicroelectronics.
  10:Drivers/STM32L1xx_HAL_Driver/Inc/stm32l1xx_ll_usart.h ****   * All rights reserved.</center></h2>
  11:Drivers/STM32L1xx_HAL_Driver/Inc/stm32l1xx_ll_usart.h ****   *
  12:Drivers/STM32L1xx_HAL_Driver/Inc/stm32l1xx_ll_usart.h ****   * This software component is licensed by ST under BSD 3-Clause license,
  13:Drivers/STM32L1xx_HAL_Driver/Inc/stm32l1xx_ll_usart.h ****   * the "License"; You may not use this file except in compliance with the
  14:Drivers/STM32L1xx_HAL_Driver/Inc/stm32l1xx_ll_usart.h ****   * License. You may obtain a copy of the License at:
  15:Drivers/STM32L1xx_HAL_Driver/Inc/stm32l1xx_ll_usart.h ****   *                        opensource.org/licenses/BSD-3-Clause
  16:Drivers/STM32L1xx_HAL_Driver/Inc/stm32l1xx_ll_usart.h ****   *
  17:Drivers/STM32L1xx_HAL_Driver/Inc/stm32l1xx_ll_usart.h ****   ******************************************************************************
  18:Drivers/STM32L1xx_HAL_Driver/Inc/stm32l1xx_ll_usart.h ****   */
  19:Drivers/STM32L1xx_HAL_Driver/Inc/stm32l1xx_ll_usart.h **** 
  20:Drivers/STM32L1xx_HAL_Driver/Inc/stm32l1xx_ll_usart.h **** /* Define to prevent recursive inclusion -------------------------------------*/
  21:Drivers/STM32L1xx_HAL_Driver/Inc/stm32l1xx_ll_usart.h **** #ifndef __STM32L1xx_LL_USART_H
  22:Drivers/STM32L1xx_HAL_Driver/Inc/stm32l1xx_ll_usart.h **** #define __STM32L1xx_LL_USART_H
  23:Drivers/STM32L1xx_HAL_Driver/Inc/stm32l1xx_ll_usart.h **** 
  24:Drivers/STM32L1xx_HAL_Driver/Inc/stm32l1xx_ll_usart.h **** #ifdef __cplusplus
  25:Drivers/STM32L1xx_HAL_Driver/Inc/stm32l1xx_ll_usart.h **** extern "C" {
  26:Drivers/STM32L1xx_HAL_Driver/Inc/stm32l1xx_ll_usart.h **** #endif
  27:Drivers/STM32L1xx_HAL_Driver/Inc/stm32l1xx_ll_usart.h **** 
  28:Drivers/STM32L1xx_HAL_Driver/Inc/stm32l1xx_ll_usart.h **** /* Includes ------------------------------------------------------------------*/
  29:Drivers/STM32L1xx_HAL_Driver/Inc/stm32l1xx_ll_usart.h **** #include "stm32l1xx.h"
  30:Drivers/STM32L1xx_HAL_Driver/Inc/stm32l1xx_ll_usart.h **** 
  31:Drivers/STM32L1xx_HAL_Driver/Inc/stm32l1xx_ll_usart.h **** /** @addtogroup STM32L1xx_LL_Driver
  32:Drivers/STM32L1xx_HAL_Driver/Inc/stm32l1xx_ll_usart.h ****   * @{
  33:Drivers/STM32L1xx_HAL_Driver/Inc/stm32l1xx_ll_usart.h ****   */
  34:Drivers/STM32L1xx_HAL_Driver/Inc/stm32l1xx_ll_usart.h **** 
  35:Drivers/STM32L1xx_HAL_Driver/Inc/stm32l1xx_ll_usart.h **** #if defined (USART1) || defined (USART2) || defined (USART3) || defined (UART4) || defined (UART5)
  36:Drivers/STM32L1xx_HAL_Driver/Inc/stm32l1xx_ll_usart.h **** 
  37:Drivers/STM32L1xx_HAL_Driver/Inc/stm32l1xx_ll_usart.h **** /** @defgroup USART_LL USART
  38:Drivers/STM32L1xx_HAL_Driver/Inc/stm32l1xx_ll_usart.h ****   * @{
  39:Drivers/STM32L1xx_HAL_Driver/Inc/stm32l1xx_ll_usart.h ****   */
  40:Drivers/STM32L1xx_HAL_Driver/Inc/stm32l1xx_ll_usart.h **** 
  41:Drivers/STM32L1xx_HAL_Driver/Inc/stm32l1xx_ll_usart.h **** /* Private types -------------------------------------------------------------*/
  42:Drivers/STM32L1xx_HAL_Driver/Inc/stm32l1xx_ll_usart.h **** /* Private variables ---------------------------------------------------------*/
  43:Drivers/STM32L1xx_HAL_Driver/Inc/stm32l1xx_ll_usart.h **** 
  44:Drivers/STM32L1xx_HAL_Driver/Inc/stm32l1xx_ll_usart.h **** /* Private constants ---------------------------------------------------------*/
  45:Drivers/STM32L1xx_HAL_Driver/Inc/stm32l1xx_ll_usart.h **** /** @defgroup USART_LL_Private_Constants USART Private Constants
ARM GAS  C:\Users\domen\AppData\Local\Temp\ccbqR6EW.s 			page 28


  46:Drivers/STM32L1xx_HAL_Driver/Inc/stm32l1xx_ll_usart.h ****   * @{
  47:Drivers/STM32L1xx_HAL_Driver/Inc/stm32l1xx_ll_usart.h ****   */
  48:Drivers/STM32L1xx_HAL_Driver/Inc/stm32l1xx_ll_usart.h **** 
  49:Drivers/STM32L1xx_HAL_Driver/Inc/stm32l1xx_ll_usart.h **** /* Defines used for the bit position in the register and perform offsets*/
  50:Drivers/STM32L1xx_HAL_Driver/Inc/stm32l1xx_ll_usart.h **** #define USART_POSITION_GTPR_GT                  USART_GTPR_GT_Pos
  51:Drivers/STM32L1xx_HAL_Driver/Inc/stm32l1xx_ll_usart.h **** /**
  52:Drivers/STM32L1xx_HAL_Driver/Inc/stm32l1xx_ll_usart.h ****   * @}
  53:Drivers/STM32L1xx_HAL_Driver/Inc/stm32l1xx_ll_usart.h ****   */
  54:Drivers/STM32L1xx_HAL_Driver/Inc/stm32l1xx_ll_usart.h **** 
  55:Drivers/STM32L1xx_HAL_Driver/Inc/stm32l1xx_ll_usart.h **** /* Private macros ------------------------------------------------------------*/
  56:Drivers/STM32L1xx_HAL_Driver/Inc/stm32l1xx_ll_usart.h **** #if defined(USE_FULL_LL_DRIVER)
  57:Drivers/STM32L1xx_HAL_Driver/Inc/stm32l1xx_ll_usart.h **** /** @defgroup USART_LL_Private_Macros USART Private Macros
  58:Drivers/STM32L1xx_HAL_Driver/Inc/stm32l1xx_ll_usart.h ****   * @{
  59:Drivers/STM32L1xx_HAL_Driver/Inc/stm32l1xx_ll_usart.h ****   */
  60:Drivers/STM32L1xx_HAL_Driver/Inc/stm32l1xx_ll_usart.h **** /**
  61:Drivers/STM32L1xx_HAL_Driver/Inc/stm32l1xx_ll_usart.h ****   * @}
  62:Drivers/STM32L1xx_HAL_Driver/Inc/stm32l1xx_ll_usart.h ****   */
  63:Drivers/STM32L1xx_HAL_Driver/Inc/stm32l1xx_ll_usart.h **** #endif /*USE_FULL_LL_DRIVER*/
  64:Drivers/STM32L1xx_HAL_Driver/Inc/stm32l1xx_ll_usart.h **** 
  65:Drivers/STM32L1xx_HAL_Driver/Inc/stm32l1xx_ll_usart.h **** /* Exported types ------------------------------------------------------------*/
  66:Drivers/STM32L1xx_HAL_Driver/Inc/stm32l1xx_ll_usart.h **** #if defined(USE_FULL_LL_DRIVER)
  67:Drivers/STM32L1xx_HAL_Driver/Inc/stm32l1xx_ll_usart.h **** /** @defgroup USART_LL_ES_INIT USART Exported Init structures
  68:Drivers/STM32L1xx_HAL_Driver/Inc/stm32l1xx_ll_usart.h ****   * @{
  69:Drivers/STM32L1xx_HAL_Driver/Inc/stm32l1xx_ll_usart.h ****   */
  70:Drivers/STM32L1xx_HAL_Driver/Inc/stm32l1xx_ll_usart.h **** 
  71:Drivers/STM32L1xx_HAL_Driver/Inc/stm32l1xx_ll_usart.h **** /**
  72:Drivers/STM32L1xx_HAL_Driver/Inc/stm32l1xx_ll_usart.h ****   * @brief LL USART Init Structure definition
  73:Drivers/STM32L1xx_HAL_Driver/Inc/stm32l1xx_ll_usart.h ****   */
  74:Drivers/STM32L1xx_HAL_Driver/Inc/stm32l1xx_ll_usart.h **** typedef struct
  75:Drivers/STM32L1xx_HAL_Driver/Inc/stm32l1xx_ll_usart.h **** {
  76:Drivers/STM32L1xx_HAL_Driver/Inc/stm32l1xx_ll_usart.h ****   uint32_t BaudRate;                  /*!< This field defines expected Usart communication baud rat
  77:Drivers/STM32L1xx_HAL_Driver/Inc/stm32l1xx_ll_usart.h **** 
  78:Drivers/STM32L1xx_HAL_Driver/Inc/stm32l1xx_ll_usart.h ****                                            This feature can be modified afterwards using unitary fu
  79:Drivers/STM32L1xx_HAL_Driver/Inc/stm32l1xx_ll_usart.h **** 
  80:Drivers/STM32L1xx_HAL_Driver/Inc/stm32l1xx_ll_usart.h ****   uint32_t DataWidth;                 /*!< Specifies the number of data bits transmitted or receive
  81:Drivers/STM32L1xx_HAL_Driver/Inc/stm32l1xx_ll_usart.h ****                                            This parameter can be a value of @ref USART_LL_EC_DATAWI
  82:Drivers/STM32L1xx_HAL_Driver/Inc/stm32l1xx_ll_usart.h **** 
  83:Drivers/STM32L1xx_HAL_Driver/Inc/stm32l1xx_ll_usart.h ****                                            This feature can be modified afterwards using unitary fu
  84:Drivers/STM32L1xx_HAL_Driver/Inc/stm32l1xx_ll_usart.h **** 
  85:Drivers/STM32L1xx_HAL_Driver/Inc/stm32l1xx_ll_usart.h ****   uint32_t StopBits;                  /*!< Specifies the number of stop bits transmitted.
  86:Drivers/STM32L1xx_HAL_Driver/Inc/stm32l1xx_ll_usart.h ****                                            This parameter can be a value of @ref USART_LL_EC_STOPBI
  87:Drivers/STM32L1xx_HAL_Driver/Inc/stm32l1xx_ll_usart.h **** 
  88:Drivers/STM32L1xx_HAL_Driver/Inc/stm32l1xx_ll_usart.h ****                                            This feature can be modified afterwards using unitary fu
  89:Drivers/STM32L1xx_HAL_Driver/Inc/stm32l1xx_ll_usart.h **** 
  90:Drivers/STM32L1xx_HAL_Driver/Inc/stm32l1xx_ll_usart.h ****   uint32_t Parity;                    /*!< Specifies the parity mode.
  91:Drivers/STM32L1xx_HAL_Driver/Inc/stm32l1xx_ll_usart.h ****                                            This parameter can be a value of @ref USART_LL_EC_PARITY
  92:Drivers/STM32L1xx_HAL_Driver/Inc/stm32l1xx_ll_usart.h **** 
  93:Drivers/STM32L1xx_HAL_Driver/Inc/stm32l1xx_ll_usart.h ****                                            This feature can be modified afterwards using unitary fu
  94:Drivers/STM32L1xx_HAL_Driver/Inc/stm32l1xx_ll_usart.h **** 
  95:Drivers/STM32L1xx_HAL_Driver/Inc/stm32l1xx_ll_usart.h ****   uint32_t TransferDirection;         /*!< Specifies whether the Receive and/or Transmit mode is en
  96:Drivers/STM32L1xx_HAL_Driver/Inc/stm32l1xx_ll_usart.h ****                                            This parameter can be a value of @ref USART_LL_EC_DIRECT
  97:Drivers/STM32L1xx_HAL_Driver/Inc/stm32l1xx_ll_usart.h **** 
  98:Drivers/STM32L1xx_HAL_Driver/Inc/stm32l1xx_ll_usart.h ****                                            This feature can be modified afterwards using unitary fu
  99:Drivers/STM32L1xx_HAL_Driver/Inc/stm32l1xx_ll_usart.h **** 
 100:Drivers/STM32L1xx_HAL_Driver/Inc/stm32l1xx_ll_usart.h ****   uint32_t HardwareFlowControl;       /*!< Specifies whether the hardware flow control mode is enab
 101:Drivers/STM32L1xx_HAL_Driver/Inc/stm32l1xx_ll_usart.h ****                                            This parameter can be a value of @ref USART_LL_EC_HWCONT
 102:Drivers/STM32L1xx_HAL_Driver/Inc/stm32l1xx_ll_usart.h **** 
ARM GAS  C:\Users\domen\AppData\Local\Temp\ccbqR6EW.s 			page 29


 103:Drivers/STM32L1xx_HAL_Driver/Inc/stm32l1xx_ll_usart.h ****                                            This feature can be modified afterwards using unitary fu
 104:Drivers/STM32L1xx_HAL_Driver/Inc/stm32l1xx_ll_usart.h **** 
 105:Drivers/STM32L1xx_HAL_Driver/Inc/stm32l1xx_ll_usart.h ****   uint32_t OverSampling;              /*!< Specifies whether USART oversampling mode is 16 or 8.
 106:Drivers/STM32L1xx_HAL_Driver/Inc/stm32l1xx_ll_usart.h ****                                            This parameter can be a value of @ref USART_LL_EC_OVERSA
 107:Drivers/STM32L1xx_HAL_Driver/Inc/stm32l1xx_ll_usart.h **** 
 108:Drivers/STM32L1xx_HAL_Driver/Inc/stm32l1xx_ll_usart.h ****                                            This feature can be modified afterwards using unitary fu
 109:Drivers/STM32L1xx_HAL_Driver/Inc/stm32l1xx_ll_usart.h **** 
 110:Drivers/STM32L1xx_HAL_Driver/Inc/stm32l1xx_ll_usart.h **** } LL_USART_InitTypeDef;
 111:Drivers/STM32L1xx_HAL_Driver/Inc/stm32l1xx_ll_usart.h **** 
 112:Drivers/STM32L1xx_HAL_Driver/Inc/stm32l1xx_ll_usart.h **** /**
 113:Drivers/STM32L1xx_HAL_Driver/Inc/stm32l1xx_ll_usart.h ****   * @brief LL USART Clock Init Structure definition
 114:Drivers/STM32L1xx_HAL_Driver/Inc/stm32l1xx_ll_usart.h ****   */
 115:Drivers/STM32L1xx_HAL_Driver/Inc/stm32l1xx_ll_usart.h **** typedef struct
 116:Drivers/STM32L1xx_HAL_Driver/Inc/stm32l1xx_ll_usart.h **** {
 117:Drivers/STM32L1xx_HAL_Driver/Inc/stm32l1xx_ll_usart.h ****   uint32_t ClockOutput;               /*!< Specifies whether the USART clock is enabled or disabled
 118:Drivers/STM32L1xx_HAL_Driver/Inc/stm32l1xx_ll_usart.h ****                                            This parameter can be a value of @ref USART_LL_EC_CLOCK.
 119:Drivers/STM32L1xx_HAL_Driver/Inc/stm32l1xx_ll_usart.h **** 
 120:Drivers/STM32L1xx_HAL_Driver/Inc/stm32l1xx_ll_usart.h ****                                            USART HW configuration can be modified afterwards using 
 121:Drivers/STM32L1xx_HAL_Driver/Inc/stm32l1xx_ll_usart.h ****                                            @ref LL_USART_EnableSCLKOutput() or @ref LL_USART_Disabl
 122:Drivers/STM32L1xx_HAL_Driver/Inc/stm32l1xx_ll_usart.h ****                                            For more details, refer to description of this function.
 123:Drivers/STM32L1xx_HAL_Driver/Inc/stm32l1xx_ll_usart.h **** 
 124:Drivers/STM32L1xx_HAL_Driver/Inc/stm32l1xx_ll_usart.h ****   uint32_t ClockPolarity;             /*!< Specifies the steady state of the serial clock.
 125:Drivers/STM32L1xx_HAL_Driver/Inc/stm32l1xx_ll_usart.h ****                                            This parameter can be a value of @ref USART_LL_EC_POLARI
 126:Drivers/STM32L1xx_HAL_Driver/Inc/stm32l1xx_ll_usart.h **** 
 127:Drivers/STM32L1xx_HAL_Driver/Inc/stm32l1xx_ll_usart.h ****                                            USART HW configuration can be modified afterwards using 
 128:Drivers/STM32L1xx_HAL_Driver/Inc/stm32l1xx_ll_usart.h ****                                            For more details, refer to description of this function.
 129:Drivers/STM32L1xx_HAL_Driver/Inc/stm32l1xx_ll_usart.h **** 
 130:Drivers/STM32L1xx_HAL_Driver/Inc/stm32l1xx_ll_usart.h ****   uint32_t ClockPhase;                /*!< Specifies the clock transition on which the bit capture 
 131:Drivers/STM32L1xx_HAL_Driver/Inc/stm32l1xx_ll_usart.h ****                                            This parameter can be a value of @ref USART_LL_EC_PHASE.
 132:Drivers/STM32L1xx_HAL_Driver/Inc/stm32l1xx_ll_usart.h **** 
 133:Drivers/STM32L1xx_HAL_Driver/Inc/stm32l1xx_ll_usart.h ****                                            USART HW configuration can be modified afterwards using 
 134:Drivers/STM32L1xx_HAL_Driver/Inc/stm32l1xx_ll_usart.h ****                                            For more details, refer to description of this function.
 135:Drivers/STM32L1xx_HAL_Driver/Inc/stm32l1xx_ll_usart.h **** 
 136:Drivers/STM32L1xx_HAL_Driver/Inc/stm32l1xx_ll_usart.h ****   uint32_t LastBitClockPulse;         /*!< Specifies whether the clock pulse corresponding to the l
 137:Drivers/STM32L1xx_HAL_Driver/Inc/stm32l1xx_ll_usart.h ****                                            data bit (MSB) has to be output on the SCLK pin in synch
 138:Drivers/STM32L1xx_HAL_Driver/Inc/stm32l1xx_ll_usart.h ****                                            This parameter can be a value of @ref USART_LL_EC_LASTCL
 139:Drivers/STM32L1xx_HAL_Driver/Inc/stm32l1xx_ll_usart.h **** 
 140:Drivers/STM32L1xx_HAL_Driver/Inc/stm32l1xx_ll_usart.h ****                                            USART HW configuration can be modified afterwards using 
 141:Drivers/STM32L1xx_HAL_Driver/Inc/stm32l1xx_ll_usart.h ****                                            For more details, refer to description of this function.
 142:Drivers/STM32L1xx_HAL_Driver/Inc/stm32l1xx_ll_usart.h **** 
 143:Drivers/STM32L1xx_HAL_Driver/Inc/stm32l1xx_ll_usart.h **** } LL_USART_ClockInitTypeDef;
 144:Drivers/STM32L1xx_HAL_Driver/Inc/stm32l1xx_ll_usart.h **** 
 145:Drivers/STM32L1xx_HAL_Driver/Inc/stm32l1xx_ll_usart.h **** /**
 146:Drivers/STM32L1xx_HAL_Driver/Inc/stm32l1xx_ll_usart.h ****   * @}
 147:Drivers/STM32L1xx_HAL_Driver/Inc/stm32l1xx_ll_usart.h ****   */
 148:Drivers/STM32L1xx_HAL_Driver/Inc/stm32l1xx_ll_usart.h **** #endif /* USE_FULL_LL_DRIVER */
 149:Drivers/STM32L1xx_HAL_Driver/Inc/stm32l1xx_ll_usart.h **** 
 150:Drivers/STM32L1xx_HAL_Driver/Inc/stm32l1xx_ll_usart.h **** /* Exported constants --------------------------------------------------------*/
 151:Drivers/STM32L1xx_HAL_Driver/Inc/stm32l1xx_ll_usart.h **** /** @defgroup USART_LL_Exported_Constants USART Exported Constants
 152:Drivers/STM32L1xx_HAL_Driver/Inc/stm32l1xx_ll_usart.h ****   * @{
 153:Drivers/STM32L1xx_HAL_Driver/Inc/stm32l1xx_ll_usart.h ****   */
 154:Drivers/STM32L1xx_HAL_Driver/Inc/stm32l1xx_ll_usart.h **** 
 155:Drivers/STM32L1xx_HAL_Driver/Inc/stm32l1xx_ll_usart.h **** /** @defgroup USART_LL_EC_GET_FLAG Get Flags Defines
 156:Drivers/STM32L1xx_HAL_Driver/Inc/stm32l1xx_ll_usart.h ****   * @brief    Flags defines which can be used with LL_USART_ReadReg function
 157:Drivers/STM32L1xx_HAL_Driver/Inc/stm32l1xx_ll_usart.h ****   * @{
 158:Drivers/STM32L1xx_HAL_Driver/Inc/stm32l1xx_ll_usart.h ****   */
 159:Drivers/STM32L1xx_HAL_Driver/Inc/stm32l1xx_ll_usart.h **** #define LL_USART_SR_PE                          USART_SR_PE                   /*!< Parity error fla
ARM GAS  C:\Users\domen\AppData\Local\Temp\ccbqR6EW.s 			page 30


 160:Drivers/STM32L1xx_HAL_Driver/Inc/stm32l1xx_ll_usart.h **** #define LL_USART_SR_FE                          USART_SR_FE                   /*!< Framing error fl
 161:Drivers/STM32L1xx_HAL_Driver/Inc/stm32l1xx_ll_usart.h **** #define LL_USART_SR_NE                          USART_SR_NE                   /*!< Noise detected f
 162:Drivers/STM32L1xx_HAL_Driver/Inc/stm32l1xx_ll_usart.h **** #define LL_USART_SR_ORE                         USART_SR_ORE                  /*!< Overrun error fl
 163:Drivers/STM32L1xx_HAL_Driver/Inc/stm32l1xx_ll_usart.h **** #define LL_USART_SR_IDLE                        USART_SR_IDLE                 /*!< Idle line detect
 164:Drivers/STM32L1xx_HAL_Driver/Inc/stm32l1xx_ll_usart.h **** #define LL_USART_SR_RXNE                        USART_SR_RXNE                 /*!< Read data regist
 165:Drivers/STM32L1xx_HAL_Driver/Inc/stm32l1xx_ll_usart.h **** #define LL_USART_SR_TC                          USART_SR_TC                   /*!< Transmission com
 166:Drivers/STM32L1xx_HAL_Driver/Inc/stm32l1xx_ll_usart.h **** #define LL_USART_SR_TXE                         USART_SR_TXE                  /*!< Transmit data re
 167:Drivers/STM32L1xx_HAL_Driver/Inc/stm32l1xx_ll_usart.h **** #define LL_USART_SR_LBD                         USART_SR_LBD                  /*!< LIN break detect
 168:Drivers/STM32L1xx_HAL_Driver/Inc/stm32l1xx_ll_usart.h **** #define LL_USART_SR_CTS                         USART_SR_CTS                  /*!< CTS flag */
 169:Drivers/STM32L1xx_HAL_Driver/Inc/stm32l1xx_ll_usart.h **** /**
 170:Drivers/STM32L1xx_HAL_Driver/Inc/stm32l1xx_ll_usart.h ****   * @}
 171:Drivers/STM32L1xx_HAL_Driver/Inc/stm32l1xx_ll_usart.h ****   */
 172:Drivers/STM32L1xx_HAL_Driver/Inc/stm32l1xx_ll_usart.h **** 
 173:Drivers/STM32L1xx_HAL_Driver/Inc/stm32l1xx_ll_usart.h **** /** @defgroup USART_LL_EC_IT IT Defines
 174:Drivers/STM32L1xx_HAL_Driver/Inc/stm32l1xx_ll_usart.h ****   * @brief    IT defines which can be used with LL_USART_ReadReg and  LL_USART_WriteReg functions
 175:Drivers/STM32L1xx_HAL_Driver/Inc/stm32l1xx_ll_usart.h ****   * @{
 176:Drivers/STM32L1xx_HAL_Driver/Inc/stm32l1xx_ll_usart.h ****   */
 177:Drivers/STM32L1xx_HAL_Driver/Inc/stm32l1xx_ll_usart.h **** #define LL_USART_CR1_IDLEIE                     USART_CR1_IDLEIE              /*!< IDLE interrupt e
 178:Drivers/STM32L1xx_HAL_Driver/Inc/stm32l1xx_ll_usart.h **** #define LL_USART_CR1_RXNEIE                     USART_CR1_RXNEIE              /*!< Read data regist
 179:Drivers/STM32L1xx_HAL_Driver/Inc/stm32l1xx_ll_usart.h **** #define LL_USART_CR1_TCIE                       USART_CR1_TCIE                /*!< Transmission com
 180:Drivers/STM32L1xx_HAL_Driver/Inc/stm32l1xx_ll_usart.h **** #define LL_USART_CR1_TXEIE                      USART_CR1_TXEIE               /*!< Transmit data re
 181:Drivers/STM32L1xx_HAL_Driver/Inc/stm32l1xx_ll_usart.h **** #define LL_USART_CR1_PEIE                       USART_CR1_PEIE                /*!< Parity error */
 182:Drivers/STM32L1xx_HAL_Driver/Inc/stm32l1xx_ll_usart.h **** #define LL_USART_CR2_LBDIE                      USART_CR2_LBDIE               /*!< LIN break detect
 183:Drivers/STM32L1xx_HAL_Driver/Inc/stm32l1xx_ll_usart.h **** #define LL_USART_CR3_EIE                        USART_CR3_EIE                 /*!< Error interrupt 
 184:Drivers/STM32L1xx_HAL_Driver/Inc/stm32l1xx_ll_usart.h **** #define LL_USART_CR3_CTSIE                      USART_CR3_CTSIE               /*!< CTS interrupt en
 185:Drivers/STM32L1xx_HAL_Driver/Inc/stm32l1xx_ll_usart.h **** /**
 186:Drivers/STM32L1xx_HAL_Driver/Inc/stm32l1xx_ll_usart.h ****   * @}
 187:Drivers/STM32L1xx_HAL_Driver/Inc/stm32l1xx_ll_usart.h ****   */
 188:Drivers/STM32L1xx_HAL_Driver/Inc/stm32l1xx_ll_usart.h **** 
 189:Drivers/STM32L1xx_HAL_Driver/Inc/stm32l1xx_ll_usart.h **** /** @defgroup USART_LL_EC_DIRECTION Communication Direction
 190:Drivers/STM32L1xx_HAL_Driver/Inc/stm32l1xx_ll_usart.h ****   * @{
 191:Drivers/STM32L1xx_HAL_Driver/Inc/stm32l1xx_ll_usart.h ****   */
 192:Drivers/STM32L1xx_HAL_Driver/Inc/stm32l1xx_ll_usart.h **** #define LL_USART_DIRECTION_NONE                 0x00000000U                        /*!< Transmitter
 193:Drivers/STM32L1xx_HAL_Driver/Inc/stm32l1xx_ll_usart.h **** #define LL_USART_DIRECTION_RX                   USART_CR1_RE                       /*!< Transmitter
 194:Drivers/STM32L1xx_HAL_Driver/Inc/stm32l1xx_ll_usart.h **** #define LL_USART_DIRECTION_TX                   USART_CR1_TE                       /*!< Transmitter
 195:Drivers/STM32L1xx_HAL_Driver/Inc/stm32l1xx_ll_usart.h **** #define LL_USART_DIRECTION_TX_RX                (USART_CR1_TE |USART_CR1_RE)       /*!< Transmitter
 196:Drivers/STM32L1xx_HAL_Driver/Inc/stm32l1xx_ll_usart.h **** /**
 197:Drivers/STM32L1xx_HAL_Driver/Inc/stm32l1xx_ll_usart.h ****   * @}
 198:Drivers/STM32L1xx_HAL_Driver/Inc/stm32l1xx_ll_usart.h ****   */
 199:Drivers/STM32L1xx_HAL_Driver/Inc/stm32l1xx_ll_usart.h **** 
 200:Drivers/STM32L1xx_HAL_Driver/Inc/stm32l1xx_ll_usart.h **** /** @defgroup USART_LL_EC_PARITY Parity Control
 201:Drivers/STM32L1xx_HAL_Driver/Inc/stm32l1xx_ll_usart.h ****   * @{
 202:Drivers/STM32L1xx_HAL_Driver/Inc/stm32l1xx_ll_usart.h ****   */
 203:Drivers/STM32L1xx_HAL_Driver/Inc/stm32l1xx_ll_usart.h **** #define LL_USART_PARITY_NONE                    0x00000000U                          /*!< Parity co
 204:Drivers/STM32L1xx_HAL_Driver/Inc/stm32l1xx_ll_usart.h **** #define LL_USART_PARITY_EVEN                    USART_CR1_PCE                        /*!< Parity co
 205:Drivers/STM32L1xx_HAL_Driver/Inc/stm32l1xx_ll_usart.h **** #define LL_USART_PARITY_ODD                     (USART_CR1_PCE | USART_CR1_PS)       /*!< Parity co
 206:Drivers/STM32L1xx_HAL_Driver/Inc/stm32l1xx_ll_usart.h **** /**
 207:Drivers/STM32L1xx_HAL_Driver/Inc/stm32l1xx_ll_usart.h ****   * @}
 208:Drivers/STM32L1xx_HAL_Driver/Inc/stm32l1xx_ll_usart.h ****   */
 209:Drivers/STM32L1xx_HAL_Driver/Inc/stm32l1xx_ll_usart.h **** 
 210:Drivers/STM32L1xx_HAL_Driver/Inc/stm32l1xx_ll_usart.h **** /** @defgroup USART_LL_EC_WAKEUP Wakeup
 211:Drivers/STM32L1xx_HAL_Driver/Inc/stm32l1xx_ll_usart.h ****   * @{
 212:Drivers/STM32L1xx_HAL_Driver/Inc/stm32l1xx_ll_usart.h ****   */
 213:Drivers/STM32L1xx_HAL_Driver/Inc/stm32l1xx_ll_usart.h **** #define LL_USART_WAKEUP_IDLELINE                0x00000000U           /*!<  USART wake up from Mute
 214:Drivers/STM32L1xx_HAL_Driver/Inc/stm32l1xx_ll_usart.h **** #define LL_USART_WAKEUP_ADDRESSMARK             USART_CR1_WAKE        /*!<  USART wake up from Mute
 215:Drivers/STM32L1xx_HAL_Driver/Inc/stm32l1xx_ll_usart.h **** /**
 216:Drivers/STM32L1xx_HAL_Driver/Inc/stm32l1xx_ll_usart.h ****   * @}
ARM GAS  C:\Users\domen\AppData\Local\Temp\ccbqR6EW.s 			page 31


 217:Drivers/STM32L1xx_HAL_Driver/Inc/stm32l1xx_ll_usart.h ****   */
 218:Drivers/STM32L1xx_HAL_Driver/Inc/stm32l1xx_ll_usart.h **** 
 219:Drivers/STM32L1xx_HAL_Driver/Inc/stm32l1xx_ll_usart.h **** /** @defgroup USART_LL_EC_DATAWIDTH Datawidth
 220:Drivers/STM32L1xx_HAL_Driver/Inc/stm32l1xx_ll_usart.h ****   * @{
 221:Drivers/STM32L1xx_HAL_Driver/Inc/stm32l1xx_ll_usart.h ****   */
 222:Drivers/STM32L1xx_HAL_Driver/Inc/stm32l1xx_ll_usart.h **** #define LL_USART_DATAWIDTH_8B                   0x00000000U             /*!< 8 bits word length : S
 223:Drivers/STM32L1xx_HAL_Driver/Inc/stm32l1xx_ll_usart.h **** #define LL_USART_DATAWIDTH_9B                   USART_CR1_M             /*!< 9 bits word length : S
 224:Drivers/STM32L1xx_HAL_Driver/Inc/stm32l1xx_ll_usart.h **** /**
 225:Drivers/STM32L1xx_HAL_Driver/Inc/stm32l1xx_ll_usart.h ****   * @}
 226:Drivers/STM32L1xx_HAL_Driver/Inc/stm32l1xx_ll_usart.h ****   */
 227:Drivers/STM32L1xx_HAL_Driver/Inc/stm32l1xx_ll_usart.h **** 
 228:Drivers/STM32L1xx_HAL_Driver/Inc/stm32l1xx_ll_usart.h **** /** @defgroup USART_LL_EC_OVERSAMPLING Oversampling
 229:Drivers/STM32L1xx_HAL_Driver/Inc/stm32l1xx_ll_usart.h ****   * @{
 230:Drivers/STM32L1xx_HAL_Driver/Inc/stm32l1xx_ll_usart.h ****   */
 231:Drivers/STM32L1xx_HAL_Driver/Inc/stm32l1xx_ll_usart.h **** #define LL_USART_OVERSAMPLING_16                0x00000000U            /*!< Oversampling by 16 */
 232:Drivers/STM32L1xx_HAL_Driver/Inc/stm32l1xx_ll_usart.h **** #define LL_USART_OVERSAMPLING_8                 USART_CR1_OVER8        /*!< Oversampling by 8 */
 233:Drivers/STM32L1xx_HAL_Driver/Inc/stm32l1xx_ll_usart.h **** /**
 234:Drivers/STM32L1xx_HAL_Driver/Inc/stm32l1xx_ll_usart.h ****   * @}
 235:Drivers/STM32L1xx_HAL_Driver/Inc/stm32l1xx_ll_usart.h ****   */
 236:Drivers/STM32L1xx_HAL_Driver/Inc/stm32l1xx_ll_usart.h **** 
 237:Drivers/STM32L1xx_HAL_Driver/Inc/stm32l1xx_ll_usart.h **** #if defined(USE_FULL_LL_DRIVER)
 238:Drivers/STM32L1xx_HAL_Driver/Inc/stm32l1xx_ll_usart.h **** /** @defgroup USART_LL_EC_CLOCK Clock Signal
 239:Drivers/STM32L1xx_HAL_Driver/Inc/stm32l1xx_ll_usart.h ****   * @{
 240:Drivers/STM32L1xx_HAL_Driver/Inc/stm32l1xx_ll_usart.h ****   */
 241:Drivers/STM32L1xx_HAL_Driver/Inc/stm32l1xx_ll_usart.h **** 
 242:Drivers/STM32L1xx_HAL_Driver/Inc/stm32l1xx_ll_usart.h **** #define LL_USART_CLOCK_DISABLE                  0x00000000U            /*!< Clock signal not provid
 243:Drivers/STM32L1xx_HAL_Driver/Inc/stm32l1xx_ll_usart.h **** #define LL_USART_CLOCK_ENABLE                   USART_CR2_CLKEN        /*!< Clock signal provided *
 244:Drivers/STM32L1xx_HAL_Driver/Inc/stm32l1xx_ll_usart.h **** /**
 245:Drivers/STM32L1xx_HAL_Driver/Inc/stm32l1xx_ll_usart.h ****   * @}
 246:Drivers/STM32L1xx_HAL_Driver/Inc/stm32l1xx_ll_usart.h ****   */
 247:Drivers/STM32L1xx_HAL_Driver/Inc/stm32l1xx_ll_usart.h **** #endif /*USE_FULL_LL_DRIVER*/
 248:Drivers/STM32L1xx_HAL_Driver/Inc/stm32l1xx_ll_usart.h **** 
 249:Drivers/STM32L1xx_HAL_Driver/Inc/stm32l1xx_ll_usart.h **** /** @defgroup USART_LL_EC_LASTCLKPULSE Last Clock Pulse
 250:Drivers/STM32L1xx_HAL_Driver/Inc/stm32l1xx_ll_usart.h ****   * @{
 251:Drivers/STM32L1xx_HAL_Driver/Inc/stm32l1xx_ll_usart.h ****   */
 252:Drivers/STM32L1xx_HAL_Driver/Inc/stm32l1xx_ll_usart.h **** #define LL_USART_LASTCLKPULSE_NO_OUTPUT         0x00000000U           /*!< The clock pulse of the l
 253:Drivers/STM32L1xx_HAL_Driver/Inc/stm32l1xx_ll_usart.h **** #define LL_USART_LASTCLKPULSE_OUTPUT            USART_CR2_LBCL        /*!< The clock pulse of the l
 254:Drivers/STM32L1xx_HAL_Driver/Inc/stm32l1xx_ll_usart.h **** /**
 255:Drivers/STM32L1xx_HAL_Driver/Inc/stm32l1xx_ll_usart.h ****   * @}
 256:Drivers/STM32L1xx_HAL_Driver/Inc/stm32l1xx_ll_usart.h ****   */
 257:Drivers/STM32L1xx_HAL_Driver/Inc/stm32l1xx_ll_usart.h **** 
 258:Drivers/STM32L1xx_HAL_Driver/Inc/stm32l1xx_ll_usart.h **** /** @defgroup USART_LL_EC_PHASE Clock Phase
 259:Drivers/STM32L1xx_HAL_Driver/Inc/stm32l1xx_ll_usart.h ****   * @{
 260:Drivers/STM32L1xx_HAL_Driver/Inc/stm32l1xx_ll_usart.h ****   */
 261:Drivers/STM32L1xx_HAL_Driver/Inc/stm32l1xx_ll_usart.h **** #define LL_USART_PHASE_1EDGE                    0x00000000U           /*!< The first clock transiti
 262:Drivers/STM32L1xx_HAL_Driver/Inc/stm32l1xx_ll_usart.h **** #define LL_USART_PHASE_2EDGE                    USART_CR2_CPHA        /*!< The second clock transit
 263:Drivers/STM32L1xx_HAL_Driver/Inc/stm32l1xx_ll_usart.h **** /**
 264:Drivers/STM32L1xx_HAL_Driver/Inc/stm32l1xx_ll_usart.h ****   * @}
 265:Drivers/STM32L1xx_HAL_Driver/Inc/stm32l1xx_ll_usart.h ****   */
 266:Drivers/STM32L1xx_HAL_Driver/Inc/stm32l1xx_ll_usart.h **** 
 267:Drivers/STM32L1xx_HAL_Driver/Inc/stm32l1xx_ll_usart.h **** /** @defgroup USART_LL_EC_POLARITY Clock Polarity
 268:Drivers/STM32L1xx_HAL_Driver/Inc/stm32l1xx_ll_usart.h ****   * @{
 269:Drivers/STM32L1xx_HAL_Driver/Inc/stm32l1xx_ll_usart.h ****   */
 270:Drivers/STM32L1xx_HAL_Driver/Inc/stm32l1xx_ll_usart.h **** #define LL_USART_POLARITY_LOW                   0x00000000U           /*!< Steady low value on SCLK
 271:Drivers/STM32L1xx_HAL_Driver/Inc/stm32l1xx_ll_usart.h **** #define LL_USART_POLARITY_HIGH                  USART_CR2_CPOL        /*!< Steady high value on SCL
 272:Drivers/STM32L1xx_HAL_Driver/Inc/stm32l1xx_ll_usart.h **** /**
 273:Drivers/STM32L1xx_HAL_Driver/Inc/stm32l1xx_ll_usart.h ****   * @}
ARM GAS  C:\Users\domen\AppData\Local\Temp\ccbqR6EW.s 			page 32


 274:Drivers/STM32L1xx_HAL_Driver/Inc/stm32l1xx_ll_usart.h ****   */
 275:Drivers/STM32L1xx_HAL_Driver/Inc/stm32l1xx_ll_usart.h **** 
 276:Drivers/STM32L1xx_HAL_Driver/Inc/stm32l1xx_ll_usart.h **** /** @defgroup USART_LL_EC_STOPBITS Stop Bits
 277:Drivers/STM32L1xx_HAL_Driver/Inc/stm32l1xx_ll_usart.h ****   * @{
 278:Drivers/STM32L1xx_HAL_Driver/Inc/stm32l1xx_ll_usart.h ****   */
 279:Drivers/STM32L1xx_HAL_Driver/Inc/stm32l1xx_ll_usart.h **** #define LL_USART_STOPBITS_0_5                   USART_CR2_STOP_0                           /*!< 0.5
 280:Drivers/STM32L1xx_HAL_Driver/Inc/stm32l1xx_ll_usart.h **** #define LL_USART_STOPBITS_1                     0x00000000U                                /*!< 1 s
 281:Drivers/STM32L1xx_HAL_Driver/Inc/stm32l1xx_ll_usart.h **** #define LL_USART_STOPBITS_1_5                   (USART_CR2_STOP_0 | USART_CR2_STOP_1)      /*!< 1.5
 282:Drivers/STM32L1xx_HAL_Driver/Inc/stm32l1xx_ll_usart.h **** #define LL_USART_STOPBITS_2                     USART_CR2_STOP_1                           /*!< 2 s
 283:Drivers/STM32L1xx_HAL_Driver/Inc/stm32l1xx_ll_usart.h **** /**
 284:Drivers/STM32L1xx_HAL_Driver/Inc/stm32l1xx_ll_usart.h ****   * @}
 285:Drivers/STM32L1xx_HAL_Driver/Inc/stm32l1xx_ll_usart.h ****   */
 286:Drivers/STM32L1xx_HAL_Driver/Inc/stm32l1xx_ll_usart.h **** 
 287:Drivers/STM32L1xx_HAL_Driver/Inc/stm32l1xx_ll_usart.h **** /** @defgroup USART_LL_EC_HWCONTROL Hardware Control
 288:Drivers/STM32L1xx_HAL_Driver/Inc/stm32l1xx_ll_usart.h ****   * @{
 289:Drivers/STM32L1xx_HAL_Driver/Inc/stm32l1xx_ll_usart.h ****   */
 290:Drivers/STM32L1xx_HAL_Driver/Inc/stm32l1xx_ll_usart.h **** #define LL_USART_HWCONTROL_NONE                 0x00000000U                          /*!< CTS and R
 291:Drivers/STM32L1xx_HAL_Driver/Inc/stm32l1xx_ll_usart.h **** #define LL_USART_HWCONTROL_RTS                  USART_CR3_RTSE                       /*!< RTS outpu
 292:Drivers/STM32L1xx_HAL_Driver/Inc/stm32l1xx_ll_usart.h **** #define LL_USART_HWCONTROL_CTS                  USART_CR3_CTSE                       /*!< CTS mode 
 293:Drivers/STM32L1xx_HAL_Driver/Inc/stm32l1xx_ll_usart.h **** #define LL_USART_HWCONTROL_RTS_CTS              (USART_CR3_RTSE | USART_CR3_CTSE)    /*!< CTS and R
 294:Drivers/STM32L1xx_HAL_Driver/Inc/stm32l1xx_ll_usart.h **** /**
 295:Drivers/STM32L1xx_HAL_Driver/Inc/stm32l1xx_ll_usart.h ****   * @}
 296:Drivers/STM32L1xx_HAL_Driver/Inc/stm32l1xx_ll_usart.h ****   */
 297:Drivers/STM32L1xx_HAL_Driver/Inc/stm32l1xx_ll_usart.h **** 
 298:Drivers/STM32L1xx_HAL_Driver/Inc/stm32l1xx_ll_usart.h **** /** @defgroup USART_LL_EC_IRDA_POWER IrDA Power
 299:Drivers/STM32L1xx_HAL_Driver/Inc/stm32l1xx_ll_usart.h ****   * @{
 300:Drivers/STM32L1xx_HAL_Driver/Inc/stm32l1xx_ll_usart.h ****   */
 301:Drivers/STM32L1xx_HAL_Driver/Inc/stm32l1xx_ll_usart.h **** #define LL_USART_IRDA_POWER_NORMAL              0x00000000U           /*!< IrDA normal power mode *
 302:Drivers/STM32L1xx_HAL_Driver/Inc/stm32l1xx_ll_usart.h **** #define LL_USART_IRDA_POWER_LOW                 USART_CR3_IRLP        /*!< IrDA low power mode */
 303:Drivers/STM32L1xx_HAL_Driver/Inc/stm32l1xx_ll_usart.h **** /**
 304:Drivers/STM32L1xx_HAL_Driver/Inc/stm32l1xx_ll_usart.h ****   * @}
 305:Drivers/STM32L1xx_HAL_Driver/Inc/stm32l1xx_ll_usart.h ****   */
 306:Drivers/STM32L1xx_HAL_Driver/Inc/stm32l1xx_ll_usart.h **** 
 307:Drivers/STM32L1xx_HAL_Driver/Inc/stm32l1xx_ll_usart.h **** /** @defgroup USART_LL_EC_LINBREAK_DETECT LIN Break Detection Length
 308:Drivers/STM32L1xx_HAL_Driver/Inc/stm32l1xx_ll_usart.h ****   * @{
 309:Drivers/STM32L1xx_HAL_Driver/Inc/stm32l1xx_ll_usart.h ****   */
 310:Drivers/STM32L1xx_HAL_Driver/Inc/stm32l1xx_ll_usart.h **** #define LL_USART_LINBREAK_DETECT_10B            0x00000000U           /*!< 10-bit break detection m
 311:Drivers/STM32L1xx_HAL_Driver/Inc/stm32l1xx_ll_usart.h **** #define LL_USART_LINBREAK_DETECT_11B            USART_CR2_LBDL        /*!< 11-bit break detection m
 312:Drivers/STM32L1xx_HAL_Driver/Inc/stm32l1xx_ll_usart.h **** /**
 313:Drivers/STM32L1xx_HAL_Driver/Inc/stm32l1xx_ll_usart.h ****   * @}
 314:Drivers/STM32L1xx_HAL_Driver/Inc/stm32l1xx_ll_usart.h ****   */
 315:Drivers/STM32L1xx_HAL_Driver/Inc/stm32l1xx_ll_usart.h **** 
 316:Drivers/STM32L1xx_HAL_Driver/Inc/stm32l1xx_ll_usart.h **** /**
 317:Drivers/STM32L1xx_HAL_Driver/Inc/stm32l1xx_ll_usart.h ****   * @}
 318:Drivers/STM32L1xx_HAL_Driver/Inc/stm32l1xx_ll_usart.h ****   */
 319:Drivers/STM32L1xx_HAL_Driver/Inc/stm32l1xx_ll_usart.h **** 
 320:Drivers/STM32L1xx_HAL_Driver/Inc/stm32l1xx_ll_usart.h **** /* Exported macro ------------------------------------------------------------*/
 321:Drivers/STM32L1xx_HAL_Driver/Inc/stm32l1xx_ll_usart.h **** /** @defgroup USART_LL_Exported_Macros USART Exported Macros
 322:Drivers/STM32L1xx_HAL_Driver/Inc/stm32l1xx_ll_usart.h ****   * @{
 323:Drivers/STM32L1xx_HAL_Driver/Inc/stm32l1xx_ll_usart.h ****   */
 324:Drivers/STM32L1xx_HAL_Driver/Inc/stm32l1xx_ll_usart.h **** 
 325:Drivers/STM32L1xx_HAL_Driver/Inc/stm32l1xx_ll_usart.h **** /** @defgroup USART_LL_EM_WRITE_READ Common Write and read registers Macros
 326:Drivers/STM32L1xx_HAL_Driver/Inc/stm32l1xx_ll_usart.h ****   * @{
 327:Drivers/STM32L1xx_HAL_Driver/Inc/stm32l1xx_ll_usart.h ****   */
 328:Drivers/STM32L1xx_HAL_Driver/Inc/stm32l1xx_ll_usart.h **** 
 329:Drivers/STM32L1xx_HAL_Driver/Inc/stm32l1xx_ll_usart.h **** /**
 330:Drivers/STM32L1xx_HAL_Driver/Inc/stm32l1xx_ll_usart.h ****   * @brief  Write a value in USART register
ARM GAS  C:\Users\domen\AppData\Local\Temp\ccbqR6EW.s 			page 33


 331:Drivers/STM32L1xx_HAL_Driver/Inc/stm32l1xx_ll_usart.h ****   * @param  __INSTANCE__ USART Instance
 332:Drivers/STM32L1xx_HAL_Driver/Inc/stm32l1xx_ll_usart.h ****   * @param  __REG__ Register to be written
 333:Drivers/STM32L1xx_HAL_Driver/Inc/stm32l1xx_ll_usart.h ****   * @param  __VALUE__ Value to be written in the register
 334:Drivers/STM32L1xx_HAL_Driver/Inc/stm32l1xx_ll_usart.h ****   * @retval None
 335:Drivers/STM32L1xx_HAL_Driver/Inc/stm32l1xx_ll_usart.h ****   */
 336:Drivers/STM32L1xx_HAL_Driver/Inc/stm32l1xx_ll_usart.h **** #define LL_USART_WriteReg(__INSTANCE__, __REG__, __VALUE__) WRITE_REG(__INSTANCE__->__REG__, (__VAL
 337:Drivers/STM32L1xx_HAL_Driver/Inc/stm32l1xx_ll_usart.h **** 
 338:Drivers/STM32L1xx_HAL_Driver/Inc/stm32l1xx_ll_usart.h **** /**
 339:Drivers/STM32L1xx_HAL_Driver/Inc/stm32l1xx_ll_usart.h ****   * @brief  Read a value in USART register
 340:Drivers/STM32L1xx_HAL_Driver/Inc/stm32l1xx_ll_usart.h ****   * @param  __INSTANCE__ USART Instance
 341:Drivers/STM32L1xx_HAL_Driver/Inc/stm32l1xx_ll_usart.h ****   * @param  __REG__ Register to be read
 342:Drivers/STM32L1xx_HAL_Driver/Inc/stm32l1xx_ll_usart.h ****   * @retval Register value
 343:Drivers/STM32L1xx_HAL_Driver/Inc/stm32l1xx_ll_usart.h ****   */
 344:Drivers/STM32L1xx_HAL_Driver/Inc/stm32l1xx_ll_usart.h **** #define LL_USART_ReadReg(__INSTANCE__, __REG__) READ_REG(__INSTANCE__->__REG__)
 345:Drivers/STM32L1xx_HAL_Driver/Inc/stm32l1xx_ll_usart.h **** /**
 346:Drivers/STM32L1xx_HAL_Driver/Inc/stm32l1xx_ll_usart.h ****   * @}
 347:Drivers/STM32L1xx_HAL_Driver/Inc/stm32l1xx_ll_usart.h ****   */
 348:Drivers/STM32L1xx_HAL_Driver/Inc/stm32l1xx_ll_usart.h **** 
 349:Drivers/STM32L1xx_HAL_Driver/Inc/stm32l1xx_ll_usart.h **** /** @defgroup USART_LL_EM_Exported_Macros_Helper Exported_Macros_Helper
 350:Drivers/STM32L1xx_HAL_Driver/Inc/stm32l1xx_ll_usart.h ****   * @{
 351:Drivers/STM32L1xx_HAL_Driver/Inc/stm32l1xx_ll_usart.h ****   */
 352:Drivers/STM32L1xx_HAL_Driver/Inc/stm32l1xx_ll_usart.h **** 
 353:Drivers/STM32L1xx_HAL_Driver/Inc/stm32l1xx_ll_usart.h **** /**
 354:Drivers/STM32L1xx_HAL_Driver/Inc/stm32l1xx_ll_usart.h ****   * @brief  Compute USARTDIV value according to Peripheral Clock and
 355:Drivers/STM32L1xx_HAL_Driver/Inc/stm32l1xx_ll_usart.h ****   *         expected Baud Rate in 8 bits sampling mode (32 bits value of USARTDIV is returned)
 356:Drivers/STM32L1xx_HAL_Driver/Inc/stm32l1xx_ll_usart.h ****   * @param  __PERIPHCLK__ Peripheral Clock frequency used for USART instance
 357:Drivers/STM32L1xx_HAL_Driver/Inc/stm32l1xx_ll_usart.h ****   * @param  __BAUDRATE__ Baud rate value to achieve
 358:Drivers/STM32L1xx_HAL_Driver/Inc/stm32l1xx_ll_usart.h ****   * @retval USARTDIV value to be used for BRR register filling in OverSampling_8 case
 359:Drivers/STM32L1xx_HAL_Driver/Inc/stm32l1xx_ll_usart.h ****   */
 360:Drivers/STM32L1xx_HAL_Driver/Inc/stm32l1xx_ll_usart.h **** #define __LL_USART_DIV_SAMPLING8_100(__PERIPHCLK__, __BAUDRATE__)      (((__PERIPHCLK__)*25)/(2*(__
 361:Drivers/STM32L1xx_HAL_Driver/Inc/stm32l1xx_ll_usart.h **** #define __LL_USART_DIVMANT_SAMPLING8(__PERIPHCLK__, __BAUDRATE__)      (__LL_USART_DIV_SAMPLING8_10
 362:Drivers/STM32L1xx_HAL_Driver/Inc/stm32l1xx_ll_usart.h **** #define __LL_USART_DIVFRAQ_SAMPLING8(__PERIPHCLK__, __BAUDRATE__)      (((__LL_USART_DIV_SAMPLING8_
 363:Drivers/STM32L1xx_HAL_Driver/Inc/stm32l1xx_ll_usart.h **** /* UART BRR = mantissa + overflow + fraction
 364:Drivers/STM32L1xx_HAL_Driver/Inc/stm32l1xx_ll_usart.h ****             = (UART DIVMANT << 4) + ((UART DIVFRAQ & 0xF8) << 1) + (UART DIVFRAQ & 0x07) */
 365:Drivers/STM32L1xx_HAL_Driver/Inc/stm32l1xx_ll_usart.h **** #define __LL_USART_DIV_SAMPLING8(__PERIPHCLK__, __BAUDRATE__)             (((__LL_USART_DIVMANT_SAM
 366:Drivers/STM32L1xx_HAL_Driver/Inc/stm32l1xx_ll_usart.h ****                                                                            ((__LL_USART_DIVFRAQ_SAM
 367:Drivers/STM32L1xx_HAL_Driver/Inc/stm32l1xx_ll_usart.h ****                                                                            (__LL_USART_DIVFRAQ_SAMP
 368:Drivers/STM32L1xx_HAL_Driver/Inc/stm32l1xx_ll_usart.h **** 
 369:Drivers/STM32L1xx_HAL_Driver/Inc/stm32l1xx_ll_usart.h **** /**
 370:Drivers/STM32L1xx_HAL_Driver/Inc/stm32l1xx_ll_usart.h ****   * @brief  Compute USARTDIV value according to Peripheral Clock and
 371:Drivers/STM32L1xx_HAL_Driver/Inc/stm32l1xx_ll_usart.h ****   *         expected Baud Rate in 16 bits sampling mode (32 bits value of USARTDIV is returned)
 372:Drivers/STM32L1xx_HAL_Driver/Inc/stm32l1xx_ll_usart.h ****   * @param  __PERIPHCLK__ Peripheral Clock frequency used for USART instance
 373:Drivers/STM32L1xx_HAL_Driver/Inc/stm32l1xx_ll_usart.h ****   * @param  __BAUDRATE__ Baud rate value to achieve
 374:Drivers/STM32L1xx_HAL_Driver/Inc/stm32l1xx_ll_usart.h ****   * @retval USARTDIV value to be used for BRR register filling in OverSampling_16 case
 375:Drivers/STM32L1xx_HAL_Driver/Inc/stm32l1xx_ll_usart.h ****   */
 376:Drivers/STM32L1xx_HAL_Driver/Inc/stm32l1xx_ll_usart.h **** #define __LL_USART_DIV_SAMPLING16_100(__PERIPHCLK__, __BAUDRATE__)     (((__PERIPHCLK__)*25)/(4*(__
 377:Drivers/STM32L1xx_HAL_Driver/Inc/stm32l1xx_ll_usart.h **** #define __LL_USART_DIVMANT_SAMPLING16(__PERIPHCLK__, __BAUDRATE__)     (__LL_USART_DIV_SAMPLING16_1
 378:Drivers/STM32L1xx_HAL_Driver/Inc/stm32l1xx_ll_usart.h **** #define __LL_USART_DIVFRAQ_SAMPLING16(__PERIPHCLK__, __BAUDRATE__)     (((__LL_USART_DIV_SAMPLING16
 379:Drivers/STM32L1xx_HAL_Driver/Inc/stm32l1xx_ll_usart.h **** /* USART BRR = mantissa + overflow + fraction
 380:Drivers/STM32L1xx_HAL_Driver/Inc/stm32l1xx_ll_usart.h ****             = (USART DIVMANT << 4) + (USART DIVFRAQ & 0xF0) + (USART DIVFRAQ & 0x0F) */
 381:Drivers/STM32L1xx_HAL_Driver/Inc/stm32l1xx_ll_usart.h **** #define __LL_USART_DIV_SAMPLING16(__PERIPHCLK__, __BAUDRATE__)            (((__LL_USART_DIVMANT_SAM
 382:Drivers/STM32L1xx_HAL_Driver/Inc/stm32l1xx_ll_usart.h ****                                                                            (__LL_USART_DIVFRAQ_SAMP
 383:Drivers/STM32L1xx_HAL_Driver/Inc/stm32l1xx_ll_usart.h ****                                                                            (__LL_USART_DIVFRAQ_SAMP
 384:Drivers/STM32L1xx_HAL_Driver/Inc/stm32l1xx_ll_usart.h **** 
 385:Drivers/STM32L1xx_HAL_Driver/Inc/stm32l1xx_ll_usart.h **** /**
 386:Drivers/STM32L1xx_HAL_Driver/Inc/stm32l1xx_ll_usart.h ****   * @}
 387:Drivers/STM32L1xx_HAL_Driver/Inc/stm32l1xx_ll_usart.h ****   */
ARM GAS  C:\Users\domen\AppData\Local\Temp\ccbqR6EW.s 			page 34


 388:Drivers/STM32L1xx_HAL_Driver/Inc/stm32l1xx_ll_usart.h **** 
 389:Drivers/STM32L1xx_HAL_Driver/Inc/stm32l1xx_ll_usart.h **** /**
 390:Drivers/STM32L1xx_HAL_Driver/Inc/stm32l1xx_ll_usart.h ****   * @}
 391:Drivers/STM32L1xx_HAL_Driver/Inc/stm32l1xx_ll_usart.h ****   */
 392:Drivers/STM32L1xx_HAL_Driver/Inc/stm32l1xx_ll_usart.h **** 
 393:Drivers/STM32L1xx_HAL_Driver/Inc/stm32l1xx_ll_usart.h **** /* Exported functions --------------------------------------------------------*/
 394:Drivers/STM32L1xx_HAL_Driver/Inc/stm32l1xx_ll_usart.h **** 
 395:Drivers/STM32L1xx_HAL_Driver/Inc/stm32l1xx_ll_usart.h **** /** @defgroup USART_LL_Exported_Functions USART Exported Functions
 396:Drivers/STM32L1xx_HAL_Driver/Inc/stm32l1xx_ll_usart.h ****   * @{
 397:Drivers/STM32L1xx_HAL_Driver/Inc/stm32l1xx_ll_usart.h ****   */
 398:Drivers/STM32L1xx_HAL_Driver/Inc/stm32l1xx_ll_usart.h **** 
 399:Drivers/STM32L1xx_HAL_Driver/Inc/stm32l1xx_ll_usart.h **** /** @defgroup USART_LL_EF_Configuration Configuration functions
 400:Drivers/STM32L1xx_HAL_Driver/Inc/stm32l1xx_ll_usart.h ****   * @{
 401:Drivers/STM32L1xx_HAL_Driver/Inc/stm32l1xx_ll_usart.h ****   */
 402:Drivers/STM32L1xx_HAL_Driver/Inc/stm32l1xx_ll_usart.h **** 
 403:Drivers/STM32L1xx_HAL_Driver/Inc/stm32l1xx_ll_usart.h **** /**
 404:Drivers/STM32L1xx_HAL_Driver/Inc/stm32l1xx_ll_usart.h ****   * @brief  USART Enable
 405:Drivers/STM32L1xx_HAL_Driver/Inc/stm32l1xx_ll_usart.h ****   * @rmtoll CR1          UE            LL_USART_Enable
 406:Drivers/STM32L1xx_HAL_Driver/Inc/stm32l1xx_ll_usart.h ****   * @param  USARTx USART Instance
 407:Drivers/STM32L1xx_HAL_Driver/Inc/stm32l1xx_ll_usart.h ****   * @retval None
 408:Drivers/STM32L1xx_HAL_Driver/Inc/stm32l1xx_ll_usart.h ****   */
 409:Drivers/STM32L1xx_HAL_Driver/Inc/stm32l1xx_ll_usart.h **** __STATIC_INLINE void LL_USART_Enable(USART_TypeDef *USARTx)
 410:Drivers/STM32L1xx_HAL_Driver/Inc/stm32l1xx_ll_usart.h **** {
 411:Drivers/STM32L1xx_HAL_Driver/Inc/stm32l1xx_ll_usart.h ****   SET_BIT(USARTx->CR1, USART_CR1_UE);
 412:Drivers/STM32L1xx_HAL_Driver/Inc/stm32l1xx_ll_usart.h **** }
 413:Drivers/STM32L1xx_HAL_Driver/Inc/stm32l1xx_ll_usart.h **** 
 414:Drivers/STM32L1xx_HAL_Driver/Inc/stm32l1xx_ll_usart.h **** /**
 415:Drivers/STM32L1xx_HAL_Driver/Inc/stm32l1xx_ll_usart.h ****   * @brief  USART Disable (all USART prescalers and outputs are disabled)
 416:Drivers/STM32L1xx_HAL_Driver/Inc/stm32l1xx_ll_usart.h ****   * @note   When USART is disabled, USART prescalers and outputs are stopped immediately,
 417:Drivers/STM32L1xx_HAL_Driver/Inc/stm32l1xx_ll_usart.h ****   *         and current operations are discarded. The configuration of the USART is kept, but all t
 418:Drivers/STM32L1xx_HAL_Driver/Inc/stm32l1xx_ll_usart.h ****   *         flags, in the USARTx_SR are set to their default values.
 419:Drivers/STM32L1xx_HAL_Driver/Inc/stm32l1xx_ll_usart.h ****   * @rmtoll CR1          UE            LL_USART_Disable
 420:Drivers/STM32L1xx_HAL_Driver/Inc/stm32l1xx_ll_usart.h ****   * @param  USARTx USART Instance
 421:Drivers/STM32L1xx_HAL_Driver/Inc/stm32l1xx_ll_usart.h ****   * @retval None
 422:Drivers/STM32L1xx_HAL_Driver/Inc/stm32l1xx_ll_usart.h ****   */
 423:Drivers/STM32L1xx_HAL_Driver/Inc/stm32l1xx_ll_usart.h **** __STATIC_INLINE void LL_USART_Disable(USART_TypeDef *USARTx)
 424:Drivers/STM32L1xx_HAL_Driver/Inc/stm32l1xx_ll_usart.h **** {
 425:Drivers/STM32L1xx_HAL_Driver/Inc/stm32l1xx_ll_usart.h ****   CLEAR_BIT(USARTx->CR1, USART_CR1_UE);
 426:Drivers/STM32L1xx_HAL_Driver/Inc/stm32l1xx_ll_usart.h **** }
 427:Drivers/STM32L1xx_HAL_Driver/Inc/stm32l1xx_ll_usart.h **** 
 428:Drivers/STM32L1xx_HAL_Driver/Inc/stm32l1xx_ll_usart.h **** /**
 429:Drivers/STM32L1xx_HAL_Driver/Inc/stm32l1xx_ll_usart.h ****   * @brief  Indicate if USART is enabled
 430:Drivers/STM32L1xx_HAL_Driver/Inc/stm32l1xx_ll_usart.h ****   * @rmtoll CR1          UE            LL_USART_IsEnabled
 431:Drivers/STM32L1xx_HAL_Driver/Inc/stm32l1xx_ll_usart.h ****   * @param  USARTx USART Instance
 432:Drivers/STM32L1xx_HAL_Driver/Inc/stm32l1xx_ll_usart.h ****   * @retval State of bit (1 or 0).
 433:Drivers/STM32L1xx_HAL_Driver/Inc/stm32l1xx_ll_usart.h ****   */
 434:Drivers/STM32L1xx_HAL_Driver/Inc/stm32l1xx_ll_usart.h **** __STATIC_INLINE uint32_t LL_USART_IsEnabled(USART_TypeDef *USARTx)
 435:Drivers/STM32L1xx_HAL_Driver/Inc/stm32l1xx_ll_usart.h **** {
 436:Drivers/STM32L1xx_HAL_Driver/Inc/stm32l1xx_ll_usart.h ****   return (READ_BIT(USARTx->CR1, USART_CR1_UE) == (USART_CR1_UE));
 437:Drivers/STM32L1xx_HAL_Driver/Inc/stm32l1xx_ll_usart.h **** }
 438:Drivers/STM32L1xx_HAL_Driver/Inc/stm32l1xx_ll_usart.h **** 
 439:Drivers/STM32L1xx_HAL_Driver/Inc/stm32l1xx_ll_usart.h **** /**
 440:Drivers/STM32L1xx_HAL_Driver/Inc/stm32l1xx_ll_usart.h ****   * @brief  Receiver Enable (Receiver is enabled and begins searching for a start bit)
 441:Drivers/STM32L1xx_HAL_Driver/Inc/stm32l1xx_ll_usart.h ****   * @rmtoll CR1          RE            LL_USART_EnableDirectionRx
 442:Drivers/STM32L1xx_HAL_Driver/Inc/stm32l1xx_ll_usart.h ****   * @param  USARTx USART Instance
 443:Drivers/STM32L1xx_HAL_Driver/Inc/stm32l1xx_ll_usart.h ****   * @retval None
 444:Drivers/STM32L1xx_HAL_Driver/Inc/stm32l1xx_ll_usart.h ****   */
ARM GAS  C:\Users\domen\AppData\Local\Temp\ccbqR6EW.s 			page 35


 445:Drivers/STM32L1xx_HAL_Driver/Inc/stm32l1xx_ll_usart.h **** __STATIC_INLINE void LL_USART_EnableDirectionRx(USART_TypeDef *USARTx)
 446:Drivers/STM32L1xx_HAL_Driver/Inc/stm32l1xx_ll_usart.h **** {
 447:Drivers/STM32L1xx_HAL_Driver/Inc/stm32l1xx_ll_usart.h ****   SET_BIT(USARTx->CR1, USART_CR1_RE);
 448:Drivers/STM32L1xx_HAL_Driver/Inc/stm32l1xx_ll_usart.h **** }
 449:Drivers/STM32L1xx_HAL_Driver/Inc/stm32l1xx_ll_usart.h **** 
 450:Drivers/STM32L1xx_HAL_Driver/Inc/stm32l1xx_ll_usart.h **** /**
 451:Drivers/STM32L1xx_HAL_Driver/Inc/stm32l1xx_ll_usart.h ****   * @brief  Receiver Disable
 452:Drivers/STM32L1xx_HAL_Driver/Inc/stm32l1xx_ll_usart.h ****   * @rmtoll CR1          RE            LL_USART_DisableDirectionRx
 453:Drivers/STM32L1xx_HAL_Driver/Inc/stm32l1xx_ll_usart.h ****   * @param  USARTx USART Instance
 454:Drivers/STM32L1xx_HAL_Driver/Inc/stm32l1xx_ll_usart.h ****   * @retval None
 455:Drivers/STM32L1xx_HAL_Driver/Inc/stm32l1xx_ll_usart.h ****   */
 456:Drivers/STM32L1xx_HAL_Driver/Inc/stm32l1xx_ll_usart.h **** __STATIC_INLINE void LL_USART_DisableDirectionRx(USART_TypeDef *USARTx)
 457:Drivers/STM32L1xx_HAL_Driver/Inc/stm32l1xx_ll_usart.h **** {
 458:Drivers/STM32L1xx_HAL_Driver/Inc/stm32l1xx_ll_usart.h ****   CLEAR_BIT(USARTx->CR1, USART_CR1_RE);
 459:Drivers/STM32L1xx_HAL_Driver/Inc/stm32l1xx_ll_usart.h **** }
 460:Drivers/STM32L1xx_HAL_Driver/Inc/stm32l1xx_ll_usart.h **** 
 461:Drivers/STM32L1xx_HAL_Driver/Inc/stm32l1xx_ll_usart.h **** /**
 462:Drivers/STM32L1xx_HAL_Driver/Inc/stm32l1xx_ll_usart.h ****   * @brief  Transmitter Enable
 463:Drivers/STM32L1xx_HAL_Driver/Inc/stm32l1xx_ll_usart.h ****   * @rmtoll CR1          TE            LL_USART_EnableDirectionTx
 464:Drivers/STM32L1xx_HAL_Driver/Inc/stm32l1xx_ll_usart.h ****   * @param  USARTx USART Instance
 465:Drivers/STM32L1xx_HAL_Driver/Inc/stm32l1xx_ll_usart.h ****   * @retval None
 466:Drivers/STM32L1xx_HAL_Driver/Inc/stm32l1xx_ll_usart.h ****   */
 467:Drivers/STM32L1xx_HAL_Driver/Inc/stm32l1xx_ll_usart.h **** __STATIC_INLINE void LL_USART_EnableDirectionTx(USART_TypeDef *USARTx)
 468:Drivers/STM32L1xx_HAL_Driver/Inc/stm32l1xx_ll_usart.h **** {
 469:Drivers/STM32L1xx_HAL_Driver/Inc/stm32l1xx_ll_usart.h ****   SET_BIT(USARTx->CR1, USART_CR1_TE);
 470:Drivers/STM32L1xx_HAL_Driver/Inc/stm32l1xx_ll_usart.h **** }
 471:Drivers/STM32L1xx_HAL_Driver/Inc/stm32l1xx_ll_usart.h **** 
 472:Drivers/STM32L1xx_HAL_Driver/Inc/stm32l1xx_ll_usart.h **** /**
 473:Drivers/STM32L1xx_HAL_Driver/Inc/stm32l1xx_ll_usart.h ****   * @brief  Transmitter Disable
 474:Drivers/STM32L1xx_HAL_Driver/Inc/stm32l1xx_ll_usart.h ****   * @rmtoll CR1          TE            LL_USART_DisableDirectionTx
 475:Drivers/STM32L1xx_HAL_Driver/Inc/stm32l1xx_ll_usart.h ****   * @param  USARTx USART Instance
 476:Drivers/STM32L1xx_HAL_Driver/Inc/stm32l1xx_ll_usart.h ****   * @retval None
 477:Drivers/STM32L1xx_HAL_Driver/Inc/stm32l1xx_ll_usart.h ****   */
 478:Drivers/STM32L1xx_HAL_Driver/Inc/stm32l1xx_ll_usart.h **** __STATIC_INLINE void LL_USART_DisableDirectionTx(USART_TypeDef *USARTx)
 479:Drivers/STM32L1xx_HAL_Driver/Inc/stm32l1xx_ll_usart.h **** {
 480:Drivers/STM32L1xx_HAL_Driver/Inc/stm32l1xx_ll_usart.h ****   CLEAR_BIT(USARTx->CR1, USART_CR1_TE);
 481:Drivers/STM32L1xx_HAL_Driver/Inc/stm32l1xx_ll_usart.h **** }
 482:Drivers/STM32L1xx_HAL_Driver/Inc/stm32l1xx_ll_usart.h **** 
 483:Drivers/STM32L1xx_HAL_Driver/Inc/stm32l1xx_ll_usart.h **** /**
 484:Drivers/STM32L1xx_HAL_Driver/Inc/stm32l1xx_ll_usart.h ****   * @brief  Configure simultaneously enabled/disabled states
 485:Drivers/STM32L1xx_HAL_Driver/Inc/stm32l1xx_ll_usart.h ****   *         of Transmitter and Receiver
 486:Drivers/STM32L1xx_HAL_Driver/Inc/stm32l1xx_ll_usart.h ****   * @rmtoll CR1          RE            LL_USART_SetTransferDirection\n
 487:Drivers/STM32L1xx_HAL_Driver/Inc/stm32l1xx_ll_usart.h ****   *         CR1          TE            LL_USART_SetTransferDirection
 488:Drivers/STM32L1xx_HAL_Driver/Inc/stm32l1xx_ll_usart.h ****   * @param  USARTx USART Instance
 489:Drivers/STM32L1xx_HAL_Driver/Inc/stm32l1xx_ll_usart.h ****   * @param  TransferDirection This parameter can be one of the following values:
 490:Drivers/STM32L1xx_HAL_Driver/Inc/stm32l1xx_ll_usart.h ****   *         @arg @ref LL_USART_DIRECTION_NONE
 491:Drivers/STM32L1xx_HAL_Driver/Inc/stm32l1xx_ll_usart.h ****   *         @arg @ref LL_USART_DIRECTION_RX
 492:Drivers/STM32L1xx_HAL_Driver/Inc/stm32l1xx_ll_usart.h ****   *         @arg @ref LL_USART_DIRECTION_TX
 493:Drivers/STM32L1xx_HAL_Driver/Inc/stm32l1xx_ll_usart.h ****   *         @arg @ref LL_USART_DIRECTION_TX_RX
 494:Drivers/STM32L1xx_HAL_Driver/Inc/stm32l1xx_ll_usart.h ****   * @retval None
 495:Drivers/STM32L1xx_HAL_Driver/Inc/stm32l1xx_ll_usart.h ****   */
 496:Drivers/STM32L1xx_HAL_Driver/Inc/stm32l1xx_ll_usart.h **** __STATIC_INLINE void LL_USART_SetTransferDirection(USART_TypeDef *USARTx, uint32_t TransferDirectio
 497:Drivers/STM32L1xx_HAL_Driver/Inc/stm32l1xx_ll_usart.h **** {
 498:Drivers/STM32L1xx_HAL_Driver/Inc/stm32l1xx_ll_usart.h ****   MODIFY_REG(USARTx->CR1, USART_CR1_RE | USART_CR1_TE, TransferDirection);
 499:Drivers/STM32L1xx_HAL_Driver/Inc/stm32l1xx_ll_usart.h **** }
 500:Drivers/STM32L1xx_HAL_Driver/Inc/stm32l1xx_ll_usart.h **** 
 501:Drivers/STM32L1xx_HAL_Driver/Inc/stm32l1xx_ll_usart.h **** /**
ARM GAS  C:\Users\domen\AppData\Local\Temp\ccbqR6EW.s 			page 36


 502:Drivers/STM32L1xx_HAL_Driver/Inc/stm32l1xx_ll_usart.h ****   * @brief  Return enabled/disabled states of Transmitter and Receiver
 503:Drivers/STM32L1xx_HAL_Driver/Inc/stm32l1xx_ll_usart.h ****   * @rmtoll CR1          RE            LL_USART_GetTransferDirection\n
 504:Drivers/STM32L1xx_HAL_Driver/Inc/stm32l1xx_ll_usart.h ****   *         CR1          TE            LL_USART_GetTransferDirection
 505:Drivers/STM32L1xx_HAL_Driver/Inc/stm32l1xx_ll_usart.h ****   * @param  USARTx USART Instance
 506:Drivers/STM32L1xx_HAL_Driver/Inc/stm32l1xx_ll_usart.h ****   * @retval Returned value can be one of the following values:
 507:Drivers/STM32L1xx_HAL_Driver/Inc/stm32l1xx_ll_usart.h ****   *         @arg @ref LL_USART_DIRECTION_NONE
 508:Drivers/STM32L1xx_HAL_Driver/Inc/stm32l1xx_ll_usart.h ****   *         @arg @ref LL_USART_DIRECTION_RX
 509:Drivers/STM32L1xx_HAL_Driver/Inc/stm32l1xx_ll_usart.h ****   *         @arg @ref LL_USART_DIRECTION_TX
 510:Drivers/STM32L1xx_HAL_Driver/Inc/stm32l1xx_ll_usart.h ****   *         @arg @ref LL_USART_DIRECTION_TX_RX
 511:Drivers/STM32L1xx_HAL_Driver/Inc/stm32l1xx_ll_usart.h ****   */
 512:Drivers/STM32L1xx_HAL_Driver/Inc/stm32l1xx_ll_usart.h **** __STATIC_INLINE uint32_t LL_USART_GetTransferDirection(USART_TypeDef *USARTx)
 513:Drivers/STM32L1xx_HAL_Driver/Inc/stm32l1xx_ll_usart.h **** {
 514:Drivers/STM32L1xx_HAL_Driver/Inc/stm32l1xx_ll_usart.h ****   return (uint32_t)(READ_BIT(USARTx->CR1, USART_CR1_RE | USART_CR1_TE));
 515:Drivers/STM32L1xx_HAL_Driver/Inc/stm32l1xx_ll_usart.h **** }
 516:Drivers/STM32L1xx_HAL_Driver/Inc/stm32l1xx_ll_usart.h **** 
 517:Drivers/STM32L1xx_HAL_Driver/Inc/stm32l1xx_ll_usart.h **** /**
 518:Drivers/STM32L1xx_HAL_Driver/Inc/stm32l1xx_ll_usart.h ****   * @brief  Configure Parity (enabled/disabled and parity mode if enabled).
 519:Drivers/STM32L1xx_HAL_Driver/Inc/stm32l1xx_ll_usart.h ****   * @note   This function selects if hardware parity control (generation and detection) is enabled 
 520:Drivers/STM32L1xx_HAL_Driver/Inc/stm32l1xx_ll_usart.h ****   *         When the parity control is enabled (Odd or Even), computed parity bit is inserted at th
 521:Drivers/STM32L1xx_HAL_Driver/Inc/stm32l1xx_ll_usart.h ****   *         (9th or 8th bit depending on data width) and parity is checked on the received data.
 522:Drivers/STM32L1xx_HAL_Driver/Inc/stm32l1xx_ll_usart.h ****   * @rmtoll CR1          PS            LL_USART_SetParity\n
 523:Drivers/STM32L1xx_HAL_Driver/Inc/stm32l1xx_ll_usart.h ****   *         CR1          PCE           LL_USART_SetParity
 524:Drivers/STM32L1xx_HAL_Driver/Inc/stm32l1xx_ll_usart.h ****   * @param  USARTx USART Instance
 525:Drivers/STM32L1xx_HAL_Driver/Inc/stm32l1xx_ll_usart.h ****   * @param  Parity This parameter can be one of the following values:
 526:Drivers/STM32L1xx_HAL_Driver/Inc/stm32l1xx_ll_usart.h ****   *         @arg @ref LL_USART_PARITY_NONE
 527:Drivers/STM32L1xx_HAL_Driver/Inc/stm32l1xx_ll_usart.h ****   *         @arg @ref LL_USART_PARITY_EVEN
 528:Drivers/STM32L1xx_HAL_Driver/Inc/stm32l1xx_ll_usart.h ****   *         @arg @ref LL_USART_PARITY_ODD
 529:Drivers/STM32L1xx_HAL_Driver/Inc/stm32l1xx_ll_usart.h ****   * @retval None
 530:Drivers/STM32L1xx_HAL_Driver/Inc/stm32l1xx_ll_usart.h ****   */
 531:Drivers/STM32L1xx_HAL_Driver/Inc/stm32l1xx_ll_usart.h **** __STATIC_INLINE void LL_USART_SetParity(USART_TypeDef *USARTx, uint32_t Parity)
 532:Drivers/STM32L1xx_HAL_Driver/Inc/stm32l1xx_ll_usart.h **** {
 533:Drivers/STM32L1xx_HAL_Driver/Inc/stm32l1xx_ll_usart.h ****   MODIFY_REG(USARTx->CR1, USART_CR1_PS | USART_CR1_PCE, Parity);
 534:Drivers/STM32L1xx_HAL_Driver/Inc/stm32l1xx_ll_usart.h **** }
 535:Drivers/STM32L1xx_HAL_Driver/Inc/stm32l1xx_ll_usart.h **** 
 536:Drivers/STM32L1xx_HAL_Driver/Inc/stm32l1xx_ll_usart.h **** /**
 537:Drivers/STM32L1xx_HAL_Driver/Inc/stm32l1xx_ll_usart.h ****   * @brief  Return Parity configuration (enabled/disabled and parity mode if enabled)
 538:Drivers/STM32L1xx_HAL_Driver/Inc/stm32l1xx_ll_usart.h ****   * @rmtoll CR1          PS            LL_USART_GetParity\n
 539:Drivers/STM32L1xx_HAL_Driver/Inc/stm32l1xx_ll_usart.h ****   *         CR1          PCE           LL_USART_GetParity
 540:Drivers/STM32L1xx_HAL_Driver/Inc/stm32l1xx_ll_usart.h ****   * @param  USARTx USART Instance
 541:Drivers/STM32L1xx_HAL_Driver/Inc/stm32l1xx_ll_usart.h ****   * @retval Returned value can be one of the following values:
 542:Drivers/STM32L1xx_HAL_Driver/Inc/stm32l1xx_ll_usart.h ****   *         @arg @ref LL_USART_PARITY_NONE
 543:Drivers/STM32L1xx_HAL_Driver/Inc/stm32l1xx_ll_usart.h ****   *         @arg @ref LL_USART_PARITY_EVEN
 544:Drivers/STM32L1xx_HAL_Driver/Inc/stm32l1xx_ll_usart.h ****   *         @arg @ref LL_USART_PARITY_ODD
 545:Drivers/STM32L1xx_HAL_Driver/Inc/stm32l1xx_ll_usart.h ****   */
 546:Drivers/STM32L1xx_HAL_Driver/Inc/stm32l1xx_ll_usart.h **** __STATIC_INLINE uint32_t LL_USART_GetParity(USART_TypeDef *USARTx)
 547:Drivers/STM32L1xx_HAL_Driver/Inc/stm32l1xx_ll_usart.h **** {
 548:Drivers/STM32L1xx_HAL_Driver/Inc/stm32l1xx_ll_usart.h ****   return (uint32_t)(READ_BIT(USARTx->CR1, USART_CR1_PS | USART_CR1_PCE));
 549:Drivers/STM32L1xx_HAL_Driver/Inc/stm32l1xx_ll_usart.h **** }
 550:Drivers/STM32L1xx_HAL_Driver/Inc/stm32l1xx_ll_usart.h **** 
 551:Drivers/STM32L1xx_HAL_Driver/Inc/stm32l1xx_ll_usart.h **** /**
 552:Drivers/STM32L1xx_HAL_Driver/Inc/stm32l1xx_ll_usart.h ****   * @brief  Set Receiver Wake Up method from Mute mode.
 553:Drivers/STM32L1xx_HAL_Driver/Inc/stm32l1xx_ll_usart.h ****   * @rmtoll CR1          WAKE          LL_USART_SetWakeUpMethod
 554:Drivers/STM32L1xx_HAL_Driver/Inc/stm32l1xx_ll_usart.h ****   * @param  USARTx USART Instance
 555:Drivers/STM32L1xx_HAL_Driver/Inc/stm32l1xx_ll_usart.h ****   * @param  Method This parameter can be one of the following values:
 556:Drivers/STM32L1xx_HAL_Driver/Inc/stm32l1xx_ll_usart.h ****   *         @arg @ref LL_USART_WAKEUP_IDLELINE
 557:Drivers/STM32L1xx_HAL_Driver/Inc/stm32l1xx_ll_usart.h ****   *         @arg @ref LL_USART_WAKEUP_ADDRESSMARK
 558:Drivers/STM32L1xx_HAL_Driver/Inc/stm32l1xx_ll_usart.h ****   * @retval None
ARM GAS  C:\Users\domen\AppData\Local\Temp\ccbqR6EW.s 			page 37


 559:Drivers/STM32L1xx_HAL_Driver/Inc/stm32l1xx_ll_usart.h ****   */
 560:Drivers/STM32L1xx_HAL_Driver/Inc/stm32l1xx_ll_usart.h **** __STATIC_INLINE void LL_USART_SetWakeUpMethod(USART_TypeDef *USARTx, uint32_t Method)
 561:Drivers/STM32L1xx_HAL_Driver/Inc/stm32l1xx_ll_usart.h **** {
 562:Drivers/STM32L1xx_HAL_Driver/Inc/stm32l1xx_ll_usart.h ****   MODIFY_REG(USARTx->CR1, USART_CR1_WAKE, Method);
 563:Drivers/STM32L1xx_HAL_Driver/Inc/stm32l1xx_ll_usart.h **** }
 564:Drivers/STM32L1xx_HAL_Driver/Inc/stm32l1xx_ll_usart.h **** 
 565:Drivers/STM32L1xx_HAL_Driver/Inc/stm32l1xx_ll_usart.h **** /**
 566:Drivers/STM32L1xx_HAL_Driver/Inc/stm32l1xx_ll_usart.h ****   * @brief  Return Receiver Wake Up method from Mute mode
 567:Drivers/STM32L1xx_HAL_Driver/Inc/stm32l1xx_ll_usart.h ****   * @rmtoll CR1          WAKE          LL_USART_GetWakeUpMethod
 568:Drivers/STM32L1xx_HAL_Driver/Inc/stm32l1xx_ll_usart.h ****   * @param  USARTx USART Instance
 569:Drivers/STM32L1xx_HAL_Driver/Inc/stm32l1xx_ll_usart.h ****   * @retval Returned value can be one of the following values:
 570:Drivers/STM32L1xx_HAL_Driver/Inc/stm32l1xx_ll_usart.h ****   *         @arg @ref LL_USART_WAKEUP_IDLELINE
 571:Drivers/STM32L1xx_HAL_Driver/Inc/stm32l1xx_ll_usart.h ****   *         @arg @ref LL_USART_WAKEUP_ADDRESSMARK
 572:Drivers/STM32L1xx_HAL_Driver/Inc/stm32l1xx_ll_usart.h ****   */
 573:Drivers/STM32L1xx_HAL_Driver/Inc/stm32l1xx_ll_usart.h **** __STATIC_INLINE uint32_t LL_USART_GetWakeUpMethod(USART_TypeDef *USARTx)
 574:Drivers/STM32L1xx_HAL_Driver/Inc/stm32l1xx_ll_usart.h **** {
 575:Drivers/STM32L1xx_HAL_Driver/Inc/stm32l1xx_ll_usart.h ****   return (uint32_t)(READ_BIT(USARTx->CR1, USART_CR1_WAKE));
 576:Drivers/STM32L1xx_HAL_Driver/Inc/stm32l1xx_ll_usart.h **** }
 577:Drivers/STM32L1xx_HAL_Driver/Inc/stm32l1xx_ll_usart.h **** 
 578:Drivers/STM32L1xx_HAL_Driver/Inc/stm32l1xx_ll_usart.h **** /**
 579:Drivers/STM32L1xx_HAL_Driver/Inc/stm32l1xx_ll_usart.h ****   * @brief  Set Word length (i.e. nb of data bits, excluding start and stop bits)
 580:Drivers/STM32L1xx_HAL_Driver/Inc/stm32l1xx_ll_usart.h ****   * @rmtoll CR1          M             LL_USART_SetDataWidth
 581:Drivers/STM32L1xx_HAL_Driver/Inc/stm32l1xx_ll_usart.h ****   * @param  USARTx USART Instance
 582:Drivers/STM32L1xx_HAL_Driver/Inc/stm32l1xx_ll_usart.h ****   * @param  DataWidth This parameter can be one of the following values:
 583:Drivers/STM32L1xx_HAL_Driver/Inc/stm32l1xx_ll_usart.h ****   *         @arg @ref LL_USART_DATAWIDTH_8B
 584:Drivers/STM32L1xx_HAL_Driver/Inc/stm32l1xx_ll_usart.h ****   *         @arg @ref LL_USART_DATAWIDTH_9B
 585:Drivers/STM32L1xx_HAL_Driver/Inc/stm32l1xx_ll_usart.h ****   * @retval None
 586:Drivers/STM32L1xx_HAL_Driver/Inc/stm32l1xx_ll_usart.h ****   */
 587:Drivers/STM32L1xx_HAL_Driver/Inc/stm32l1xx_ll_usart.h **** __STATIC_INLINE void LL_USART_SetDataWidth(USART_TypeDef *USARTx, uint32_t DataWidth)
 588:Drivers/STM32L1xx_HAL_Driver/Inc/stm32l1xx_ll_usart.h **** {
 589:Drivers/STM32L1xx_HAL_Driver/Inc/stm32l1xx_ll_usart.h ****   MODIFY_REG(USARTx->CR1, USART_CR1_M, DataWidth);
 590:Drivers/STM32L1xx_HAL_Driver/Inc/stm32l1xx_ll_usart.h **** }
 591:Drivers/STM32L1xx_HAL_Driver/Inc/stm32l1xx_ll_usart.h **** 
 592:Drivers/STM32L1xx_HAL_Driver/Inc/stm32l1xx_ll_usart.h **** /**
 593:Drivers/STM32L1xx_HAL_Driver/Inc/stm32l1xx_ll_usart.h ****   * @brief  Return Word length (i.e. nb of data bits, excluding start and stop bits)
 594:Drivers/STM32L1xx_HAL_Driver/Inc/stm32l1xx_ll_usart.h ****   * @rmtoll CR1          M             LL_USART_GetDataWidth
 595:Drivers/STM32L1xx_HAL_Driver/Inc/stm32l1xx_ll_usart.h ****   * @param  USARTx USART Instance
 596:Drivers/STM32L1xx_HAL_Driver/Inc/stm32l1xx_ll_usart.h ****   * @retval Returned value can be one of the following values:
 597:Drivers/STM32L1xx_HAL_Driver/Inc/stm32l1xx_ll_usart.h ****   *         @arg @ref LL_USART_DATAWIDTH_8B
 598:Drivers/STM32L1xx_HAL_Driver/Inc/stm32l1xx_ll_usart.h ****   *         @arg @ref LL_USART_DATAWIDTH_9B
 599:Drivers/STM32L1xx_HAL_Driver/Inc/stm32l1xx_ll_usart.h ****   */
 600:Drivers/STM32L1xx_HAL_Driver/Inc/stm32l1xx_ll_usart.h **** __STATIC_INLINE uint32_t LL_USART_GetDataWidth(USART_TypeDef *USARTx)
 601:Drivers/STM32L1xx_HAL_Driver/Inc/stm32l1xx_ll_usart.h **** {
 602:Drivers/STM32L1xx_HAL_Driver/Inc/stm32l1xx_ll_usart.h ****   return (uint32_t)(READ_BIT(USARTx->CR1, USART_CR1_M));
 603:Drivers/STM32L1xx_HAL_Driver/Inc/stm32l1xx_ll_usart.h **** }
 604:Drivers/STM32L1xx_HAL_Driver/Inc/stm32l1xx_ll_usart.h **** 
 605:Drivers/STM32L1xx_HAL_Driver/Inc/stm32l1xx_ll_usart.h **** /**
 606:Drivers/STM32L1xx_HAL_Driver/Inc/stm32l1xx_ll_usart.h ****   * @brief  Set Oversampling to 8-bit or 16-bit mode
 607:Drivers/STM32L1xx_HAL_Driver/Inc/stm32l1xx_ll_usart.h ****   * @rmtoll CR1          OVER8         LL_USART_SetOverSampling
 608:Drivers/STM32L1xx_HAL_Driver/Inc/stm32l1xx_ll_usart.h ****   * @param  USARTx USART Instance
 609:Drivers/STM32L1xx_HAL_Driver/Inc/stm32l1xx_ll_usart.h ****   * @param  OverSampling This parameter can be one of the following values:
 610:Drivers/STM32L1xx_HAL_Driver/Inc/stm32l1xx_ll_usart.h ****   *         @arg @ref LL_USART_OVERSAMPLING_16
 611:Drivers/STM32L1xx_HAL_Driver/Inc/stm32l1xx_ll_usart.h ****   *         @arg @ref LL_USART_OVERSAMPLING_8
 612:Drivers/STM32L1xx_HAL_Driver/Inc/stm32l1xx_ll_usart.h ****   * @retval None
 613:Drivers/STM32L1xx_HAL_Driver/Inc/stm32l1xx_ll_usart.h ****   */
 614:Drivers/STM32L1xx_HAL_Driver/Inc/stm32l1xx_ll_usart.h **** __STATIC_INLINE void LL_USART_SetOverSampling(USART_TypeDef *USARTx, uint32_t OverSampling)
 615:Drivers/STM32L1xx_HAL_Driver/Inc/stm32l1xx_ll_usart.h **** {
ARM GAS  C:\Users\domen\AppData\Local\Temp\ccbqR6EW.s 			page 38


 616:Drivers/STM32L1xx_HAL_Driver/Inc/stm32l1xx_ll_usart.h ****   MODIFY_REG(USARTx->CR1, USART_CR1_OVER8, OverSampling);
 617:Drivers/STM32L1xx_HAL_Driver/Inc/stm32l1xx_ll_usart.h **** }
 618:Drivers/STM32L1xx_HAL_Driver/Inc/stm32l1xx_ll_usart.h **** 
 619:Drivers/STM32L1xx_HAL_Driver/Inc/stm32l1xx_ll_usart.h **** /**
 620:Drivers/STM32L1xx_HAL_Driver/Inc/stm32l1xx_ll_usart.h ****   * @brief  Return Oversampling mode
 621:Drivers/STM32L1xx_HAL_Driver/Inc/stm32l1xx_ll_usart.h ****   * @rmtoll CR1          OVER8         LL_USART_GetOverSampling
 622:Drivers/STM32L1xx_HAL_Driver/Inc/stm32l1xx_ll_usart.h ****   * @param  USARTx USART Instance
 623:Drivers/STM32L1xx_HAL_Driver/Inc/stm32l1xx_ll_usart.h ****   * @retval Returned value can be one of the following values:
 624:Drivers/STM32L1xx_HAL_Driver/Inc/stm32l1xx_ll_usart.h ****   *         @arg @ref LL_USART_OVERSAMPLING_16
 625:Drivers/STM32L1xx_HAL_Driver/Inc/stm32l1xx_ll_usart.h ****   *         @arg @ref LL_USART_OVERSAMPLING_8
 626:Drivers/STM32L1xx_HAL_Driver/Inc/stm32l1xx_ll_usart.h ****   */
 627:Drivers/STM32L1xx_HAL_Driver/Inc/stm32l1xx_ll_usart.h **** __STATIC_INLINE uint32_t LL_USART_GetOverSampling(USART_TypeDef *USARTx)
 628:Drivers/STM32L1xx_HAL_Driver/Inc/stm32l1xx_ll_usart.h **** {
 629:Drivers/STM32L1xx_HAL_Driver/Inc/stm32l1xx_ll_usart.h ****   return (uint32_t)(READ_BIT(USARTx->CR1, USART_CR1_OVER8));
 630:Drivers/STM32L1xx_HAL_Driver/Inc/stm32l1xx_ll_usart.h **** }
 631:Drivers/STM32L1xx_HAL_Driver/Inc/stm32l1xx_ll_usart.h **** 
 632:Drivers/STM32L1xx_HAL_Driver/Inc/stm32l1xx_ll_usart.h **** /**
 633:Drivers/STM32L1xx_HAL_Driver/Inc/stm32l1xx_ll_usart.h ****   * @brief  Configure if Clock pulse of the last data bit is output to the SCLK pin or not
 634:Drivers/STM32L1xx_HAL_Driver/Inc/stm32l1xx_ll_usart.h ****   * @note   Macro @ref IS_USART_INSTANCE(USARTx) can be used to check whether or not
 635:Drivers/STM32L1xx_HAL_Driver/Inc/stm32l1xx_ll_usart.h ****   *         Synchronous mode is supported by the USARTx instance.
 636:Drivers/STM32L1xx_HAL_Driver/Inc/stm32l1xx_ll_usart.h ****   * @rmtoll CR2          LBCL          LL_USART_SetLastClkPulseOutput
 637:Drivers/STM32L1xx_HAL_Driver/Inc/stm32l1xx_ll_usart.h ****   * @param  USARTx USART Instance
 638:Drivers/STM32L1xx_HAL_Driver/Inc/stm32l1xx_ll_usart.h ****   * @param  LastBitClockPulse This parameter can be one of the following values:
 639:Drivers/STM32L1xx_HAL_Driver/Inc/stm32l1xx_ll_usart.h ****   *         @arg @ref LL_USART_LASTCLKPULSE_NO_OUTPUT
 640:Drivers/STM32L1xx_HAL_Driver/Inc/stm32l1xx_ll_usart.h ****   *         @arg @ref LL_USART_LASTCLKPULSE_OUTPUT
 641:Drivers/STM32L1xx_HAL_Driver/Inc/stm32l1xx_ll_usart.h ****   * @retval None
 642:Drivers/STM32L1xx_HAL_Driver/Inc/stm32l1xx_ll_usart.h ****   */
 643:Drivers/STM32L1xx_HAL_Driver/Inc/stm32l1xx_ll_usart.h **** __STATIC_INLINE void LL_USART_SetLastClkPulseOutput(USART_TypeDef *USARTx, uint32_t LastBitClockPul
 644:Drivers/STM32L1xx_HAL_Driver/Inc/stm32l1xx_ll_usart.h **** {
 645:Drivers/STM32L1xx_HAL_Driver/Inc/stm32l1xx_ll_usart.h ****   MODIFY_REG(USARTx->CR2, USART_CR2_LBCL, LastBitClockPulse);
 646:Drivers/STM32L1xx_HAL_Driver/Inc/stm32l1xx_ll_usart.h **** }
 647:Drivers/STM32L1xx_HAL_Driver/Inc/stm32l1xx_ll_usart.h **** 
 648:Drivers/STM32L1xx_HAL_Driver/Inc/stm32l1xx_ll_usart.h **** /**
 649:Drivers/STM32L1xx_HAL_Driver/Inc/stm32l1xx_ll_usart.h ****   * @brief  Retrieve Clock pulse of the last data bit output configuration
 650:Drivers/STM32L1xx_HAL_Driver/Inc/stm32l1xx_ll_usart.h ****   *         (Last bit Clock pulse output to the SCLK pin or not)
 651:Drivers/STM32L1xx_HAL_Driver/Inc/stm32l1xx_ll_usart.h ****   * @note   Macro @ref IS_USART_INSTANCE(USARTx) can be used to check whether or not
 652:Drivers/STM32L1xx_HAL_Driver/Inc/stm32l1xx_ll_usart.h ****   *         Synchronous mode is supported by the USARTx instance.
 653:Drivers/STM32L1xx_HAL_Driver/Inc/stm32l1xx_ll_usart.h ****   * @rmtoll CR2          LBCL          LL_USART_GetLastClkPulseOutput
 654:Drivers/STM32L1xx_HAL_Driver/Inc/stm32l1xx_ll_usart.h ****   * @param  USARTx USART Instance
 655:Drivers/STM32L1xx_HAL_Driver/Inc/stm32l1xx_ll_usart.h ****   * @retval Returned value can be one of the following values:
 656:Drivers/STM32L1xx_HAL_Driver/Inc/stm32l1xx_ll_usart.h ****   *         @arg @ref LL_USART_LASTCLKPULSE_NO_OUTPUT
 657:Drivers/STM32L1xx_HAL_Driver/Inc/stm32l1xx_ll_usart.h ****   *         @arg @ref LL_USART_LASTCLKPULSE_OUTPUT
 658:Drivers/STM32L1xx_HAL_Driver/Inc/stm32l1xx_ll_usart.h ****   */
 659:Drivers/STM32L1xx_HAL_Driver/Inc/stm32l1xx_ll_usart.h **** __STATIC_INLINE uint32_t LL_USART_GetLastClkPulseOutput(USART_TypeDef *USARTx)
 660:Drivers/STM32L1xx_HAL_Driver/Inc/stm32l1xx_ll_usart.h **** {
 661:Drivers/STM32L1xx_HAL_Driver/Inc/stm32l1xx_ll_usart.h ****   return (uint32_t)(READ_BIT(USARTx->CR2, USART_CR2_LBCL));
 662:Drivers/STM32L1xx_HAL_Driver/Inc/stm32l1xx_ll_usart.h **** }
 663:Drivers/STM32L1xx_HAL_Driver/Inc/stm32l1xx_ll_usart.h **** 
 664:Drivers/STM32L1xx_HAL_Driver/Inc/stm32l1xx_ll_usart.h **** /**
 665:Drivers/STM32L1xx_HAL_Driver/Inc/stm32l1xx_ll_usart.h ****   * @brief  Select the phase of the clock output on the SCLK pin in synchronous mode
 666:Drivers/STM32L1xx_HAL_Driver/Inc/stm32l1xx_ll_usart.h ****   * @note   Macro @ref IS_USART_INSTANCE(USARTx) can be used to check whether or not
 667:Drivers/STM32L1xx_HAL_Driver/Inc/stm32l1xx_ll_usart.h ****   *         Synchronous mode is supported by the USARTx instance.
 668:Drivers/STM32L1xx_HAL_Driver/Inc/stm32l1xx_ll_usart.h ****   * @rmtoll CR2          CPHA          LL_USART_SetClockPhase
 669:Drivers/STM32L1xx_HAL_Driver/Inc/stm32l1xx_ll_usart.h ****   * @param  USARTx USART Instance
 670:Drivers/STM32L1xx_HAL_Driver/Inc/stm32l1xx_ll_usart.h ****   * @param  ClockPhase This parameter can be one of the following values:
 671:Drivers/STM32L1xx_HAL_Driver/Inc/stm32l1xx_ll_usart.h ****   *         @arg @ref LL_USART_PHASE_1EDGE
 672:Drivers/STM32L1xx_HAL_Driver/Inc/stm32l1xx_ll_usart.h ****   *         @arg @ref LL_USART_PHASE_2EDGE
ARM GAS  C:\Users\domen\AppData\Local\Temp\ccbqR6EW.s 			page 39


 673:Drivers/STM32L1xx_HAL_Driver/Inc/stm32l1xx_ll_usart.h ****   * @retval None
 674:Drivers/STM32L1xx_HAL_Driver/Inc/stm32l1xx_ll_usart.h ****   */
 675:Drivers/STM32L1xx_HAL_Driver/Inc/stm32l1xx_ll_usart.h **** __STATIC_INLINE void LL_USART_SetClockPhase(USART_TypeDef *USARTx, uint32_t ClockPhase)
 676:Drivers/STM32L1xx_HAL_Driver/Inc/stm32l1xx_ll_usart.h **** {
 677:Drivers/STM32L1xx_HAL_Driver/Inc/stm32l1xx_ll_usart.h ****   MODIFY_REG(USARTx->CR2, USART_CR2_CPHA, ClockPhase);
 678:Drivers/STM32L1xx_HAL_Driver/Inc/stm32l1xx_ll_usart.h **** }
 679:Drivers/STM32L1xx_HAL_Driver/Inc/stm32l1xx_ll_usart.h **** 
 680:Drivers/STM32L1xx_HAL_Driver/Inc/stm32l1xx_ll_usart.h **** /**
 681:Drivers/STM32L1xx_HAL_Driver/Inc/stm32l1xx_ll_usart.h ****   * @brief  Return phase of the clock output on the SCLK pin in synchronous mode
 682:Drivers/STM32L1xx_HAL_Driver/Inc/stm32l1xx_ll_usart.h ****   * @note   Macro @ref IS_USART_INSTANCE(USARTx) can be used to check whether or not
 683:Drivers/STM32L1xx_HAL_Driver/Inc/stm32l1xx_ll_usart.h ****   *         Synchronous mode is supported by the USARTx instance.
 684:Drivers/STM32L1xx_HAL_Driver/Inc/stm32l1xx_ll_usart.h ****   * @rmtoll CR2          CPHA          LL_USART_GetClockPhase
 685:Drivers/STM32L1xx_HAL_Driver/Inc/stm32l1xx_ll_usart.h ****   * @param  USARTx USART Instance
 686:Drivers/STM32L1xx_HAL_Driver/Inc/stm32l1xx_ll_usart.h ****   * @retval Returned value can be one of the following values:
 687:Drivers/STM32L1xx_HAL_Driver/Inc/stm32l1xx_ll_usart.h ****   *         @arg @ref LL_USART_PHASE_1EDGE
 688:Drivers/STM32L1xx_HAL_Driver/Inc/stm32l1xx_ll_usart.h ****   *         @arg @ref LL_USART_PHASE_2EDGE
 689:Drivers/STM32L1xx_HAL_Driver/Inc/stm32l1xx_ll_usart.h ****   */
 690:Drivers/STM32L1xx_HAL_Driver/Inc/stm32l1xx_ll_usart.h **** __STATIC_INLINE uint32_t LL_USART_GetClockPhase(USART_TypeDef *USARTx)
 691:Drivers/STM32L1xx_HAL_Driver/Inc/stm32l1xx_ll_usart.h **** {
 692:Drivers/STM32L1xx_HAL_Driver/Inc/stm32l1xx_ll_usart.h ****   return (uint32_t)(READ_BIT(USARTx->CR2, USART_CR2_CPHA));
 693:Drivers/STM32L1xx_HAL_Driver/Inc/stm32l1xx_ll_usart.h **** }
 694:Drivers/STM32L1xx_HAL_Driver/Inc/stm32l1xx_ll_usart.h **** 
 695:Drivers/STM32L1xx_HAL_Driver/Inc/stm32l1xx_ll_usart.h **** /**
 696:Drivers/STM32L1xx_HAL_Driver/Inc/stm32l1xx_ll_usart.h ****   * @brief  Select the polarity of the clock output on the SCLK pin in synchronous mode
 697:Drivers/STM32L1xx_HAL_Driver/Inc/stm32l1xx_ll_usart.h ****   * @note   Macro @ref IS_USART_INSTANCE(USARTx) can be used to check whether or not
 698:Drivers/STM32L1xx_HAL_Driver/Inc/stm32l1xx_ll_usart.h ****   *         Synchronous mode is supported by the USARTx instance.
 699:Drivers/STM32L1xx_HAL_Driver/Inc/stm32l1xx_ll_usart.h ****   * @rmtoll CR2          CPOL          LL_USART_SetClockPolarity
 700:Drivers/STM32L1xx_HAL_Driver/Inc/stm32l1xx_ll_usart.h ****   * @param  USARTx USART Instance
 701:Drivers/STM32L1xx_HAL_Driver/Inc/stm32l1xx_ll_usart.h ****   * @param  ClockPolarity This parameter can be one of the following values:
 702:Drivers/STM32L1xx_HAL_Driver/Inc/stm32l1xx_ll_usart.h ****   *         @arg @ref LL_USART_POLARITY_LOW
 703:Drivers/STM32L1xx_HAL_Driver/Inc/stm32l1xx_ll_usart.h ****   *         @arg @ref LL_USART_POLARITY_HIGH
 704:Drivers/STM32L1xx_HAL_Driver/Inc/stm32l1xx_ll_usart.h ****   * @retval None
 705:Drivers/STM32L1xx_HAL_Driver/Inc/stm32l1xx_ll_usart.h ****   */
 706:Drivers/STM32L1xx_HAL_Driver/Inc/stm32l1xx_ll_usart.h **** __STATIC_INLINE void LL_USART_SetClockPolarity(USART_TypeDef *USARTx, uint32_t ClockPolarity)
 707:Drivers/STM32L1xx_HAL_Driver/Inc/stm32l1xx_ll_usart.h **** {
 708:Drivers/STM32L1xx_HAL_Driver/Inc/stm32l1xx_ll_usart.h ****   MODIFY_REG(USARTx->CR2, USART_CR2_CPOL, ClockPolarity);
 709:Drivers/STM32L1xx_HAL_Driver/Inc/stm32l1xx_ll_usart.h **** }
 710:Drivers/STM32L1xx_HAL_Driver/Inc/stm32l1xx_ll_usart.h **** 
 711:Drivers/STM32L1xx_HAL_Driver/Inc/stm32l1xx_ll_usart.h **** /**
 712:Drivers/STM32L1xx_HAL_Driver/Inc/stm32l1xx_ll_usart.h ****   * @brief  Return polarity of the clock output on the SCLK pin in synchronous mode
 713:Drivers/STM32L1xx_HAL_Driver/Inc/stm32l1xx_ll_usart.h ****   * @note   Macro @ref IS_USART_INSTANCE(USARTx) can be used to check whether or not
 714:Drivers/STM32L1xx_HAL_Driver/Inc/stm32l1xx_ll_usart.h ****   *         Synchronous mode is supported by the USARTx instance.
 715:Drivers/STM32L1xx_HAL_Driver/Inc/stm32l1xx_ll_usart.h ****   * @rmtoll CR2          CPOL          LL_USART_GetClockPolarity
 716:Drivers/STM32L1xx_HAL_Driver/Inc/stm32l1xx_ll_usart.h ****   * @param  USARTx USART Instance
 717:Drivers/STM32L1xx_HAL_Driver/Inc/stm32l1xx_ll_usart.h ****   * @retval Returned value can be one of the following values:
 718:Drivers/STM32L1xx_HAL_Driver/Inc/stm32l1xx_ll_usart.h ****   *         @arg @ref LL_USART_POLARITY_LOW
 719:Drivers/STM32L1xx_HAL_Driver/Inc/stm32l1xx_ll_usart.h ****   *         @arg @ref LL_USART_POLARITY_HIGH
 720:Drivers/STM32L1xx_HAL_Driver/Inc/stm32l1xx_ll_usart.h ****   */
 721:Drivers/STM32L1xx_HAL_Driver/Inc/stm32l1xx_ll_usart.h **** __STATIC_INLINE uint32_t LL_USART_GetClockPolarity(USART_TypeDef *USARTx)
 722:Drivers/STM32L1xx_HAL_Driver/Inc/stm32l1xx_ll_usart.h **** {
 723:Drivers/STM32L1xx_HAL_Driver/Inc/stm32l1xx_ll_usart.h ****   return (uint32_t)(READ_BIT(USARTx->CR2, USART_CR2_CPOL));
 724:Drivers/STM32L1xx_HAL_Driver/Inc/stm32l1xx_ll_usart.h **** }
 725:Drivers/STM32L1xx_HAL_Driver/Inc/stm32l1xx_ll_usart.h **** 
 726:Drivers/STM32L1xx_HAL_Driver/Inc/stm32l1xx_ll_usart.h **** /**
 727:Drivers/STM32L1xx_HAL_Driver/Inc/stm32l1xx_ll_usart.h ****   * @brief  Configure Clock signal format (Phase Polarity and choice about output of last bit clock
 728:Drivers/STM32L1xx_HAL_Driver/Inc/stm32l1xx_ll_usart.h ****   * @note   Macro @ref IS_USART_INSTANCE(USARTx) can be used to check whether or not
 729:Drivers/STM32L1xx_HAL_Driver/Inc/stm32l1xx_ll_usart.h ****   *         Synchronous mode is supported by the USARTx instance.
ARM GAS  C:\Users\domen\AppData\Local\Temp\ccbqR6EW.s 			page 40


 730:Drivers/STM32L1xx_HAL_Driver/Inc/stm32l1xx_ll_usart.h ****   * @note   Call of this function is equivalent to following function call sequence :
 731:Drivers/STM32L1xx_HAL_Driver/Inc/stm32l1xx_ll_usart.h ****   *         - Clock Phase configuration using @ref LL_USART_SetClockPhase() function
 732:Drivers/STM32L1xx_HAL_Driver/Inc/stm32l1xx_ll_usart.h ****   *         - Clock Polarity configuration using @ref LL_USART_SetClockPolarity() function
 733:Drivers/STM32L1xx_HAL_Driver/Inc/stm32l1xx_ll_usart.h ****   *         - Output of Last bit Clock pulse configuration using @ref LL_USART_SetLastClkPulseOutpu
 734:Drivers/STM32L1xx_HAL_Driver/Inc/stm32l1xx_ll_usart.h ****   * @rmtoll CR2          CPHA          LL_USART_ConfigClock\n
 735:Drivers/STM32L1xx_HAL_Driver/Inc/stm32l1xx_ll_usart.h ****   *         CR2          CPOL          LL_USART_ConfigClock\n
 736:Drivers/STM32L1xx_HAL_Driver/Inc/stm32l1xx_ll_usart.h ****   *         CR2          LBCL          LL_USART_ConfigClock
 737:Drivers/STM32L1xx_HAL_Driver/Inc/stm32l1xx_ll_usart.h ****   * @param  USARTx USART Instance
 738:Drivers/STM32L1xx_HAL_Driver/Inc/stm32l1xx_ll_usart.h ****   * @param  Phase This parameter can be one of the following values:
 739:Drivers/STM32L1xx_HAL_Driver/Inc/stm32l1xx_ll_usart.h ****   *         @arg @ref LL_USART_PHASE_1EDGE
 740:Drivers/STM32L1xx_HAL_Driver/Inc/stm32l1xx_ll_usart.h ****   *         @arg @ref LL_USART_PHASE_2EDGE
 741:Drivers/STM32L1xx_HAL_Driver/Inc/stm32l1xx_ll_usart.h ****   * @param  Polarity This parameter can be one of the following values:
 742:Drivers/STM32L1xx_HAL_Driver/Inc/stm32l1xx_ll_usart.h ****   *         @arg @ref LL_USART_POLARITY_LOW
 743:Drivers/STM32L1xx_HAL_Driver/Inc/stm32l1xx_ll_usart.h ****   *         @arg @ref LL_USART_POLARITY_HIGH
 744:Drivers/STM32L1xx_HAL_Driver/Inc/stm32l1xx_ll_usart.h ****   * @param  LBCPOutput This parameter can be one of the following values:
 745:Drivers/STM32L1xx_HAL_Driver/Inc/stm32l1xx_ll_usart.h ****   *         @arg @ref LL_USART_LASTCLKPULSE_NO_OUTPUT
 746:Drivers/STM32L1xx_HAL_Driver/Inc/stm32l1xx_ll_usart.h ****   *         @arg @ref LL_USART_LASTCLKPULSE_OUTPUT
 747:Drivers/STM32L1xx_HAL_Driver/Inc/stm32l1xx_ll_usart.h ****   * @retval None
 748:Drivers/STM32L1xx_HAL_Driver/Inc/stm32l1xx_ll_usart.h ****   */
 749:Drivers/STM32L1xx_HAL_Driver/Inc/stm32l1xx_ll_usart.h **** __STATIC_INLINE void LL_USART_ConfigClock(USART_TypeDef *USARTx, uint32_t Phase, uint32_t Polarity,
 750:Drivers/STM32L1xx_HAL_Driver/Inc/stm32l1xx_ll_usart.h **** {
 751:Drivers/STM32L1xx_HAL_Driver/Inc/stm32l1xx_ll_usart.h ****   MODIFY_REG(USARTx->CR2, USART_CR2_CPHA | USART_CR2_CPOL | USART_CR2_LBCL, Phase | Polarity | LBCP
 752:Drivers/STM32L1xx_HAL_Driver/Inc/stm32l1xx_ll_usart.h **** }
 753:Drivers/STM32L1xx_HAL_Driver/Inc/stm32l1xx_ll_usart.h **** 
 754:Drivers/STM32L1xx_HAL_Driver/Inc/stm32l1xx_ll_usart.h **** /**
 755:Drivers/STM32L1xx_HAL_Driver/Inc/stm32l1xx_ll_usart.h ****   * @brief  Enable Clock output on SCLK pin
 756:Drivers/STM32L1xx_HAL_Driver/Inc/stm32l1xx_ll_usart.h ****   * @note   Macro @ref IS_USART_INSTANCE(USARTx) can be used to check whether or not
 757:Drivers/STM32L1xx_HAL_Driver/Inc/stm32l1xx_ll_usart.h ****   *         Synchronous mode is supported by the USARTx instance.
 758:Drivers/STM32L1xx_HAL_Driver/Inc/stm32l1xx_ll_usart.h ****   * @rmtoll CR2          CLKEN         LL_USART_EnableSCLKOutput
 759:Drivers/STM32L1xx_HAL_Driver/Inc/stm32l1xx_ll_usart.h ****   * @param  USARTx USART Instance
 760:Drivers/STM32L1xx_HAL_Driver/Inc/stm32l1xx_ll_usart.h ****   * @retval None
 761:Drivers/STM32L1xx_HAL_Driver/Inc/stm32l1xx_ll_usart.h ****   */
 762:Drivers/STM32L1xx_HAL_Driver/Inc/stm32l1xx_ll_usart.h **** __STATIC_INLINE void LL_USART_EnableSCLKOutput(USART_TypeDef *USARTx)
 763:Drivers/STM32L1xx_HAL_Driver/Inc/stm32l1xx_ll_usart.h **** {
 764:Drivers/STM32L1xx_HAL_Driver/Inc/stm32l1xx_ll_usart.h ****   SET_BIT(USARTx->CR2, USART_CR2_CLKEN);
 765:Drivers/STM32L1xx_HAL_Driver/Inc/stm32l1xx_ll_usart.h **** }
 766:Drivers/STM32L1xx_HAL_Driver/Inc/stm32l1xx_ll_usart.h **** 
 767:Drivers/STM32L1xx_HAL_Driver/Inc/stm32l1xx_ll_usart.h **** /**
 768:Drivers/STM32L1xx_HAL_Driver/Inc/stm32l1xx_ll_usart.h ****   * @brief  Disable Clock output on SCLK pin
 769:Drivers/STM32L1xx_HAL_Driver/Inc/stm32l1xx_ll_usart.h ****   * @note   Macro @ref IS_USART_INSTANCE(USARTx) can be used to check whether or not
 770:Drivers/STM32L1xx_HAL_Driver/Inc/stm32l1xx_ll_usart.h ****   *         Synchronous mode is supported by the USARTx instance.
 771:Drivers/STM32L1xx_HAL_Driver/Inc/stm32l1xx_ll_usart.h ****   * @rmtoll CR2          CLKEN         LL_USART_DisableSCLKOutput
 772:Drivers/STM32L1xx_HAL_Driver/Inc/stm32l1xx_ll_usart.h ****   * @param  USARTx USART Instance
 773:Drivers/STM32L1xx_HAL_Driver/Inc/stm32l1xx_ll_usart.h ****   * @retval None
 774:Drivers/STM32L1xx_HAL_Driver/Inc/stm32l1xx_ll_usart.h ****   */
 775:Drivers/STM32L1xx_HAL_Driver/Inc/stm32l1xx_ll_usart.h **** __STATIC_INLINE void LL_USART_DisableSCLKOutput(USART_TypeDef *USARTx)
 776:Drivers/STM32L1xx_HAL_Driver/Inc/stm32l1xx_ll_usart.h **** {
 777:Drivers/STM32L1xx_HAL_Driver/Inc/stm32l1xx_ll_usart.h ****   CLEAR_BIT(USARTx->CR2, USART_CR2_CLKEN);
 778:Drivers/STM32L1xx_HAL_Driver/Inc/stm32l1xx_ll_usart.h **** }
 779:Drivers/STM32L1xx_HAL_Driver/Inc/stm32l1xx_ll_usart.h **** 
 780:Drivers/STM32L1xx_HAL_Driver/Inc/stm32l1xx_ll_usart.h **** /**
 781:Drivers/STM32L1xx_HAL_Driver/Inc/stm32l1xx_ll_usart.h ****   * @brief  Indicate if Clock output on SCLK pin is enabled
 782:Drivers/STM32L1xx_HAL_Driver/Inc/stm32l1xx_ll_usart.h ****   * @note   Macro @ref IS_USART_INSTANCE(USARTx) can be used to check whether or not
 783:Drivers/STM32L1xx_HAL_Driver/Inc/stm32l1xx_ll_usart.h ****   *         Synchronous mode is supported by the USARTx instance.
 784:Drivers/STM32L1xx_HAL_Driver/Inc/stm32l1xx_ll_usart.h ****   * @rmtoll CR2          CLKEN         LL_USART_IsEnabledSCLKOutput
 785:Drivers/STM32L1xx_HAL_Driver/Inc/stm32l1xx_ll_usart.h ****   * @param  USARTx USART Instance
 786:Drivers/STM32L1xx_HAL_Driver/Inc/stm32l1xx_ll_usart.h ****   * @retval State of bit (1 or 0).
ARM GAS  C:\Users\domen\AppData\Local\Temp\ccbqR6EW.s 			page 41


 787:Drivers/STM32L1xx_HAL_Driver/Inc/stm32l1xx_ll_usart.h ****   */
 788:Drivers/STM32L1xx_HAL_Driver/Inc/stm32l1xx_ll_usart.h **** __STATIC_INLINE uint32_t LL_USART_IsEnabledSCLKOutput(USART_TypeDef *USARTx)
 789:Drivers/STM32L1xx_HAL_Driver/Inc/stm32l1xx_ll_usart.h **** {
 790:Drivers/STM32L1xx_HAL_Driver/Inc/stm32l1xx_ll_usart.h ****   return (READ_BIT(USARTx->CR2, USART_CR2_CLKEN) == (USART_CR2_CLKEN));
 791:Drivers/STM32L1xx_HAL_Driver/Inc/stm32l1xx_ll_usart.h **** }
 792:Drivers/STM32L1xx_HAL_Driver/Inc/stm32l1xx_ll_usart.h **** 
 793:Drivers/STM32L1xx_HAL_Driver/Inc/stm32l1xx_ll_usart.h **** /**
 794:Drivers/STM32L1xx_HAL_Driver/Inc/stm32l1xx_ll_usart.h ****   * @brief  Set the length of the stop bits
 795:Drivers/STM32L1xx_HAL_Driver/Inc/stm32l1xx_ll_usart.h ****   * @rmtoll CR2          STOP          LL_USART_SetStopBitsLength
 796:Drivers/STM32L1xx_HAL_Driver/Inc/stm32l1xx_ll_usart.h ****   * @param  USARTx USART Instance
 797:Drivers/STM32L1xx_HAL_Driver/Inc/stm32l1xx_ll_usart.h ****   * @param  StopBits This parameter can be one of the following values:
 798:Drivers/STM32L1xx_HAL_Driver/Inc/stm32l1xx_ll_usart.h ****   *         @arg @ref LL_USART_STOPBITS_0_5
 799:Drivers/STM32L1xx_HAL_Driver/Inc/stm32l1xx_ll_usart.h ****   *         @arg @ref LL_USART_STOPBITS_1
 800:Drivers/STM32L1xx_HAL_Driver/Inc/stm32l1xx_ll_usart.h ****   *         @arg @ref LL_USART_STOPBITS_1_5
 801:Drivers/STM32L1xx_HAL_Driver/Inc/stm32l1xx_ll_usart.h ****   *         @arg @ref LL_USART_STOPBITS_2
 802:Drivers/STM32L1xx_HAL_Driver/Inc/stm32l1xx_ll_usart.h ****   * @retval None
 803:Drivers/STM32L1xx_HAL_Driver/Inc/stm32l1xx_ll_usart.h ****   */
 804:Drivers/STM32L1xx_HAL_Driver/Inc/stm32l1xx_ll_usart.h **** __STATIC_INLINE void LL_USART_SetStopBitsLength(USART_TypeDef *USARTx, uint32_t StopBits)
 805:Drivers/STM32L1xx_HAL_Driver/Inc/stm32l1xx_ll_usart.h **** {
 806:Drivers/STM32L1xx_HAL_Driver/Inc/stm32l1xx_ll_usart.h ****   MODIFY_REG(USARTx->CR2, USART_CR2_STOP, StopBits);
 807:Drivers/STM32L1xx_HAL_Driver/Inc/stm32l1xx_ll_usart.h **** }
 808:Drivers/STM32L1xx_HAL_Driver/Inc/stm32l1xx_ll_usart.h **** 
 809:Drivers/STM32L1xx_HAL_Driver/Inc/stm32l1xx_ll_usart.h **** /**
 810:Drivers/STM32L1xx_HAL_Driver/Inc/stm32l1xx_ll_usart.h ****   * @brief  Retrieve the length of the stop bits
 811:Drivers/STM32L1xx_HAL_Driver/Inc/stm32l1xx_ll_usart.h ****   * @rmtoll CR2          STOP          LL_USART_GetStopBitsLength
 812:Drivers/STM32L1xx_HAL_Driver/Inc/stm32l1xx_ll_usart.h ****   * @param  USARTx USART Instance
 813:Drivers/STM32L1xx_HAL_Driver/Inc/stm32l1xx_ll_usart.h ****   * @retval Returned value can be one of the following values:
 814:Drivers/STM32L1xx_HAL_Driver/Inc/stm32l1xx_ll_usart.h ****   *         @arg @ref LL_USART_STOPBITS_0_5
 815:Drivers/STM32L1xx_HAL_Driver/Inc/stm32l1xx_ll_usart.h ****   *         @arg @ref LL_USART_STOPBITS_1
 816:Drivers/STM32L1xx_HAL_Driver/Inc/stm32l1xx_ll_usart.h ****   *         @arg @ref LL_USART_STOPBITS_1_5
 817:Drivers/STM32L1xx_HAL_Driver/Inc/stm32l1xx_ll_usart.h ****   *         @arg @ref LL_USART_STOPBITS_2
 818:Drivers/STM32L1xx_HAL_Driver/Inc/stm32l1xx_ll_usart.h ****   */
 819:Drivers/STM32L1xx_HAL_Driver/Inc/stm32l1xx_ll_usart.h **** __STATIC_INLINE uint32_t LL_USART_GetStopBitsLength(USART_TypeDef *USARTx)
 820:Drivers/STM32L1xx_HAL_Driver/Inc/stm32l1xx_ll_usart.h **** {
 821:Drivers/STM32L1xx_HAL_Driver/Inc/stm32l1xx_ll_usart.h ****   return (uint32_t)(READ_BIT(USARTx->CR2, USART_CR2_STOP));
 822:Drivers/STM32L1xx_HAL_Driver/Inc/stm32l1xx_ll_usart.h **** }
 823:Drivers/STM32L1xx_HAL_Driver/Inc/stm32l1xx_ll_usart.h **** 
 824:Drivers/STM32L1xx_HAL_Driver/Inc/stm32l1xx_ll_usart.h **** /**
 825:Drivers/STM32L1xx_HAL_Driver/Inc/stm32l1xx_ll_usart.h ****   * @brief  Configure Character frame format (Datawidth, Parity control, Stop Bits)
 826:Drivers/STM32L1xx_HAL_Driver/Inc/stm32l1xx_ll_usart.h ****   * @note   Call of this function is equivalent to following function call sequence :
 827:Drivers/STM32L1xx_HAL_Driver/Inc/stm32l1xx_ll_usart.h ****   *         - Data Width configuration using @ref LL_USART_SetDataWidth() function
 828:Drivers/STM32L1xx_HAL_Driver/Inc/stm32l1xx_ll_usart.h ****   *         - Parity Control and mode configuration using @ref LL_USART_SetParity() function
 829:Drivers/STM32L1xx_HAL_Driver/Inc/stm32l1xx_ll_usart.h ****   *         - Stop bits configuration using @ref LL_USART_SetStopBitsLength() function
 830:Drivers/STM32L1xx_HAL_Driver/Inc/stm32l1xx_ll_usart.h ****   * @rmtoll CR1          PS            LL_USART_ConfigCharacter\n
 831:Drivers/STM32L1xx_HAL_Driver/Inc/stm32l1xx_ll_usart.h ****   *         CR1          PCE           LL_USART_ConfigCharacter\n
 832:Drivers/STM32L1xx_HAL_Driver/Inc/stm32l1xx_ll_usart.h ****   *         CR1          M             LL_USART_ConfigCharacter\n
 833:Drivers/STM32L1xx_HAL_Driver/Inc/stm32l1xx_ll_usart.h ****   *         CR2          STOP          LL_USART_ConfigCharacter
 834:Drivers/STM32L1xx_HAL_Driver/Inc/stm32l1xx_ll_usart.h ****   * @param  USARTx USART Instance
 835:Drivers/STM32L1xx_HAL_Driver/Inc/stm32l1xx_ll_usart.h ****   * @param  DataWidth This parameter can be one of the following values:
 836:Drivers/STM32L1xx_HAL_Driver/Inc/stm32l1xx_ll_usart.h ****   *         @arg @ref LL_USART_DATAWIDTH_8B
 837:Drivers/STM32L1xx_HAL_Driver/Inc/stm32l1xx_ll_usart.h ****   *         @arg @ref LL_USART_DATAWIDTH_9B
 838:Drivers/STM32L1xx_HAL_Driver/Inc/stm32l1xx_ll_usart.h ****   * @param  Parity This parameter can be one of the following values:
 839:Drivers/STM32L1xx_HAL_Driver/Inc/stm32l1xx_ll_usart.h ****   *         @arg @ref LL_USART_PARITY_NONE
 840:Drivers/STM32L1xx_HAL_Driver/Inc/stm32l1xx_ll_usart.h ****   *         @arg @ref LL_USART_PARITY_EVEN
 841:Drivers/STM32L1xx_HAL_Driver/Inc/stm32l1xx_ll_usart.h ****   *         @arg @ref LL_USART_PARITY_ODD
 842:Drivers/STM32L1xx_HAL_Driver/Inc/stm32l1xx_ll_usart.h ****   * @param  StopBits This parameter can be one of the following values:
 843:Drivers/STM32L1xx_HAL_Driver/Inc/stm32l1xx_ll_usart.h ****   *         @arg @ref LL_USART_STOPBITS_0_5
ARM GAS  C:\Users\domen\AppData\Local\Temp\ccbqR6EW.s 			page 42


 844:Drivers/STM32L1xx_HAL_Driver/Inc/stm32l1xx_ll_usart.h ****   *         @arg @ref LL_USART_STOPBITS_1
 845:Drivers/STM32L1xx_HAL_Driver/Inc/stm32l1xx_ll_usart.h ****   *         @arg @ref LL_USART_STOPBITS_1_5
 846:Drivers/STM32L1xx_HAL_Driver/Inc/stm32l1xx_ll_usart.h ****   *         @arg @ref LL_USART_STOPBITS_2
 847:Drivers/STM32L1xx_HAL_Driver/Inc/stm32l1xx_ll_usart.h ****   * @retval None
 848:Drivers/STM32L1xx_HAL_Driver/Inc/stm32l1xx_ll_usart.h ****   */
 849:Drivers/STM32L1xx_HAL_Driver/Inc/stm32l1xx_ll_usart.h **** __STATIC_INLINE void LL_USART_ConfigCharacter(USART_TypeDef *USARTx, uint32_t DataWidth, uint32_t P
 850:Drivers/STM32L1xx_HAL_Driver/Inc/stm32l1xx_ll_usart.h ****                                               uint32_t StopBits)
 851:Drivers/STM32L1xx_HAL_Driver/Inc/stm32l1xx_ll_usart.h **** {
 852:Drivers/STM32L1xx_HAL_Driver/Inc/stm32l1xx_ll_usart.h ****   MODIFY_REG(USARTx->CR1, USART_CR1_PS | USART_CR1_PCE | USART_CR1_M, Parity | DataWidth);
 853:Drivers/STM32L1xx_HAL_Driver/Inc/stm32l1xx_ll_usart.h ****   MODIFY_REG(USARTx->CR2, USART_CR2_STOP, StopBits);
 854:Drivers/STM32L1xx_HAL_Driver/Inc/stm32l1xx_ll_usart.h **** }
 855:Drivers/STM32L1xx_HAL_Driver/Inc/stm32l1xx_ll_usart.h **** 
 856:Drivers/STM32L1xx_HAL_Driver/Inc/stm32l1xx_ll_usart.h **** /**
 857:Drivers/STM32L1xx_HAL_Driver/Inc/stm32l1xx_ll_usart.h ****   * @brief  Set Address of the USART node.
 858:Drivers/STM32L1xx_HAL_Driver/Inc/stm32l1xx_ll_usart.h ****   * @note   This is used in multiprocessor communication during Mute mode or Stop mode,
 859:Drivers/STM32L1xx_HAL_Driver/Inc/stm32l1xx_ll_usart.h ****   *         for wake up with address mark detection.
 860:Drivers/STM32L1xx_HAL_Driver/Inc/stm32l1xx_ll_usart.h ****   * @rmtoll CR2          ADD           LL_USART_SetNodeAddress
 861:Drivers/STM32L1xx_HAL_Driver/Inc/stm32l1xx_ll_usart.h ****   * @param  USARTx USART Instance
 862:Drivers/STM32L1xx_HAL_Driver/Inc/stm32l1xx_ll_usart.h ****   * @param  NodeAddress 4 bit Address of the USART node.
 863:Drivers/STM32L1xx_HAL_Driver/Inc/stm32l1xx_ll_usart.h ****   * @retval None
 864:Drivers/STM32L1xx_HAL_Driver/Inc/stm32l1xx_ll_usart.h ****   */
 865:Drivers/STM32L1xx_HAL_Driver/Inc/stm32l1xx_ll_usart.h **** __STATIC_INLINE void LL_USART_SetNodeAddress(USART_TypeDef *USARTx, uint32_t NodeAddress)
 866:Drivers/STM32L1xx_HAL_Driver/Inc/stm32l1xx_ll_usart.h **** {
 867:Drivers/STM32L1xx_HAL_Driver/Inc/stm32l1xx_ll_usart.h ****   MODIFY_REG(USARTx->CR2, USART_CR2_ADD, (NodeAddress & USART_CR2_ADD));
 868:Drivers/STM32L1xx_HAL_Driver/Inc/stm32l1xx_ll_usart.h **** }
 869:Drivers/STM32L1xx_HAL_Driver/Inc/stm32l1xx_ll_usart.h **** 
 870:Drivers/STM32L1xx_HAL_Driver/Inc/stm32l1xx_ll_usart.h **** /**
 871:Drivers/STM32L1xx_HAL_Driver/Inc/stm32l1xx_ll_usart.h ****   * @brief  Return 4 bit Address of the USART node as set in ADD field of CR2.
 872:Drivers/STM32L1xx_HAL_Driver/Inc/stm32l1xx_ll_usart.h ****   * @note   only 4bits (b3-b0) of returned value are relevant (b31-b4 are not relevant)
 873:Drivers/STM32L1xx_HAL_Driver/Inc/stm32l1xx_ll_usart.h ****   * @rmtoll CR2          ADD           LL_USART_GetNodeAddress
 874:Drivers/STM32L1xx_HAL_Driver/Inc/stm32l1xx_ll_usart.h ****   * @param  USARTx USART Instance
 875:Drivers/STM32L1xx_HAL_Driver/Inc/stm32l1xx_ll_usart.h ****   * @retval Address of the USART node (Value between Min_Data=0 and Max_Data=255)
 876:Drivers/STM32L1xx_HAL_Driver/Inc/stm32l1xx_ll_usart.h ****   */
 877:Drivers/STM32L1xx_HAL_Driver/Inc/stm32l1xx_ll_usart.h **** __STATIC_INLINE uint32_t LL_USART_GetNodeAddress(USART_TypeDef *USARTx)
 878:Drivers/STM32L1xx_HAL_Driver/Inc/stm32l1xx_ll_usart.h **** {
 879:Drivers/STM32L1xx_HAL_Driver/Inc/stm32l1xx_ll_usart.h ****   return (uint32_t)(READ_BIT(USARTx->CR2, USART_CR2_ADD));
 880:Drivers/STM32L1xx_HAL_Driver/Inc/stm32l1xx_ll_usart.h **** }
 881:Drivers/STM32L1xx_HAL_Driver/Inc/stm32l1xx_ll_usart.h **** 
 882:Drivers/STM32L1xx_HAL_Driver/Inc/stm32l1xx_ll_usart.h **** /**
 883:Drivers/STM32L1xx_HAL_Driver/Inc/stm32l1xx_ll_usart.h ****   * @brief  Enable RTS HW Flow Control
 884:Drivers/STM32L1xx_HAL_Driver/Inc/stm32l1xx_ll_usart.h ****   * @note   Macro @ref IS_UART_HWFLOW_INSTANCE(USARTx) can be used to check whether or not
 885:Drivers/STM32L1xx_HAL_Driver/Inc/stm32l1xx_ll_usart.h ****   *         Hardware Flow control feature is supported by the USARTx instance.
 886:Drivers/STM32L1xx_HAL_Driver/Inc/stm32l1xx_ll_usart.h ****   * @rmtoll CR3          RTSE          LL_USART_EnableRTSHWFlowCtrl
 887:Drivers/STM32L1xx_HAL_Driver/Inc/stm32l1xx_ll_usart.h ****   * @param  USARTx USART Instance
 888:Drivers/STM32L1xx_HAL_Driver/Inc/stm32l1xx_ll_usart.h ****   * @retval None
 889:Drivers/STM32L1xx_HAL_Driver/Inc/stm32l1xx_ll_usart.h ****   */
 890:Drivers/STM32L1xx_HAL_Driver/Inc/stm32l1xx_ll_usart.h **** __STATIC_INLINE void LL_USART_EnableRTSHWFlowCtrl(USART_TypeDef *USARTx)
 891:Drivers/STM32L1xx_HAL_Driver/Inc/stm32l1xx_ll_usart.h **** {
 892:Drivers/STM32L1xx_HAL_Driver/Inc/stm32l1xx_ll_usart.h ****   SET_BIT(USARTx->CR3, USART_CR3_RTSE);
 893:Drivers/STM32L1xx_HAL_Driver/Inc/stm32l1xx_ll_usart.h **** }
 894:Drivers/STM32L1xx_HAL_Driver/Inc/stm32l1xx_ll_usart.h **** 
 895:Drivers/STM32L1xx_HAL_Driver/Inc/stm32l1xx_ll_usart.h **** /**
 896:Drivers/STM32L1xx_HAL_Driver/Inc/stm32l1xx_ll_usart.h ****   * @brief  Disable RTS HW Flow Control
 897:Drivers/STM32L1xx_HAL_Driver/Inc/stm32l1xx_ll_usart.h ****   * @note   Macro @ref IS_UART_HWFLOW_INSTANCE(USARTx) can be used to check whether or not
 898:Drivers/STM32L1xx_HAL_Driver/Inc/stm32l1xx_ll_usart.h ****   *         Hardware Flow control feature is supported by the USARTx instance.
 899:Drivers/STM32L1xx_HAL_Driver/Inc/stm32l1xx_ll_usart.h ****   * @rmtoll CR3          RTSE          LL_USART_DisableRTSHWFlowCtrl
 900:Drivers/STM32L1xx_HAL_Driver/Inc/stm32l1xx_ll_usart.h ****   * @param  USARTx USART Instance
ARM GAS  C:\Users\domen\AppData\Local\Temp\ccbqR6EW.s 			page 43


 901:Drivers/STM32L1xx_HAL_Driver/Inc/stm32l1xx_ll_usart.h ****   * @retval None
 902:Drivers/STM32L1xx_HAL_Driver/Inc/stm32l1xx_ll_usart.h ****   */
 903:Drivers/STM32L1xx_HAL_Driver/Inc/stm32l1xx_ll_usart.h **** __STATIC_INLINE void LL_USART_DisableRTSHWFlowCtrl(USART_TypeDef *USARTx)
 904:Drivers/STM32L1xx_HAL_Driver/Inc/stm32l1xx_ll_usart.h **** {
 905:Drivers/STM32L1xx_HAL_Driver/Inc/stm32l1xx_ll_usart.h ****   CLEAR_BIT(USARTx->CR3, USART_CR3_RTSE);
 906:Drivers/STM32L1xx_HAL_Driver/Inc/stm32l1xx_ll_usart.h **** }
 907:Drivers/STM32L1xx_HAL_Driver/Inc/stm32l1xx_ll_usart.h **** 
 908:Drivers/STM32L1xx_HAL_Driver/Inc/stm32l1xx_ll_usart.h **** /**
 909:Drivers/STM32L1xx_HAL_Driver/Inc/stm32l1xx_ll_usart.h ****   * @brief  Enable CTS HW Flow Control
 910:Drivers/STM32L1xx_HAL_Driver/Inc/stm32l1xx_ll_usart.h ****   * @note   Macro @ref IS_UART_HWFLOW_INSTANCE(USARTx) can be used to check whether or not
 911:Drivers/STM32L1xx_HAL_Driver/Inc/stm32l1xx_ll_usart.h ****   *         Hardware Flow control feature is supported by the USARTx instance.
 912:Drivers/STM32L1xx_HAL_Driver/Inc/stm32l1xx_ll_usart.h ****   * @rmtoll CR3          CTSE          LL_USART_EnableCTSHWFlowCtrl
 913:Drivers/STM32L1xx_HAL_Driver/Inc/stm32l1xx_ll_usart.h ****   * @param  USARTx USART Instance
 914:Drivers/STM32L1xx_HAL_Driver/Inc/stm32l1xx_ll_usart.h ****   * @retval None
 915:Drivers/STM32L1xx_HAL_Driver/Inc/stm32l1xx_ll_usart.h ****   */
 916:Drivers/STM32L1xx_HAL_Driver/Inc/stm32l1xx_ll_usart.h **** __STATIC_INLINE void LL_USART_EnableCTSHWFlowCtrl(USART_TypeDef *USARTx)
 917:Drivers/STM32L1xx_HAL_Driver/Inc/stm32l1xx_ll_usart.h **** {
 918:Drivers/STM32L1xx_HAL_Driver/Inc/stm32l1xx_ll_usart.h ****   SET_BIT(USARTx->CR3, USART_CR3_CTSE);
 919:Drivers/STM32L1xx_HAL_Driver/Inc/stm32l1xx_ll_usart.h **** }
 920:Drivers/STM32L1xx_HAL_Driver/Inc/stm32l1xx_ll_usart.h **** 
 921:Drivers/STM32L1xx_HAL_Driver/Inc/stm32l1xx_ll_usart.h **** /**
 922:Drivers/STM32L1xx_HAL_Driver/Inc/stm32l1xx_ll_usart.h ****   * @brief  Disable CTS HW Flow Control
 923:Drivers/STM32L1xx_HAL_Driver/Inc/stm32l1xx_ll_usart.h ****   * @note   Macro @ref IS_UART_HWFLOW_INSTANCE(USARTx) can be used to check whether or not
 924:Drivers/STM32L1xx_HAL_Driver/Inc/stm32l1xx_ll_usart.h ****   *         Hardware Flow control feature is supported by the USARTx instance.
 925:Drivers/STM32L1xx_HAL_Driver/Inc/stm32l1xx_ll_usart.h ****   * @rmtoll CR3          CTSE          LL_USART_DisableCTSHWFlowCtrl
 926:Drivers/STM32L1xx_HAL_Driver/Inc/stm32l1xx_ll_usart.h ****   * @param  USARTx USART Instance
 927:Drivers/STM32L1xx_HAL_Driver/Inc/stm32l1xx_ll_usart.h ****   * @retval None
 928:Drivers/STM32L1xx_HAL_Driver/Inc/stm32l1xx_ll_usart.h ****   */
 929:Drivers/STM32L1xx_HAL_Driver/Inc/stm32l1xx_ll_usart.h **** __STATIC_INLINE void LL_USART_DisableCTSHWFlowCtrl(USART_TypeDef *USARTx)
 930:Drivers/STM32L1xx_HAL_Driver/Inc/stm32l1xx_ll_usart.h **** {
 931:Drivers/STM32L1xx_HAL_Driver/Inc/stm32l1xx_ll_usart.h ****   CLEAR_BIT(USARTx->CR3, USART_CR3_CTSE);
 932:Drivers/STM32L1xx_HAL_Driver/Inc/stm32l1xx_ll_usart.h **** }
 933:Drivers/STM32L1xx_HAL_Driver/Inc/stm32l1xx_ll_usart.h **** 
 934:Drivers/STM32L1xx_HAL_Driver/Inc/stm32l1xx_ll_usart.h **** /**
 935:Drivers/STM32L1xx_HAL_Driver/Inc/stm32l1xx_ll_usart.h ****   * @brief  Configure HW Flow Control mode (both CTS and RTS)
 936:Drivers/STM32L1xx_HAL_Driver/Inc/stm32l1xx_ll_usart.h ****   * @note   Macro @ref IS_UART_HWFLOW_INSTANCE(USARTx) can be used to check whether or not
 937:Drivers/STM32L1xx_HAL_Driver/Inc/stm32l1xx_ll_usart.h ****   *         Hardware Flow control feature is supported by the USARTx instance.
 938:Drivers/STM32L1xx_HAL_Driver/Inc/stm32l1xx_ll_usart.h ****   * @rmtoll CR3          RTSE          LL_USART_SetHWFlowCtrl\n
 939:Drivers/STM32L1xx_HAL_Driver/Inc/stm32l1xx_ll_usart.h ****   *         CR3          CTSE          LL_USART_SetHWFlowCtrl
 940:Drivers/STM32L1xx_HAL_Driver/Inc/stm32l1xx_ll_usart.h ****   * @param  USARTx USART Instance
 941:Drivers/STM32L1xx_HAL_Driver/Inc/stm32l1xx_ll_usart.h ****   * @param  HardwareFlowControl This parameter can be one of the following values:
 942:Drivers/STM32L1xx_HAL_Driver/Inc/stm32l1xx_ll_usart.h ****   *         @arg @ref LL_USART_HWCONTROL_NONE
 943:Drivers/STM32L1xx_HAL_Driver/Inc/stm32l1xx_ll_usart.h ****   *         @arg @ref LL_USART_HWCONTROL_RTS
 944:Drivers/STM32L1xx_HAL_Driver/Inc/stm32l1xx_ll_usart.h ****   *         @arg @ref LL_USART_HWCONTROL_CTS
 945:Drivers/STM32L1xx_HAL_Driver/Inc/stm32l1xx_ll_usart.h ****   *         @arg @ref LL_USART_HWCONTROL_RTS_CTS
 946:Drivers/STM32L1xx_HAL_Driver/Inc/stm32l1xx_ll_usart.h ****   * @retval None
 947:Drivers/STM32L1xx_HAL_Driver/Inc/stm32l1xx_ll_usart.h ****   */
 948:Drivers/STM32L1xx_HAL_Driver/Inc/stm32l1xx_ll_usart.h **** __STATIC_INLINE void LL_USART_SetHWFlowCtrl(USART_TypeDef *USARTx, uint32_t HardwareFlowControl)
 949:Drivers/STM32L1xx_HAL_Driver/Inc/stm32l1xx_ll_usart.h **** {
 950:Drivers/STM32L1xx_HAL_Driver/Inc/stm32l1xx_ll_usart.h ****   MODIFY_REG(USARTx->CR3, USART_CR3_RTSE | USART_CR3_CTSE, HardwareFlowControl);
 951:Drivers/STM32L1xx_HAL_Driver/Inc/stm32l1xx_ll_usart.h **** }
 952:Drivers/STM32L1xx_HAL_Driver/Inc/stm32l1xx_ll_usart.h **** 
 953:Drivers/STM32L1xx_HAL_Driver/Inc/stm32l1xx_ll_usart.h **** /**
 954:Drivers/STM32L1xx_HAL_Driver/Inc/stm32l1xx_ll_usart.h ****   * @brief  Return HW Flow Control configuration (both CTS and RTS)
 955:Drivers/STM32L1xx_HAL_Driver/Inc/stm32l1xx_ll_usart.h ****   * @note   Macro @ref IS_UART_HWFLOW_INSTANCE(USARTx) can be used to check whether or not
 956:Drivers/STM32L1xx_HAL_Driver/Inc/stm32l1xx_ll_usart.h ****   *         Hardware Flow control feature is supported by the USARTx instance.
 957:Drivers/STM32L1xx_HAL_Driver/Inc/stm32l1xx_ll_usart.h ****   * @rmtoll CR3          RTSE          LL_USART_GetHWFlowCtrl\n
ARM GAS  C:\Users\domen\AppData\Local\Temp\ccbqR6EW.s 			page 44


 958:Drivers/STM32L1xx_HAL_Driver/Inc/stm32l1xx_ll_usart.h ****   *         CR3          CTSE          LL_USART_GetHWFlowCtrl
 959:Drivers/STM32L1xx_HAL_Driver/Inc/stm32l1xx_ll_usart.h ****   * @param  USARTx USART Instance
 960:Drivers/STM32L1xx_HAL_Driver/Inc/stm32l1xx_ll_usart.h ****   * @retval Returned value can be one of the following values:
 961:Drivers/STM32L1xx_HAL_Driver/Inc/stm32l1xx_ll_usart.h ****   *         @arg @ref LL_USART_HWCONTROL_NONE
 962:Drivers/STM32L1xx_HAL_Driver/Inc/stm32l1xx_ll_usart.h ****   *         @arg @ref LL_USART_HWCONTROL_RTS
 963:Drivers/STM32L1xx_HAL_Driver/Inc/stm32l1xx_ll_usart.h ****   *         @arg @ref LL_USART_HWCONTROL_CTS
 964:Drivers/STM32L1xx_HAL_Driver/Inc/stm32l1xx_ll_usart.h ****   *         @arg @ref LL_USART_HWCONTROL_RTS_CTS
 965:Drivers/STM32L1xx_HAL_Driver/Inc/stm32l1xx_ll_usart.h ****   */
 966:Drivers/STM32L1xx_HAL_Driver/Inc/stm32l1xx_ll_usart.h **** __STATIC_INLINE uint32_t LL_USART_GetHWFlowCtrl(USART_TypeDef *USARTx)
 967:Drivers/STM32L1xx_HAL_Driver/Inc/stm32l1xx_ll_usart.h **** {
 968:Drivers/STM32L1xx_HAL_Driver/Inc/stm32l1xx_ll_usart.h ****   return (uint32_t)(READ_BIT(USARTx->CR3, USART_CR3_RTSE | USART_CR3_CTSE));
 969:Drivers/STM32L1xx_HAL_Driver/Inc/stm32l1xx_ll_usart.h **** }
 970:Drivers/STM32L1xx_HAL_Driver/Inc/stm32l1xx_ll_usart.h **** 
 971:Drivers/STM32L1xx_HAL_Driver/Inc/stm32l1xx_ll_usart.h **** /**
 972:Drivers/STM32L1xx_HAL_Driver/Inc/stm32l1xx_ll_usart.h ****   * @brief  Enable One bit sampling method
 973:Drivers/STM32L1xx_HAL_Driver/Inc/stm32l1xx_ll_usart.h ****   * @rmtoll CR3          ONEBIT        LL_USART_EnableOneBitSamp
 974:Drivers/STM32L1xx_HAL_Driver/Inc/stm32l1xx_ll_usart.h ****   * @param  USARTx USART Instance
 975:Drivers/STM32L1xx_HAL_Driver/Inc/stm32l1xx_ll_usart.h ****   * @retval None
 976:Drivers/STM32L1xx_HAL_Driver/Inc/stm32l1xx_ll_usart.h ****   */
 977:Drivers/STM32L1xx_HAL_Driver/Inc/stm32l1xx_ll_usart.h **** __STATIC_INLINE void LL_USART_EnableOneBitSamp(USART_TypeDef *USARTx)
 978:Drivers/STM32L1xx_HAL_Driver/Inc/stm32l1xx_ll_usart.h **** {
 979:Drivers/STM32L1xx_HAL_Driver/Inc/stm32l1xx_ll_usart.h ****   SET_BIT(USARTx->CR3, USART_CR3_ONEBIT);
 980:Drivers/STM32L1xx_HAL_Driver/Inc/stm32l1xx_ll_usart.h **** }
 981:Drivers/STM32L1xx_HAL_Driver/Inc/stm32l1xx_ll_usart.h **** 
 982:Drivers/STM32L1xx_HAL_Driver/Inc/stm32l1xx_ll_usart.h **** /**
 983:Drivers/STM32L1xx_HAL_Driver/Inc/stm32l1xx_ll_usart.h ****   * @brief  Disable One bit sampling method
 984:Drivers/STM32L1xx_HAL_Driver/Inc/stm32l1xx_ll_usart.h ****   * @rmtoll CR3          ONEBIT        LL_USART_DisableOneBitSamp
 985:Drivers/STM32L1xx_HAL_Driver/Inc/stm32l1xx_ll_usart.h ****   * @param  USARTx USART Instance
 986:Drivers/STM32L1xx_HAL_Driver/Inc/stm32l1xx_ll_usart.h ****   * @retval None
 987:Drivers/STM32L1xx_HAL_Driver/Inc/stm32l1xx_ll_usart.h ****   */
 988:Drivers/STM32L1xx_HAL_Driver/Inc/stm32l1xx_ll_usart.h **** __STATIC_INLINE void LL_USART_DisableOneBitSamp(USART_TypeDef *USARTx)
 989:Drivers/STM32L1xx_HAL_Driver/Inc/stm32l1xx_ll_usart.h **** {
 990:Drivers/STM32L1xx_HAL_Driver/Inc/stm32l1xx_ll_usart.h ****   CLEAR_BIT(USARTx->CR3, USART_CR3_ONEBIT);
 991:Drivers/STM32L1xx_HAL_Driver/Inc/stm32l1xx_ll_usart.h **** }
 992:Drivers/STM32L1xx_HAL_Driver/Inc/stm32l1xx_ll_usart.h **** 
 993:Drivers/STM32L1xx_HAL_Driver/Inc/stm32l1xx_ll_usart.h **** /**
 994:Drivers/STM32L1xx_HAL_Driver/Inc/stm32l1xx_ll_usart.h ****   * @brief  Indicate if One bit sampling method is enabled
 995:Drivers/STM32L1xx_HAL_Driver/Inc/stm32l1xx_ll_usart.h ****   * @rmtoll CR3          ONEBIT        LL_USART_IsEnabledOneBitSamp
 996:Drivers/STM32L1xx_HAL_Driver/Inc/stm32l1xx_ll_usart.h ****   * @param  USARTx USART Instance
 997:Drivers/STM32L1xx_HAL_Driver/Inc/stm32l1xx_ll_usart.h ****   * @retval State of bit (1 or 0).
 998:Drivers/STM32L1xx_HAL_Driver/Inc/stm32l1xx_ll_usart.h ****   */
 999:Drivers/STM32L1xx_HAL_Driver/Inc/stm32l1xx_ll_usart.h **** __STATIC_INLINE uint32_t LL_USART_IsEnabledOneBitSamp(USART_TypeDef *USARTx)
1000:Drivers/STM32L1xx_HAL_Driver/Inc/stm32l1xx_ll_usart.h **** {
1001:Drivers/STM32L1xx_HAL_Driver/Inc/stm32l1xx_ll_usart.h ****   return (READ_BIT(USARTx->CR3, USART_CR3_ONEBIT) == (USART_CR3_ONEBIT));
1002:Drivers/STM32L1xx_HAL_Driver/Inc/stm32l1xx_ll_usart.h **** }
1003:Drivers/STM32L1xx_HAL_Driver/Inc/stm32l1xx_ll_usart.h **** 
1004:Drivers/STM32L1xx_HAL_Driver/Inc/stm32l1xx_ll_usart.h **** /**
1005:Drivers/STM32L1xx_HAL_Driver/Inc/stm32l1xx_ll_usart.h ****   * @brief  Configure USART BRR register for achieving expected Baud Rate value.
1006:Drivers/STM32L1xx_HAL_Driver/Inc/stm32l1xx_ll_usart.h ****   * @note   Compute and set USARTDIV value in BRR Register (full BRR content)
1007:Drivers/STM32L1xx_HAL_Driver/Inc/stm32l1xx_ll_usart.h ****   *         according to used Peripheral Clock, Oversampling mode, and expected Baud Rate values
1008:Drivers/STM32L1xx_HAL_Driver/Inc/stm32l1xx_ll_usart.h ****   * @note   Peripheral clock and Baud rate values provided as function parameters should be valid
1009:Drivers/STM32L1xx_HAL_Driver/Inc/stm32l1xx_ll_usart.h ****   *         (Baud rate value != 0)
1010:Drivers/STM32L1xx_HAL_Driver/Inc/stm32l1xx_ll_usart.h ****   * @rmtoll BRR          BRR           LL_USART_SetBaudRate
1011:Drivers/STM32L1xx_HAL_Driver/Inc/stm32l1xx_ll_usart.h ****   * @param  USARTx USART Instance
1012:Drivers/STM32L1xx_HAL_Driver/Inc/stm32l1xx_ll_usart.h ****   * @param  PeriphClk Peripheral Clock
1013:Drivers/STM32L1xx_HAL_Driver/Inc/stm32l1xx_ll_usart.h ****   * @param  OverSampling This parameter can be one of the following values:
1014:Drivers/STM32L1xx_HAL_Driver/Inc/stm32l1xx_ll_usart.h ****   *         @arg @ref LL_USART_OVERSAMPLING_16
ARM GAS  C:\Users\domen\AppData\Local\Temp\ccbqR6EW.s 			page 45


1015:Drivers/STM32L1xx_HAL_Driver/Inc/stm32l1xx_ll_usart.h ****   *         @arg @ref LL_USART_OVERSAMPLING_8
1016:Drivers/STM32L1xx_HAL_Driver/Inc/stm32l1xx_ll_usart.h ****   * @param  BaudRate Baud Rate
1017:Drivers/STM32L1xx_HAL_Driver/Inc/stm32l1xx_ll_usart.h ****   * @retval None
1018:Drivers/STM32L1xx_HAL_Driver/Inc/stm32l1xx_ll_usart.h ****   */
1019:Drivers/STM32L1xx_HAL_Driver/Inc/stm32l1xx_ll_usart.h **** __STATIC_INLINE void LL_USART_SetBaudRate(USART_TypeDef *USARTx, uint32_t PeriphClk, uint32_t OverS
1020:Drivers/STM32L1xx_HAL_Driver/Inc/stm32l1xx_ll_usart.h ****                                           uint32_t BaudRate)
1021:Drivers/STM32L1xx_HAL_Driver/Inc/stm32l1xx_ll_usart.h **** {
1022:Drivers/STM32L1xx_HAL_Driver/Inc/stm32l1xx_ll_usart.h ****   if (OverSampling == LL_USART_OVERSAMPLING_8)
1023:Drivers/STM32L1xx_HAL_Driver/Inc/stm32l1xx_ll_usart.h ****   {
1024:Drivers/STM32L1xx_HAL_Driver/Inc/stm32l1xx_ll_usart.h ****     USARTx->BRR = (uint16_t)(__LL_USART_DIV_SAMPLING8(PeriphClk, BaudRate));
1025:Drivers/STM32L1xx_HAL_Driver/Inc/stm32l1xx_ll_usart.h ****   }
1026:Drivers/STM32L1xx_HAL_Driver/Inc/stm32l1xx_ll_usart.h ****   else
1027:Drivers/STM32L1xx_HAL_Driver/Inc/stm32l1xx_ll_usart.h ****   {
1028:Drivers/STM32L1xx_HAL_Driver/Inc/stm32l1xx_ll_usart.h ****     USARTx->BRR = (uint16_t)(__LL_USART_DIV_SAMPLING16(PeriphClk, BaudRate));
1029:Drivers/STM32L1xx_HAL_Driver/Inc/stm32l1xx_ll_usart.h ****   }
1030:Drivers/STM32L1xx_HAL_Driver/Inc/stm32l1xx_ll_usart.h **** }
1031:Drivers/STM32L1xx_HAL_Driver/Inc/stm32l1xx_ll_usart.h **** 
1032:Drivers/STM32L1xx_HAL_Driver/Inc/stm32l1xx_ll_usart.h **** /**
1033:Drivers/STM32L1xx_HAL_Driver/Inc/stm32l1xx_ll_usart.h ****   * @brief  Return current Baud Rate value, according to USARTDIV present in BRR register
1034:Drivers/STM32L1xx_HAL_Driver/Inc/stm32l1xx_ll_usart.h ****   *         (full BRR content), and to used Peripheral Clock and Oversampling mode values
1035:Drivers/STM32L1xx_HAL_Driver/Inc/stm32l1xx_ll_usart.h ****   * @note   In case of non-initialized or invalid value stored in BRR register, value 0 will be ret
1036:Drivers/STM32L1xx_HAL_Driver/Inc/stm32l1xx_ll_usart.h ****   * @rmtoll BRR          BRR           LL_USART_GetBaudRate
1037:Drivers/STM32L1xx_HAL_Driver/Inc/stm32l1xx_ll_usart.h ****   * @param  USARTx USART Instance
1038:Drivers/STM32L1xx_HAL_Driver/Inc/stm32l1xx_ll_usart.h ****   * @param  PeriphClk Peripheral Clock
1039:Drivers/STM32L1xx_HAL_Driver/Inc/stm32l1xx_ll_usart.h ****   * @param  OverSampling This parameter can be one of the following values:
1040:Drivers/STM32L1xx_HAL_Driver/Inc/stm32l1xx_ll_usart.h ****   *         @arg @ref LL_USART_OVERSAMPLING_16
1041:Drivers/STM32L1xx_HAL_Driver/Inc/stm32l1xx_ll_usart.h ****   *         @arg @ref LL_USART_OVERSAMPLING_8
1042:Drivers/STM32L1xx_HAL_Driver/Inc/stm32l1xx_ll_usart.h ****   * @retval Baud Rate
1043:Drivers/STM32L1xx_HAL_Driver/Inc/stm32l1xx_ll_usart.h ****   */
1044:Drivers/STM32L1xx_HAL_Driver/Inc/stm32l1xx_ll_usart.h **** __STATIC_INLINE uint32_t LL_USART_GetBaudRate(USART_TypeDef *USARTx, uint32_t PeriphClk, uint32_t O
1045:Drivers/STM32L1xx_HAL_Driver/Inc/stm32l1xx_ll_usart.h **** {
1046:Drivers/STM32L1xx_HAL_Driver/Inc/stm32l1xx_ll_usart.h ****   register uint32_t usartdiv = 0x0U;
1047:Drivers/STM32L1xx_HAL_Driver/Inc/stm32l1xx_ll_usart.h ****   register uint32_t brrresult = 0x0U;
1048:Drivers/STM32L1xx_HAL_Driver/Inc/stm32l1xx_ll_usart.h **** 
1049:Drivers/STM32L1xx_HAL_Driver/Inc/stm32l1xx_ll_usart.h ****   usartdiv = USARTx->BRR;
1050:Drivers/STM32L1xx_HAL_Driver/Inc/stm32l1xx_ll_usart.h **** 
1051:Drivers/STM32L1xx_HAL_Driver/Inc/stm32l1xx_ll_usart.h ****   if (OverSampling == LL_USART_OVERSAMPLING_8)
1052:Drivers/STM32L1xx_HAL_Driver/Inc/stm32l1xx_ll_usart.h ****   {
1053:Drivers/STM32L1xx_HAL_Driver/Inc/stm32l1xx_ll_usart.h ****     if ((usartdiv & 0xFFF7U) != 0U)
1054:Drivers/STM32L1xx_HAL_Driver/Inc/stm32l1xx_ll_usart.h ****     {
1055:Drivers/STM32L1xx_HAL_Driver/Inc/stm32l1xx_ll_usart.h ****       usartdiv = (uint16_t)((usartdiv & 0xFFF0U) | ((usartdiv & 0x0007U) << 1U)) ;
1056:Drivers/STM32L1xx_HAL_Driver/Inc/stm32l1xx_ll_usart.h ****       brrresult = (PeriphClk * 2U) / usartdiv;
1057:Drivers/STM32L1xx_HAL_Driver/Inc/stm32l1xx_ll_usart.h ****     }
1058:Drivers/STM32L1xx_HAL_Driver/Inc/stm32l1xx_ll_usart.h ****   }
1059:Drivers/STM32L1xx_HAL_Driver/Inc/stm32l1xx_ll_usart.h ****   else
1060:Drivers/STM32L1xx_HAL_Driver/Inc/stm32l1xx_ll_usart.h ****   {
1061:Drivers/STM32L1xx_HAL_Driver/Inc/stm32l1xx_ll_usart.h ****     if ((usartdiv & 0xFFFFU) != 0U)
1062:Drivers/STM32L1xx_HAL_Driver/Inc/stm32l1xx_ll_usart.h ****     {
1063:Drivers/STM32L1xx_HAL_Driver/Inc/stm32l1xx_ll_usart.h ****       brrresult = PeriphClk / usartdiv;
1064:Drivers/STM32L1xx_HAL_Driver/Inc/stm32l1xx_ll_usart.h ****     }
1065:Drivers/STM32L1xx_HAL_Driver/Inc/stm32l1xx_ll_usart.h ****   }
1066:Drivers/STM32L1xx_HAL_Driver/Inc/stm32l1xx_ll_usart.h ****   return (brrresult);
1067:Drivers/STM32L1xx_HAL_Driver/Inc/stm32l1xx_ll_usart.h **** }
1068:Drivers/STM32L1xx_HAL_Driver/Inc/stm32l1xx_ll_usart.h **** 
1069:Drivers/STM32L1xx_HAL_Driver/Inc/stm32l1xx_ll_usart.h **** /**
1070:Drivers/STM32L1xx_HAL_Driver/Inc/stm32l1xx_ll_usart.h ****   * @}
1071:Drivers/STM32L1xx_HAL_Driver/Inc/stm32l1xx_ll_usart.h ****   */
ARM GAS  C:\Users\domen\AppData\Local\Temp\ccbqR6EW.s 			page 46


1072:Drivers/STM32L1xx_HAL_Driver/Inc/stm32l1xx_ll_usart.h **** 
1073:Drivers/STM32L1xx_HAL_Driver/Inc/stm32l1xx_ll_usart.h **** /** @defgroup USART_LL_EF_Configuration_IRDA Configuration functions related to Irda feature
1074:Drivers/STM32L1xx_HAL_Driver/Inc/stm32l1xx_ll_usart.h ****   * @{
1075:Drivers/STM32L1xx_HAL_Driver/Inc/stm32l1xx_ll_usart.h ****   */
1076:Drivers/STM32L1xx_HAL_Driver/Inc/stm32l1xx_ll_usart.h **** 
1077:Drivers/STM32L1xx_HAL_Driver/Inc/stm32l1xx_ll_usart.h **** /**
1078:Drivers/STM32L1xx_HAL_Driver/Inc/stm32l1xx_ll_usart.h ****   * @brief  Enable IrDA mode
1079:Drivers/STM32L1xx_HAL_Driver/Inc/stm32l1xx_ll_usart.h ****   * @note   Macro @ref IS_IRDA_INSTANCE(USARTx) can be used to check whether or not
1080:Drivers/STM32L1xx_HAL_Driver/Inc/stm32l1xx_ll_usart.h ****   *         IrDA feature is supported by the USARTx instance.
1081:Drivers/STM32L1xx_HAL_Driver/Inc/stm32l1xx_ll_usart.h ****   * @rmtoll CR3          IREN          LL_USART_EnableIrda
1082:Drivers/STM32L1xx_HAL_Driver/Inc/stm32l1xx_ll_usart.h ****   * @param  USARTx USART Instance
1083:Drivers/STM32L1xx_HAL_Driver/Inc/stm32l1xx_ll_usart.h ****   * @retval None
1084:Drivers/STM32L1xx_HAL_Driver/Inc/stm32l1xx_ll_usart.h ****   */
1085:Drivers/STM32L1xx_HAL_Driver/Inc/stm32l1xx_ll_usart.h **** __STATIC_INLINE void LL_USART_EnableIrda(USART_TypeDef *USARTx)
1086:Drivers/STM32L1xx_HAL_Driver/Inc/stm32l1xx_ll_usart.h **** {
1087:Drivers/STM32L1xx_HAL_Driver/Inc/stm32l1xx_ll_usart.h ****   SET_BIT(USARTx->CR3, USART_CR3_IREN);
1088:Drivers/STM32L1xx_HAL_Driver/Inc/stm32l1xx_ll_usart.h **** }
1089:Drivers/STM32L1xx_HAL_Driver/Inc/stm32l1xx_ll_usart.h **** 
1090:Drivers/STM32L1xx_HAL_Driver/Inc/stm32l1xx_ll_usart.h **** /**
1091:Drivers/STM32L1xx_HAL_Driver/Inc/stm32l1xx_ll_usart.h ****   * @brief  Disable IrDA mode
1092:Drivers/STM32L1xx_HAL_Driver/Inc/stm32l1xx_ll_usart.h ****   * @note   Macro @ref IS_IRDA_INSTANCE(USARTx) can be used to check whether or not
1093:Drivers/STM32L1xx_HAL_Driver/Inc/stm32l1xx_ll_usart.h ****   *         IrDA feature is supported by the USARTx instance.
1094:Drivers/STM32L1xx_HAL_Driver/Inc/stm32l1xx_ll_usart.h ****   * @rmtoll CR3          IREN          LL_USART_DisableIrda
1095:Drivers/STM32L1xx_HAL_Driver/Inc/stm32l1xx_ll_usart.h ****   * @param  USARTx USART Instance
1096:Drivers/STM32L1xx_HAL_Driver/Inc/stm32l1xx_ll_usart.h ****   * @retval None
1097:Drivers/STM32L1xx_HAL_Driver/Inc/stm32l1xx_ll_usart.h ****   */
1098:Drivers/STM32L1xx_HAL_Driver/Inc/stm32l1xx_ll_usart.h **** __STATIC_INLINE void LL_USART_DisableIrda(USART_TypeDef *USARTx)
1099:Drivers/STM32L1xx_HAL_Driver/Inc/stm32l1xx_ll_usart.h **** {
1100:Drivers/STM32L1xx_HAL_Driver/Inc/stm32l1xx_ll_usart.h ****   CLEAR_BIT(USARTx->CR3, USART_CR3_IREN);
1101:Drivers/STM32L1xx_HAL_Driver/Inc/stm32l1xx_ll_usart.h **** }
1102:Drivers/STM32L1xx_HAL_Driver/Inc/stm32l1xx_ll_usart.h **** 
1103:Drivers/STM32L1xx_HAL_Driver/Inc/stm32l1xx_ll_usart.h **** /**
1104:Drivers/STM32L1xx_HAL_Driver/Inc/stm32l1xx_ll_usart.h ****   * @brief  Indicate if IrDA mode is enabled
1105:Drivers/STM32L1xx_HAL_Driver/Inc/stm32l1xx_ll_usart.h ****   * @note   Macro @ref IS_IRDA_INSTANCE(USARTx) can be used to check whether or not
1106:Drivers/STM32L1xx_HAL_Driver/Inc/stm32l1xx_ll_usart.h ****   *         IrDA feature is supported by the USARTx instance.
1107:Drivers/STM32L1xx_HAL_Driver/Inc/stm32l1xx_ll_usart.h ****   * @rmtoll CR3          IREN          LL_USART_IsEnabledIrda
1108:Drivers/STM32L1xx_HAL_Driver/Inc/stm32l1xx_ll_usart.h ****   * @param  USARTx USART Instance
1109:Drivers/STM32L1xx_HAL_Driver/Inc/stm32l1xx_ll_usart.h ****   * @retval State of bit (1 or 0).
1110:Drivers/STM32L1xx_HAL_Driver/Inc/stm32l1xx_ll_usart.h ****   */
1111:Drivers/STM32L1xx_HAL_Driver/Inc/stm32l1xx_ll_usart.h **** __STATIC_INLINE uint32_t LL_USART_IsEnabledIrda(USART_TypeDef *USARTx)
1112:Drivers/STM32L1xx_HAL_Driver/Inc/stm32l1xx_ll_usart.h **** {
1113:Drivers/STM32L1xx_HAL_Driver/Inc/stm32l1xx_ll_usart.h ****   return (READ_BIT(USARTx->CR3, USART_CR3_IREN) == (USART_CR3_IREN));
1114:Drivers/STM32L1xx_HAL_Driver/Inc/stm32l1xx_ll_usart.h **** }
1115:Drivers/STM32L1xx_HAL_Driver/Inc/stm32l1xx_ll_usart.h **** 
1116:Drivers/STM32L1xx_HAL_Driver/Inc/stm32l1xx_ll_usart.h **** /**
1117:Drivers/STM32L1xx_HAL_Driver/Inc/stm32l1xx_ll_usart.h ****   * @brief  Configure IrDA Power Mode (Normal or Low Power)
1118:Drivers/STM32L1xx_HAL_Driver/Inc/stm32l1xx_ll_usart.h ****   * @note   Macro @ref IS_IRDA_INSTANCE(USARTx) can be used to check whether or not
1119:Drivers/STM32L1xx_HAL_Driver/Inc/stm32l1xx_ll_usart.h ****   *         IrDA feature is supported by the USARTx instance.
1120:Drivers/STM32L1xx_HAL_Driver/Inc/stm32l1xx_ll_usart.h ****   * @rmtoll CR3          IRLP          LL_USART_SetIrdaPowerMode
1121:Drivers/STM32L1xx_HAL_Driver/Inc/stm32l1xx_ll_usart.h ****   * @param  USARTx USART Instance
1122:Drivers/STM32L1xx_HAL_Driver/Inc/stm32l1xx_ll_usart.h ****   * @param  PowerMode This parameter can be one of the following values:
1123:Drivers/STM32L1xx_HAL_Driver/Inc/stm32l1xx_ll_usart.h ****   *         @arg @ref LL_USART_IRDA_POWER_NORMAL
1124:Drivers/STM32L1xx_HAL_Driver/Inc/stm32l1xx_ll_usart.h ****   *         @arg @ref LL_USART_IRDA_POWER_LOW
1125:Drivers/STM32L1xx_HAL_Driver/Inc/stm32l1xx_ll_usart.h ****   * @retval None
1126:Drivers/STM32L1xx_HAL_Driver/Inc/stm32l1xx_ll_usart.h ****   */
1127:Drivers/STM32L1xx_HAL_Driver/Inc/stm32l1xx_ll_usart.h **** __STATIC_INLINE void LL_USART_SetIrdaPowerMode(USART_TypeDef *USARTx, uint32_t PowerMode)
1128:Drivers/STM32L1xx_HAL_Driver/Inc/stm32l1xx_ll_usart.h **** {
ARM GAS  C:\Users\domen\AppData\Local\Temp\ccbqR6EW.s 			page 47


1129:Drivers/STM32L1xx_HAL_Driver/Inc/stm32l1xx_ll_usart.h ****   MODIFY_REG(USARTx->CR3, USART_CR3_IRLP, PowerMode);
1130:Drivers/STM32L1xx_HAL_Driver/Inc/stm32l1xx_ll_usart.h **** }
1131:Drivers/STM32L1xx_HAL_Driver/Inc/stm32l1xx_ll_usart.h **** 
1132:Drivers/STM32L1xx_HAL_Driver/Inc/stm32l1xx_ll_usart.h **** /**
1133:Drivers/STM32L1xx_HAL_Driver/Inc/stm32l1xx_ll_usart.h ****   * @brief  Retrieve IrDA Power Mode configuration (Normal or Low Power)
1134:Drivers/STM32L1xx_HAL_Driver/Inc/stm32l1xx_ll_usart.h ****   * @note   Macro @ref IS_IRDA_INSTANCE(USARTx) can be used to check whether or not
1135:Drivers/STM32L1xx_HAL_Driver/Inc/stm32l1xx_ll_usart.h ****   *         IrDA feature is supported by the USARTx instance.
1136:Drivers/STM32L1xx_HAL_Driver/Inc/stm32l1xx_ll_usart.h ****   * @rmtoll CR3          IRLP          LL_USART_GetIrdaPowerMode
1137:Drivers/STM32L1xx_HAL_Driver/Inc/stm32l1xx_ll_usart.h ****   * @param  USARTx USART Instance
1138:Drivers/STM32L1xx_HAL_Driver/Inc/stm32l1xx_ll_usart.h ****   * @retval Returned value can be one of the following values:
1139:Drivers/STM32L1xx_HAL_Driver/Inc/stm32l1xx_ll_usart.h ****   *         @arg @ref LL_USART_IRDA_POWER_NORMAL
1140:Drivers/STM32L1xx_HAL_Driver/Inc/stm32l1xx_ll_usart.h ****   *         @arg @ref LL_USART_PHASE_2EDGE
1141:Drivers/STM32L1xx_HAL_Driver/Inc/stm32l1xx_ll_usart.h ****   */
1142:Drivers/STM32L1xx_HAL_Driver/Inc/stm32l1xx_ll_usart.h **** __STATIC_INLINE uint32_t LL_USART_GetIrdaPowerMode(USART_TypeDef *USARTx)
1143:Drivers/STM32L1xx_HAL_Driver/Inc/stm32l1xx_ll_usart.h **** {
1144:Drivers/STM32L1xx_HAL_Driver/Inc/stm32l1xx_ll_usart.h ****   return (uint32_t)(READ_BIT(USARTx->CR3, USART_CR3_IRLP));
1145:Drivers/STM32L1xx_HAL_Driver/Inc/stm32l1xx_ll_usart.h **** }
1146:Drivers/STM32L1xx_HAL_Driver/Inc/stm32l1xx_ll_usart.h **** 
1147:Drivers/STM32L1xx_HAL_Driver/Inc/stm32l1xx_ll_usart.h **** /**
1148:Drivers/STM32L1xx_HAL_Driver/Inc/stm32l1xx_ll_usart.h ****   * @brief  Set Irda prescaler value, used for dividing the USART clock source
1149:Drivers/STM32L1xx_HAL_Driver/Inc/stm32l1xx_ll_usart.h ****   *         to achieve the Irda Low Power frequency (8 bits value)
1150:Drivers/STM32L1xx_HAL_Driver/Inc/stm32l1xx_ll_usart.h ****   * @note   Macro @ref IS_IRDA_INSTANCE(USARTx) can be used to check whether or not
1151:Drivers/STM32L1xx_HAL_Driver/Inc/stm32l1xx_ll_usart.h ****   *         IrDA feature is supported by the USARTx instance.
1152:Drivers/STM32L1xx_HAL_Driver/Inc/stm32l1xx_ll_usart.h ****   * @rmtoll GTPR         PSC           LL_USART_SetIrdaPrescaler
1153:Drivers/STM32L1xx_HAL_Driver/Inc/stm32l1xx_ll_usart.h ****   * @param  USARTx USART Instance
1154:Drivers/STM32L1xx_HAL_Driver/Inc/stm32l1xx_ll_usart.h ****   * @param  PrescalerValue Value between Min_Data=0x00 and Max_Data=0xFF
1155:Drivers/STM32L1xx_HAL_Driver/Inc/stm32l1xx_ll_usart.h ****   * @retval None
1156:Drivers/STM32L1xx_HAL_Driver/Inc/stm32l1xx_ll_usart.h ****   */
1157:Drivers/STM32L1xx_HAL_Driver/Inc/stm32l1xx_ll_usart.h **** __STATIC_INLINE void LL_USART_SetIrdaPrescaler(USART_TypeDef *USARTx, uint32_t PrescalerValue)
1158:Drivers/STM32L1xx_HAL_Driver/Inc/stm32l1xx_ll_usart.h **** {
1159:Drivers/STM32L1xx_HAL_Driver/Inc/stm32l1xx_ll_usart.h ****   MODIFY_REG(USARTx->GTPR, USART_GTPR_PSC, PrescalerValue);
1160:Drivers/STM32L1xx_HAL_Driver/Inc/stm32l1xx_ll_usart.h **** }
1161:Drivers/STM32L1xx_HAL_Driver/Inc/stm32l1xx_ll_usart.h **** 
1162:Drivers/STM32L1xx_HAL_Driver/Inc/stm32l1xx_ll_usart.h **** /**
1163:Drivers/STM32L1xx_HAL_Driver/Inc/stm32l1xx_ll_usart.h ****   * @brief  Return Irda prescaler value, used for dividing the USART clock source
1164:Drivers/STM32L1xx_HAL_Driver/Inc/stm32l1xx_ll_usart.h ****   *         to achieve the Irda Low Power frequency (8 bits value)
1165:Drivers/STM32L1xx_HAL_Driver/Inc/stm32l1xx_ll_usart.h ****   * @note   Macro @ref IS_IRDA_INSTANCE(USARTx) can be used to check whether or not
1166:Drivers/STM32L1xx_HAL_Driver/Inc/stm32l1xx_ll_usart.h ****   *         IrDA feature is supported by the USARTx instance.
1167:Drivers/STM32L1xx_HAL_Driver/Inc/stm32l1xx_ll_usart.h ****   * @rmtoll GTPR         PSC           LL_USART_GetIrdaPrescaler
1168:Drivers/STM32L1xx_HAL_Driver/Inc/stm32l1xx_ll_usart.h ****   * @param  USARTx USART Instance
1169:Drivers/STM32L1xx_HAL_Driver/Inc/stm32l1xx_ll_usart.h ****   * @retval Irda prescaler value (Value between Min_Data=0x00 and Max_Data=0xFF)
1170:Drivers/STM32L1xx_HAL_Driver/Inc/stm32l1xx_ll_usart.h ****   */
1171:Drivers/STM32L1xx_HAL_Driver/Inc/stm32l1xx_ll_usart.h **** __STATIC_INLINE uint32_t LL_USART_GetIrdaPrescaler(USART_TypeDef *USARTx)
1172:Drivers/STM32L1xx_HAL_Driver/Inc/stm32l1xx_ll_usart.h **** {
1173:Drivers/STM32L1xx_HAL_Driver/Inc/stm32l1xx_ll_usart.h ****   return (uint32_t)(READ_BIT(USARTx->GTPR, USART_GTPR_PSC));
1174:Drivers/STM32L1xx_HAL_Driver/Inc/stm32l1xx_ll_usart.h **** }
1175:Drivers/STM32L1xx_HAL_Driver/Inc/stm32l1xx_ll_usart.h **** 
1176:Drivers/STM32L1xx_HAL_Driver/Inc/stm32l1xx_ll_usart.h **** /**
1177:Drivers/STM32L1xx_HAL_Driver/Inc/stm32l1xx_ll_usart.h ****   * @}
1178:Drivers/STM32L1xx_HAL_Driver/Inc/stm32l1xx_ll_usart.h ****   */
1179:Drivers/STM32L1xx_HAL_Driver/Inc/stm32l1xx_ll_usart.h **** 
1180:Drivers/STM32L1xx_HAL_Driver/Inc/stm32l1xx_ll_usart.h **** /** @defgroup USART_LL_EF_Configuration_Smartcard Configuration functions related to Smartcard feat
1181:Drivers/STM32L1xx_HAL_Driver/Inc/stm32l1xx_ll_usart.h ****   * @{
1182:Drivers/STM32L1xx_HAL_Driver/Inc/stm32l1xx_ll_usart.h ****   */
